Archive member included to satisfy reference by file (symbol)

./drivers/ddr/libddr_64.a(dcu.o)
                              output/drivers/irq/chip.o (init_chip_ddr)
/home/tool/arm-hjimi-linux-gnueabi/bin/../lib/gcc/arm-hjimi-linux-gnueabi/7.3.0/libgcc.a(_aeabi_uldivmod.o)
                              output/drivers/timers/timer_imi2280.o (__aeabi_uldivmod)
/home/tool/arm-hjimi-linux-gnueabi/bin/../lib/gcc/arm-hjimi-linux-gnueabi/7.3.0/libgcc.a(_dvmd_lnx.o)
                              /home/tool/arm-hjimi-linux-gnueabi/bin/../lib/gcc/arm-hjimi-linux-gnueabi/7.3.0/libgcc.a(_aeabi_uldivmod.o) (__aeabi_ldiv0)
/home/tool/arm-hjimi-linux-gnueabi/bin/../lib/gcc/arm-hjimi-linux-gnueabi/7.3.0/libgcc.a(_udivmoddi4.o)
                              /home/tool/arm-hjimi-linux-gnueabi/bin/../lib/gcc/arm-hjimi-linux-gnueabi/7.3.0/libgcc.a(_aeabi_uldivmod.o) (__udivmoddi4)

Allocating common symbols
Common symbol       size              file

cookie_qspi         0x4               output/drivers/qspi/candence_qspi.o
dputask_handle      0x4               output/app/dpu/dputask.o
tZQCS               0x4               ./drivers/ddr/libddr_64.a(dcu.o)
usb_free_list       0x8               output/app/dpu/dputask.o
tRRD                0x4               ./drivers/ddr/libddr_64.a(dcu.o)
dpc                 0xc0              output/app/dpu/dputask.o
CL                  0x4               ./drivers/ddr/libddr_64.a(dcu.o)
UART_Handler        0x4               output/main/main.o
___strtok           0x4               output/tools/stdlib/string.o
qspi_dma_complete   0x4               output/drivers/qspi/candence_qspi.o
g_imi_video         0x4               output/drivers/usb/gadget/function/u_imi.o
tx_chan             0x4               output/drivers/qspi/candence_qspi.o
CWL                 0x4               ./drivers/ddr/libddr_64.a(dcu.o)
tDLLK               0x4               ./drivers/ddr/libddr_64.a(dcu.o)
cli_output          0x400             output/tools/FreeRTOS_CLI/imi_console.o
queue_uart_buff     0x40              output/main/uart_task.o
tRP                 0x4               ./drivers/ddr/libddr_64.a(dcu.o)
tXPDLL              0x4               ./drivers/ddr/libddr_64.a(dcu.o)
tCKE                0x4               ./drivers/ddr/libddr_64.a(dcu.o)
tRASmin             0x4               ./drivers/ddr/libddr_64.a(dcu.o)
irq_desc            0x1000            output/drivers/irq/vic_int.o
xQueueRegistry      0x40              output/rtos/queue.o
tREFI               0x4               ./drivers/ddr/libddr_64.a(dcu.o)
idle_handle         0x4               output/app/dpu/dputask.o
rx_chan             0x4               output/drivers/qspi/candence_qspi.o
tXSDLL              0x4               ./drivers/ddr/libddr_64.a(dcu.o)
tRFC                0x4               ./drivers/ddr/libddr_64.a(dcu.o)
queue_uart_cmd      0x40              output/main/uart_task.o
tZQoper             0x4               ./drivers/ddr/libddr_64.a(dcu.o)
tMOD                0x4               ./drivers/ddr/libddr_64.a(dcu.o)
BL                  0x4               ./drivers/ddr/libddr_64.a(dcu.o)
RL                  0x4               ./drivers/ddr/libddr_64.a(dcu.o)
tWR                 0x4               ./drivers/ddr/libddr_64.a(dcu.o)
tRFCmin             0x4               ./drivers/ddr/libddr_64.a(dcu.o)
WL                  0x4               ./drivers/ddr/libddr_64.a(dcu.o)
tXPR                0x4               ./drivers/ddr/libddr_64.a(dcu.o)
usb_busy_list       0x8               output/app/dpu/dputask.o
g_frame_id          0x48              output/drivers/usb/gadget/function/u_imi.o
dev_list            0x140             output/drivers/clock/clock_2280.o
IMI_BUFPOLL_BASE    0x6000000         output/drivers/buf_man/imi_bm.o
QSPI_Handler        0x4               output/main/main.o
tXS                 0x4               ./drivers/ddr/libddr_64.a(dcu.o)
tRC                 0x4               ./drivers/ddr/libddr_64.a(dcu.o)
imi_cmd_hal         0x60              output/app/imi_app/vendor/cmd_hal.o
tCCD                0x4               ./drivers/ddr/libddr_64.a(dcu.o)
tRCD                0x4               ./drivers/ddr/libddr_64.a(dcu.o)
usb_handle          0x4               output/app/dpu/dputask.o
tRTP                0x4               ./drivers/ddr/libddr_64.a(dcu.o)
AL                  0x4               ./drivers/ddr/libddr_64.a(dcu.o)
tCKSRX              0x4               ./drivers/ddr/libddr_64.a(dcu.o)
imi_mail_desc       0xc               output/drivers/mailbox/imi_mailbox.o
tMRD                0x4               ./drivers/ddr/libddr_64.a(dcu.o)
Tctrl_delay         0x4               ./drivers/ddr/libddr_64.a(dcu.o)
elog_assert_hook    0x4               output/tools/easylogger/src/elog.o

Discarded input sections

 .comment       0x0000000000000000       0x31 output/rtos/croutine.o
 .note.GNU-stack
                0x0000000000000000        0x0 output/rtos/croutine.o
 .comment       0x0000000000000000       0x31 output/rtos/event_groups.o
 .note.GNU-stack
                0x0000000000000000        0x0 output/rtos/event_groups.o
 .comment       0x0000000000000000       0x31 output/rtos/list.o
 .note.GNU-stack
                0x0000000000000000        0x0 output/rtos/list.o
 .comment       0x0000000000000000       0x31 output/rtos/portable/GCC/port.o
 .note.GNU-stack
                0x0000000000000000        0x0 output/rtos/portable/GCC/port.o
 .comment       0x0000000000000000       0x31 output/rtos/portable/MemMang/heap_4.o
 .note.GNU-stack
                0x0000000000000000        0x0 output/rtos/portable/MemMang/heap_4.o
 .comment       0x0000000000000000       0x31 output/rtos/queue.o
 .note.GNU-stack
                0x0000000000000000        0x0 output/rtos/queue.o
 .comment       0x0000000000000000       0x31 output/rtos/stream_buffer.o
 .note.GNU-stack
                0x0000000000000000        0x0 output/rtos/stream_buffer.o
 .comment       0x0000000000000000       0x31 output/rtos/tasks.o
 .note.GNU-stack
                0x0000000000000000        0x0 output/rtos/tasks.o
 .comment       0x0000000000000000       0x31 output/rtos/timers.o
 .note.GNU-stack
                0x0000000000000000        0x0 output/rtos/timers.o
 .comment       0x0000000000000000       0x31 output/main/driver_init.o
 .note.GNU-stack
                0x0000000000000000        0x0 output/main/driver_init.o
 .comment       0x0000000000000000       0x31 output/main/uart_task.o
 .note.GNU-stack
                0x0000000000000000        0x0 output/main/uart_task.o
 .comment       0x0000000000000000       0x31 output/main/main.o
 .note.GNU-stack
                0x0000000000000000        0x0 output/main/main.o
 .comment       0x0000000000000000       0x31 output/app/dpu/dpu_hal.o
 .note.GNU-stack
                0x0000000000000000        0x0 output/app/dpu/dpu_hal.o
 .comment       0x0000000000000000       0x31 output/app/dpu/dputask.o
 .note.GNU-stack
                0x0000000000000000        0x0 output/app/dpu/dputask.o
 .comment       0x0000000000000000       0x31 output/app/dpu/msg_module.o
 .note.GNU-stack
                0x0000000000000000        0x0 output/app/dpu/msg_module.o
 .comment       0x0000000000000000       0x31 output/app/imi_app/subsystem/usb/vendor_usb.o
 .note.GNU-stack
                0x0000000000000000        0x0 output/app/imi_app/subsystem/usb/vendor_usb.o
 .comment       0x0000000000000000       0x31 output/app/imi_app/subsystem/vendor_sub_system.o
 .note.GNU-stack
                0x0000000000000000        0x0 output/app/imi_app/subsystem/vendor_sub_system.o
 .comment       0x0000000000000000       0x31 output/app/imi_app/vendor/cmd_hal.o
 .note.GNU-stack
                0x0000000000000000        0x0 output/app/imi_app/vendor/cmd_hal.o
 .comment       0x0000000000000000       0x31 output/app/imi_app/vendor/vendor_device.o
 .note.GNU-stack
                0x0000000000000000        0x0 output/app/imi_app/vendor/vendor_device.o
 .comment       0x0000000000000000       0x31 output/app/imi_app/vendor/vendor_misc.o
 .note.GNU-stack
                0x0000000000000000        0x0 output/app/imi_app/vendor/vendor_misc.o
 .comment       0x0000000000000000       0x31 output/drivers/base/imi_dev.o
 .note.GNU-stack
                0x0000000000000000        0x0 output/drivers/base/imi_dev.o
 .comment       0x0000000000000000       0x31 output/drivers/base/imi_work.o
 .note.GNU-stack
                0x0000000000000000        0x0 output/drivers/base/imi_work.o
 .comment       0x0000000000000000       0x31 output/drivers/buf_man/imi_bm.o
 .note.GNU-stack
                0x0000000000000000        0x0 output/drivers/buf_man/imi_bm.o
 .comment       0x0000000000000000       0x31 output/drivers/clock/clock.o
 .note.GNU-stack
                0x0000000000000000        0x0 output/drivers/clock/clock.o
 .comment       0x0000000000000000       0x31 output/drivers/clock/clock_1680.o
 .note.GNU-stack
                0x0000000000000000        0x0 output/drivers/clock/clock_1680.o
 .comment       0x0000000000000000       0x31 output/drivers/clock/clock_2280.o
 .note.GNU-stack
                0x0000000000000000        0x0 output/drivers/clock/clock_2280.o
 .comment       0x0000000000000000       0x31 output/drivers/compat/linux_compat.o
 .note.GNU-stack
                0x0000000000000000        0x0 output/drivers/compat/linux_compat.o
 .comment       0x0000000000000000       0x31 output/drivers/cpu/cpu.o
 .note.GNU-stack
                0x0000000000000000        0x0 output/drivers/cpu/cpu.o
 .comment       0x0000000000000000       0x31 output/drivers/csi_rx/csi_rx_2280.o
 .note.GNU-stack
                0x0000000000000000        0x0 output/drivers/csi_rx/csi_rx_2280.o
 .comment       0x0000000000000000       0x31 output/drivers/csi_rx/vidomain_2280.o
 .note.GNU-stack
                0x0000000000000000        0x0 output/drivers/csi_rx/vidomain_2280.o
 .comment       0x0000000000000000       0x31 output/drivers/delay/delay.o
 .note.GNU-stack
                0x0000000000000000        0x0 output/drivers/delay/delay.o
 .comment       0x0000000000000000       0x31 output/drivers/dma/dmaengine.o
 .note.GNU-stack
                0x0000000000000000        0x0 output/drivers/dma/dmaengine.o
 .comment       0x0000000000000000       0x31 output/drivers/dma/pl330.o
 .note.GNU-stack
                0x0000000000000000        0x0 output/drivers/dma/pl330.o
 .comment       0x0000000000000000       0x31 output/drivers/dpu_2280/debug.o
 .note.GNU-stack
                0x0000000000000000        0x0 output/drivers/dpu_2280/debug.o
 .comment       0x0000000000000000       0x31 output/drivers/dpu_2280/dpu.o
 .note.GNU-stack
                0x0000000000000000        0x0 output/drivers/dpu_2280/dpu.o
 .comment       0x0000000000000000       0x31 output/drivers/dpu_2280/dpu_dev.o
 .note.GNU-stack
                0x0000000000000000        0x0 output/drivers/dpu_2280/dpu_dev.o
 .comment       0x0000000000000000       0x31 output/drivers/gpio/gpio.o
 .note.GNU-stack
                0x0000000000000000        0x0 output/drivers/gpio/gpio.o
 .comment       0x0000000000000000       0x31 output/drivers/i2c/i2c-designware-common.o
 .note.GNU-stack
                0x0000000000000000        0x0 output/drivers/i2c/i2c-designware-common.o
 .comment       0x0000000000000000       0x31 output/drivers/i2c/i2c-designware-dma.o
 .note.GNU-stack
                0x0000000000000000        0x0 output/drivers/i2c/i2c-designware-dma.o
 .comment       0x0000000000000000       0x31 output/drivers/i2c/i2c-designware-master.o
 .note.GNU-stack
                0x0000000000000000        0x0 output/drivers/i2c/i2c-designware-master.o
 .comment       0x0000000000000000       0x31 output/drivers/i2c/i2c-designware-platdrv.o
 .note.GNU-stack
                0x0000000000000000        0x0 output/drivers/i2c/i2c-designware-platdrv.o
 .comment       0x0000000000000000       0x31 output/drivers/i2c/i2c-designware-slave.o
 .note.GNU-stack
                0x0000000000000000        0x0 output/drivers/i2c/i2c-designware-slave.o
 .comment       0x0000000000000000       0x31 output/drivers/i2c/i2c_plat.o
 .note.GNU-stack
                0x0000000000000000        0x0 output/drivers/i2c/i2c_plat.o
 .comment       0x0000000000000000       0x31 output/drivers/i2c/i2c_core.o
 .note.GNU-stack
                0x0000000000000000        0x0 output/drivers/i2c/i2c_core.o
 .comment       0x0000000000000000       0x31 output/drivers/ipc/imi_ipc.o
 .note.GNU-stack
                0x0000000000000000        0x0 output/drivers/ipc/imi_ipc.o
 .comment       0x0000000000000000       0x31 output/drivers/irq/chip.o
 .note.GNU-stack
                0x0000000000000000        0x0 output/drivers/irq/chip.o
 .comment       0x0000000000000000       0x31 output/drivers/irq/vic_int.o
 .note.GNU-stack
                0x0000000000000000        0x0 output/drivers/irq/vic_int.o
 .comment       0x0000000000000000       0x31 output/drivers/irq/interrupt.o
 .note.GNU-stack
                0x0000000000000000        0x0 output/drivers/irq/interrupt.o
 .comment       0x0000000000000000       0x31 output/drivers/irrx/irrx.o
 .note.GNU-stack
                0x0000000000000000        0x0 output/drivers/irrx/irrx.o
 .comment       0x0000000000000000       0x31 output/drivers/irrx/ov928x.o
 .note.GNU-stack
                0x0000000000000000        0x0 output/drivers/irrx/ov928x.o
 .comment       0x0000000000000000       0x31 output/drivers/mailbox/imi_mailbox.o
 .note.GNU-stack
                0x0000000000000000        0x0 output/drivers/mailbox/imi_mailbox.o
 .comment       0x0000000000000000       0x31 output/drivers/mailbox/mailbox.o
 .note.GNU-stack
                0x0000000000000000        0x0 output/drivers/mailbox/mailbox.o
 .comment       0x0000000000000000       0x31 output/drivers/pinmux/pinmux.o
 .note.GNU-stack
                0x0000000000000000        0x0 output/drivers/pinmux/pinmux.o
 .comment       0x0000000000000000       0x31 output/drivers/qspi/nand/spi_bbm.o
 .note.GNU-stack
                0x0000000000000000        0x0 output/drivers/qspi/nand/spi_bbm.o
 .comment       0x0000000000000000       0x31 output/drivers/qspi/nand/spi_nand.o
 .note.GNU-stack
                0x0000000000000000        0x0 output/drivers/qspi/nand/spi_nand.o
 .comment       0x0000000000000000       0x31 output/drivers/qspi/nor/spi_nor.o
 .note.GNU-stack
                0x0000000000000000        0x0 output/drivers/qspi/nor/spi_nor.o
 .comment       0x0000000000000000       0x31 output/drivers/qspi/nor_test.o
 .note.GNU-stack
                0x0000000000000000        0x0 output/drivers/qspi/nor_test.o
 .comment       0x0000000000000000       0x31 output/drivers/qspi/nand_test.o
 .note.GNU-stack
                0x0000000000000000        0x0 output/drivers/qspi/nand_test.o
 .comment       0x0000000000000000       0x31 output/drivers/qspi/candence_qspi.o
 .note.GNU-stack
                0x0000000000000000        0x0 output/drivers/qspi/candence_qspi.o
 .comment       0x0000000000000000       0x31 output/drivers/reset/reset_imi1680.o
 .note.GNU-stack
                0x0000000000000000        0x0 output/drivers/reset/reset_imi1680.o
 .comment       0x0000000000000000       0x31 output/drivers/reset/reset_imi2280.o
 .note.GNU-stack
                0x0000000000000000        0x0 output/drivers/reset/reset_imi2280.o
 .comment       0x0000000000000000       0x31 output/drivers/reset/reset.o
 .note.GNU-stack
                0x0000000000000000        0x0 output/drivers/reset/reset.o
 .comment       0x0000000000000000       0x31 output/drivers/rvl/rvl.o
 .note.GNU-stack
                0x0000000000000000        0x0 output/drivers/rvl/rvl.o
 .comment       0x0000000000000000       0x31 output/drivers/soc/cache-cp15.o
 .note.GNU-stack
                0x0000000000000000        0x0 output/drivers/soc/cache-cp15.o
 .comment       0x0000000000000000       0x31 output/drivers/soc/dma_buf.o
 .note.GNU-stack
                0x0000000000000000        0x0 output/drivers/soc/dma_buf.o
 .comment       0x0000000000000000       0x31 output/drivers/ssp/imi_spi.o
 .note.GNU-stack
                0x0000000000000000        0x0 output/drivers/ssp/imi_spi.o
 .comment       0x0000000000000000       0x31 output/drivers/timers/timer_imi1680.o
 .note.GNU-stack
                0x0000000000000000        0x0 output/drivers/timers/timer_imi1680.o
 .comment       0x0000000000000000       0x31 output/drivers/timers/timer_imi2280.o
 .note.GNU-stack
                0x0000000000000000        0x0 output/drivers/timers/timer_imi2280.o
 .comment       0x0000000000000000       0x31 output/drivers/trigger/sensor_sync_2280.o
 .note.GNU-stack
                0x0000000000000000        0x0 output/drivers/trigger/sensor_sync_2280.o
 .comment       0x0000000000000000       0x31 output/drivers/trigger/soft_timer.o
 .note.GNU-stack
                0x0000000000000000        0x0 output/drivers/trigger/soft_timer.o
 .comment       0x0000000000000000       0x31 output/drivers/trigger/trigger.o
 .note.GNU-stack
                0x0000000000000000        0x0 output/drivers/trigger/trigger.o
 .comment       0x0000000000000000       0x31 output/drivers/uart/uart.o
 .note.GNU-stack
                0x0000000000000000        0x0 output/drivers/uart/uart.o
 .comment       0x0000000000000000       0x31 output/drivers/usb/gadget/composite.o
 .note.GNU-stack
                0x0000000000000000        0x0 output/drivers/usb/gadget/composite.o
 .comment       0x0000000000000000       0x31 output/drivers/usb/gadget/config.o
 .note.GNU-stack
                0x0000000000000000        0x0 output/drivers/usb/gadget/config.o
 .comment       0x0000000000000000       0x31 output/drivers/usb/gadget/core.o
 .note.GNU-stack
                0x0000000000000000        0x0 output/drivers/usb/gadget/core.o
 .comment       0x0000000000000000       0x31 output/drivers/usb/gadget/epautoconf.o
 .note.GNU-stack
                0x0000000000000000        0x0 output/drivers/usb/gadget/epautoconf.o
 .comment       0x0000000000000000       0x31 output/drivers/usb/gadget/function/f_imi.o
 .note.GNU-stack
                0x0000000000000000        0x0 output/drivers/usb/gadget/function/f_imi.o
 .comment       0x0000000000000000       0x31 output/drivers/usb/gadget/function/imi_vendor_cmd.o
 .note.GNU-stack
                0x0000000000000000        0x0 output/drivers/usb/gadget/function/imi_vendor_cmd.o
 .comment       0x0000000000000000       0x31 output/drivers/usb/gadget/function/u_imi.o
 .note.GNU-stack
                0x0000000000000000        0x0 output/drivers/usb/gadget/function/u_imi.o
 .comment       0x0000000000000000       0x31 output/drivers/usb/gadget/legacy/g_imi_usb.o
 .note.GNU-stack
                0x0000000000000000        0x0 output/drivers/usb/gadget/legacy/g_imi_usb.o
 .comment       0x0000000000000000       0x31 output/drivers/usb/gadget/usbstring.o
 .note.GNU-stack
                0x0000000000000000        0x0 output/drivers/usb/gadget/usbstring.o
 .comment       0x0000000000000000       0x31 output/drivers/usb/musb/musb_core.o
 .note.GNU-stack
                0x0000000000000000        0x0 output/drivers/usb/musb/musb_core.o
 .comment       0x0000000000000000       0x31 output/drivers/usb/musb/musb_gadget.o
 .note.GNU-stack
                0x0000000000000000        0x0 output/drivers/usb/musb/musb_gadget.o
 .comment       0x0000000000000000       0x31 output/drivers/usb/musb/musb_gadget_ep0.o
 .note.GNU-stack
                0x0000000000000000        0x0 output/drivers/usb/musb/musb_gadget_ep0.o
 .comment       0x0000000000000000       0x31 output/drivers/usb/musb/musb_rtos.o
 .note.GNU-stack
                0x0000000000000000        0x0 output/drivers/usb/musb/musb_rtos.o
 .comment       0x0000000000000000       0x31 output/drivers/usb/musb/musbhsdma.o
 .note.GNU-stack
                0x0000000000000000        0x0 output/drivers/usb/musb/musbhsdma.o
 .comment       0x0000000000000000       0x31 output/drivers/vcsel_driver/vcsel.o
 .note.GNU-stack
                0x0000000000000000        0x0 output/drivers/vcsel_driver/vcsel.o
 .comment       0x0000000000000000       0x31 output/drivers/vcsel_driver/lm36011.o
 .note.GNU-stack
                0x0000000000000000        0x0 output/drivers/vcsel_driver/lm36011.o
 .comment       0x0000000000000000       0x31 output/drivers/vcsel_driver/lm3644.o
 .note.GNU-stack
                0x0000000000000000        0x0 output/drivers/vcsel_driver/lm3644.o
 .comment       0x0000000000000000       0x31 output/boards/2280_ddr/start/section.o
 .note.GNU-stack
                0x0000000000000000        0x0 output/boards/2280_ddr/start/section.o
 .comment       0x0000000000000000       0x31 output/boards/2280_ddr/board_2280.o
 .note.GNU-stack
                0x0000000000000000        0x0 output/boards/2280_ddr/board_2280.o
 .comment       0x0000000000000000       0x31 output/tools/FreeRTOS_CLI/FreeRTOS_CLI.o
 .note.GNU-stack
                0x0000000000000000        0x0 output/tools/FreeRTOS_CLI/FreeRTOS_CLI.o
 .comment       0x0000000000000000       0x31 output/tools/FreeRTOS_CLI/imi_console.o
 .note.GNU-stack
                0x0000000000000000        0x0 output/tools/FreeRTOS_CLI/imi_console.o
 .comment       0x0000000000000000       0x31 output/tools/easylogger/port/elog_init.o
 .note.GNU-stack
                0x0000000000000000        0x0 output/tools/easylogger/port/elog_init.o
 .comment       0x0000000000000000       0x31 output/tools/easylogger/port/elog_port.o
 .note.GNU-stack
                0x0000000000000000        0x0 output/tools/easylogger/port/elog_port.o
 .comment       0x0000000000000000       0x31 output/tools/easylogger/src/elog_utils.o
 .note.GNU-stack
                0x0000000000000000        0x0 output/tools/easylogger/src/elog_utils.o
 .comment       0x0000000000000000       0x31 output/tools/easylogger/src/elog.o
 .note.GNU-stack
                0x0000000000000000        0x0 output/tools/easylogger/src/elog.o
 .comment       0x0000000000000000       0x31 output/tools/printf/vsnprintf.o
 .note.GNU-stack
                0x0000000000000000        0x0 output/tools/printf/vsnprintf.o
 .comment       0x0000000000000000       0x31 output/tools/printf/printf.o
 .note.GNU-stack
                0x0000000000000000        0x0 output/tools/printf/printf.o
 .comment       0x0000000000000000       0x31 output/tools/stdlib/ctype.o
 .note.GNU-stack
                0x0000000000000000        0x0 output/tools/stdlib/ctype.o
 .comment       0x0000000000000000       0x31 output/tools/stdlib/string.o
 .note.GNU-stack
                0x0000000000000000        0x0 output/tools/stdlib/string.o
 .comment       0x0000000000000000       0x31 ./drivers/ddr/libddr_64.a(dcu.o)
 .note.GNU-stack
                0x0000000000000000        0x0 ./drivers/ddr/libddr_64.a(dcu.o)
 .note.GNU-stack
                0x0000000000000000        0x0 /home/tool/arm-hjimi-linux-gnueabi/bin/../lib/gcc/arm-hjimi-linux-gnueabi/7.3.0/libgcc.a(_aeabi_uldivmod.o)
 .note.GNU-stack
                0x0000000000000000        0x0 /home/tool/arm-hjimi-linux-gnueabi/bin/../lib/gcc/arm-hjimi-linux-gnueabi/7.3.0/libgcc.a(_dvmd_lnx.o)
 .comment       0x0000000000000000       0x31 /home/tool/arm-hjimi-linux-gnueabi/bin/../lib/gcc/arm-hjimi-linux-gnueabi/7.3.0/libgcc.a(_udivmoddi4.o)
 .note.GNU-stack
                0x0000000000000000        0x0 /home/tool/arm-hjimi-linux-gnueabi/bin/../lib/gcc/arm-hjimi-linux-gnueabi/7.3.0/libgcc.a(_udivmoddi4.o)

Memory Configuration

Name             Origin             Length             Attributes
*default*        0x0000000000000000 0xffffffffffffffff

Linker script and memory map

LOAD output/rtos/croutine.o
LOAD output/rtos/event_groups.o
LOAD output/rtos/list.o
LOAD output/rtos/portable/GCC/port.o
LOAD output/rtos/portable/MemMang/heap_4.o
LOAD output/rtos/queue.o
LOAD output/rtos/stream_buffer.o
LOAD output/rtos/tasks.o
LOAD output/rtos/timers.o
LOAD output/main/driver_init.o
LOAD output/main/uart_task.o
LOAD output/main/main.o
LOAD output/app/dpu/dpu_hal.o
LOAD output/app/dpu/dputask.o
LOAD output/app/dpu/msg_module.o
LOAD output/app/imi_app/subsystem/usb/vendor_usb.o
LOAD output/app/imi_app/subsystem/vendor_sub_system.o
LOAD output/app/imi_app/vendor/cmd_hal.o
LOAD output/app/imi_app/vendor/vendor_device.o
LOAD output/app/imi_app/vendor/vendor_misc.o
LOAD output/drivers/base/imi_dev.o
LOAD output/drivers/base/imi_work.o
LOAD output/drivers/buf_man/imi_bm.o
LOAD output/drivers/clock/clock.o
LOAD output/drivers/clock/clock_1680.o
LOAD output/drivers/clock/clock_2280.o
LOAD output/drivers/compat/linux_compat.o
LOAD output/drivers/cpu/cpu.o
LOAD output/drivers/csi_rx/csi_rx_2280.o
LOAD output/drivers/csi_rx/vidomain_2280.o
LOAD output/drivers/delay/delay.o
LOAD output/drivers/dma/dmaengine.o
LOAD output/drivers/dma/pl330.o
LOAD output/drivers/dpu_2280/debug.o
LOAD output/drivers/dpu_2280/dpu.o
LOAD output/drivers/dpu_2280/dpu_dev.o
LOAD output/drivers/gpio/gpio.o
LOAD output/drivers/i2c/i2c-designware-common.o
LOAD output/drivers/i2c/i2c-designware-dma.o
LOAD output/drivers/i2c/i2c-designware-master.o
LOAD output/drivers/i2c/i2c-designware-platdrv.o
LOAD output/drivers/i2c/i2c-designware-slave.o
LOAD output/drivers/i2c/i2c_plat.o
LOAD output/drivers/i2c/i2c_core.o
LOAD output/drivers/ipc/imi_ipc.o
LOAD output/drivers/irq/chip.o
LOAD output/drivers/irq/vic_int.o
LOAD output/drivers/irq/interrupt.o
LOAD output/drivers/irrx/irrx.o
LOAD output/drivers/irrx/ov928x.o
LOAD output/drivers/mailbox/imi_mailbox.o
LOAD output/drivers/mailbox/mailbox.o
LOAD output/drivers/pinmux/pinmux.o
LOAD output/drivers/qspi/nand/spi_bbm.o
LOAD output/drivers/qspi/nand/spi_nand.o
LOAD output/drivers/qspi/nor/spi_nor.o
LOAD output/drivers/qspi/nor_test.o
LOAD output/drivers/qspi/nand_test.o
LOAD output/drivers/qspi/candence_qspi.o
LOAD output/drivers/reset/reset_imi1680.o
LOAD output/drivers/reset/reset_imi2280.o
LOAD output/drivers/reset/reset.o
LOAD output/drivers/rvl/rvl.o
LOAD output/drivers/soc/cache-cp15.o
LOAD output/drivers/soc/dma_buf.o
LOAD output/drivers/ssp/imi_spi.o
LOAD output/drivers/timers/timer_imi1680.o
LOAD output/drivers/timers/timer_imi2280.o
LOAD output/drivers/trigger/sensor_sync_2280.o
LOAD output/drivers/trigger/soft_timer.o
LOAD output/drivers/trigger/trigger.o
LOAD output/drivers/uart/uart.o
LOAD output/drivers/usb/gadget/composite.o
LOAD output/drivers/usb/gadget/config.o
LOAD output/drivers/usb/gadget/core.o
LOAD output/drivers/usb/gadget/epautoconf.o
LOAD output/drivers/usb/gadget/function/f_imi.o
LOAD output/drivers/usb/gadget/function/imi_vendor_cmd.o
LOAD output/drivers/usb/gadget/function/u_imi.o
LOAD output/drivers/usb/gadget/legacy/g_imi_usb.o
LOAD output/drivers/usb/gadget/usbstring.o
LOAD output/drivers/usb/musb/musb_core.o
LOAD output/drivers/usb/musb/musb_gadget.o
LOAD output/drivers/usb/musb/musb_gadget_ep0.o
LOAD output/drivers/usb/musb/musb_rtos.o
LOAD output/drivers/usb/musb/musbhsdma.o
LOAD output/drivers/vcsel_driver/vcsel.o
LOAD output/drivers/vcsel_driver/lm36011.o
LOAD output/drivers/vcsel_driver/lm3644.o
LOAD output/boards/2280_ddr/start/section.o
LOAD output/boards/2280_ddr/board_2280.o
LOAD output/tools/FreeRTOS_CLI/FreeRTOS_CLI.o
LOAD output/tools/FreeRTOS_CLI/imi_console.o
LOAD output/tools/easylogger/port/elog_init.o
LOAD output/tools/easylogger/port/elog_port.o
LOAD output/tools/easylogger/src/elog_utils.o
LOAD output/tools/easylogger/src/elog.o
LOAD output/tools/printf/vsnprintf.o
LOAD output/tools/printf/printf.o
LOAD output/tools/stdlib/ctype.o
LOAD output/tools/stdlib/string.o
LOAD output/boards/2280_ddr/start/lib1funcs.o
LOAD output/boards/2280_ddr/start/start.o
LOAD ./drivers/ddr/libddr_64.a
LOAD /home/tool/arm-hjimi-linux-gnueabi/bin/../lib/gcc/arm-hjimi-linux-gnueabi/7.3.0/libgcc.a
LOAD /home/tool/arm-hjimi-linux-gnueabi/bin/../lib/gcc/arm-hjimi-linux-gnueabi/7.3.0/../../../../arm-hjimi-linux-gnueabi/lib/libgcc_s.so
START GROUP
LOAD /home/tool/arm-hjimi-linux-gnueabi/bin/../lib/gcc/arm-hjimi-linux-gnueabi/7.3.0/../../../../arm-hjimi-linux-gnueabi/lib/libgcc_s.so.1
LOAD /home/tool/arm-hjimi-linux-gnueabi/bin/../lib/gcc/arm-hjimi-linux-gnueabi/7.3.0/libgcc.a
END GROUP
LOAD /home/tool/arm-hjimi-linux-gnueabi/arm-hjimi-linux-gnueabi/sysroot/usr/lib/libc.so
START GROUP
LOAD /home/tool/arm-hjimi-linux-gnueabi/arm-hjimi-linux-gnueabi/sysroot/lib/libc.so.6
LOAD /home/tool/arm-hjimi-linux-gnueabi/arm-hjimi-linux-gnueabi/sysroot/usr/lib/libc_nonshared.a
LOAD /home/tool/arm-hjimi-linux-gnueabi/arm-hjimi-linux-gnueabi/sysroot/lib/ld-linux.so.3
END GROUP
LOAD /home/tool/arm-hjimi-linux-gnueabi/bin/../lib/gcc/arm-hjimi-linux-gnueabi/7.3.0/libgcc.a
LOAD /home/tool/arm-hjimi-linux-gnueabi/bin/../lib/gcc/arm-hjimi-linux-gnueabi/7.3.0/../../../../arm-hjimi-linux-gnueabi/lib/libgcc_s.so
START GROUP
LOAD /home/tool/arm-hjimi-linux-gnueabi/bin/../lib/gcc/arm-hjimi-linux-gnueabi/7.3.0/../../../../arm-hjimi-linux-gnueabi/lib/libgcc_s.so.1
LOAD /home/tool/arm-hjimi-linux-gnueabi/bin/../lib/gcc/arm-hjimi-linux-gnueabi/7.3.0/libgcc.a
END GROUP
                0x0000000000000000                . = 0x0
                0x0000000000000000                . = ALIGN (0x4)

.text           0x0000000080000000    0x540d8
                0x0000000080000000                _text = .
 *(.vectors*)
 .vectors       0x0000000080000000       0x3c output/boards/2280_ddr/start/start.o
                0x0000000080000000                __start
                0x000000008000003c                __vectors_end = .
 output/boards/2280_ddr/start/start.o(.text*)
 .text          0x000000008000003c       0x98 output/boards/2280_ddr/start/start.o
                0x000000008000003c                reset
 *(._INIT_START)
 ._INIT_START   0x00000000800000d4        0x4 output/main/driver_init.o
                0x00000000800000d4                func_start
 *(._INIT_EARLY)
 ._INIT_EARLY   0x00000000800000d8        0x4 output/drivers/irq/chip.o
                0x00000000800000d8                _early_vector_addr_init
 ._INIT_EARLY   0x00000000800000dc        0x8 output/drivers/uart/uart.o
                0x00000000800000dc                _early_uart_init
                0x00000000800000e0                _early_uart1_init
 ._INIT_EARLY   0x00000000800000e4        0x4 output/tools/easylogger/port/elog_init.o
                0x00000000800000e4                _early_imi_elog_init
 *(._INIT_CORE)
 ._INIT_CORE    0x00000000800000e8        0x4 output/drivers/base/imi_work.o
                0x00000000800000e8                _core_irq_bootom_half_init
 ._INIT_CORE    0x00000000800000ec        0x8 output/drivers/clock/clock_2280.o
                0x00000000800000ec                _core_clock_dev_init
                0x00000000800000f0                _core_imi_2280_clk_default
 ._INIT_CORE    0x00000000800000f4        0x4 output/drivers/delay/delay.o
                0x00000000800000f4                _core_timer32_init
 ._INIT_CORE    0x00000000800000f8        0x4 output/drivers/irq/vic_int.o
                0x00000000800000f8                _core_vic_init
 ._INIT_CORE    0x00000000800000fc        0x4 output/drivers/reset/reset_imi2280.o
                0x00000000800000fc                _core_imi2280_reset_probe
 *(._INIT_POST_CORE)
 ._INIT_POST_CORE
                0x0000000080000100        0x4 output/drivers/dma/pl330.o
                0x0000000080000100                _post_core_pl330_init
 ._INIT_POST_CORE
                0x0000000080000104        0x4 output/drivers/pinmux/pinmux.o
                0x0000000080000104                _post_core_pinmux_default
 ._INIT_POST_CORE
                0x0000000080000108        0x4 output/drivers/timers/timer_imi2280.o
                0x0000000080000108                _post_core_ConfigSysTime
 *(._INIT_ARCH)
 ._INIT_ARCH    0x000000008000010c        0x4 output/drivers/gpio/gpio.o
                0x000000008000010c                _arch_gpio_device_init
 ._INIT_ARCH    0x0000000080000110        0x4 output/drivers/i2c/i2c-designware-platdrv.o
                0x0000000080000110                _arch_imi_2280_i2c_controller_init
 ._INIT_ARCH    0x0000000080000114        0x4 output/drivers/mailbox/mailbox.o
                0x0000000080000114                _arch_mailbox_dev_init
 *(._INIT_SUBSYS)
 ._INIT_SUBSYS  0x0000000080000118        0x4 output/app/dpu/msg_module.o
                0x0000000080000118                _subsys_msg_module_init
 ._INIT_SUBSYS  0x000000008000011c        0x4 output/drivers/csi_rx/csi_rx_2280.o
                0x000000008000011c                _subsys_csi_dev_init
 ._INIT_SUBSYS  0x0000000080000120        0x4 output/drivers/csi_rx/vidomain_2280.o
                0x0000000080000120                _subsys_vi_domain_probe
 ._INIT_SUBSYS  0x0000000080000124        0x4 output/drivers/dma/dmaengine.o
                0x0000000080000124                _subsys_dma_engine_probe
 ._INIT_SUBSYS  0x0000000080000128        0x4 output/drivers/dpu_2280/dpu.o
                0x0000000080000128                _subsys_dpu_sys_init
 ._INIT_SUBSYS  0x000000008000012c        0x4 output/drivers/i2c/i2c_core.o
                0x000000008000012c                _subsys_i2c_probe
 ._INIT_SUBSYS  0x0000000080000130        0x4 output/drivers/irrx/irrx.o
                0x0000000080000130                _subsys_irrx_sys_init
 ._INIT_SUBSYS  0x0000000080000134        0x4 output/drivers/reset/reset.o
                0x0000000080000134                _subsys_reset_probe
 ._INIT_SUBSYS  0x0000000080000138        0x4 output/drivers/trigger/trigger.o
                0x0000000080000138                _subsys_trigger_sys_init
 ._INIT_SUBSYS  0x000000008000013c        0x4 output/drivers/vcsel_driver/vcsel.o
                0x000000008000013c                _subsys_vcsel_sys_init
 *(._INIT_FS)
 *(._INIT_DEV)
 ._INIT_DEV     0x0000000080000140        0x4 output/drivers/dpu_2280/dpu_dev.o
                0x0000000080000140                _dev_dpu_2280_probe
 ._INIT_DEV     0x0000000080000144        0x4 output/drivers/rvl/rvl.o
                0x0000000080000144                _dev_rvl_dev_init
 ._INIT_DEV     0x0000000080000148        0x4 output/drivers/trigger/sensor_sync_2280.o
                0x0000000080000148                _dev_ss_2280_probe
 ._INIT_DEV     0x000000008000014c        0x4 output/drivers/usb/gadget/legacy/g_imi_usb.o
                0x000000008000014c                _dev_USB_init
 ._INIT_DEV     0x0000000080000150        0x4 output/boards/2280_ddr/board_2280.o
                0x0000000080000150                _dev_board_init
 *(._INIT_LATE)
 *(._INIT_END)
 ._INIT_END     0x0000000080000154        0x4 output/main/driver_init.o
                0x0000000080000154                func_end
 *(.text*)
 .text          0x0000000080000158        0x0 output/rtos/croutine.o
 .text          0x0000000080000158      0xa18 output/rtos/event_groups.o
                0x0000000080000158                xEventGroupCreate
                0x00000000800001a8                xEventGroupSync
                0x00000000800003bc                xEventGroupWaitBits
                0x0000000080000638                xEventGroupClearBits
                0x00000000800006dc                xEventGroupClearBitsFromISR
                0x000000008000071c                xEventGroupGetBitsFromISR
                0x000000008000075c                xEventGroupSetBits
                0x0000000080000938                vEventGroupDelete
                0x00000000800009d4                vEventGroupSetBitsCallback
                0x0000000080000a00                vEventGroupClearBitsCallback
                0x0000000080000aac                xEventGroupSetBitsFromISR
                0x0000000080000af0                uxEventGroupGetNumber
                0x0000000080000b40                vEventGroupSetNumber
 .text          0x0000000080000b70      0x294 output/rtos/list.o
                0x0000000080000b70                vListInitialise
                0x0000000080000bd8                vListInitialiseItem
                0x0000000080000c04                vListInsertEnd
                0x0000000080000c8c                vListInsert
                0x0000000080000d64                uxListRemove
 .text          0x0000000080000e04      0x478 output/rtos/portable/GCC/port.o
                0x0000000080000e04                pxPortInitialiseStack
                0x0000000080001044                vPortYieldProcessor
                0x00000000800010f4                vPortStartFirstTask
                0x0000000080001154                xPortStartScheduler
                0x0000000080001170                vPortEndScheduler
                0x000000008000119c                vPortEnterCritical
                0x00000000800011f8                vPortExitCritical
 .text          0x000000008000127c      0x82c output/rtos/portable/MemMang/heap_4.o
                0x000000008000127c                pvPortMalloc
                0x000000008000151c                vPortFree
                0x000000008000165c                xPortGetFreeHeapSize
                0x0000000080001680                xPortGetMinimumEverFreeHeapSize
                0x00000000800016a4                vPortInitialiseBlocks
                0x0000000080001964                vPortGetHeapStats
 .text          0x0000000080001aa8     0x1ee8 output/rtos/queue.o
                0x0000000080001aa8                xQueueGenericReset
                0x0000000080001bec                xQueueGenericCreate
                0x0000000080001d84                xQueueCreateMutex
                0x0000000080001dd8                xQueueGiveMutexRecursive
                0x0000000080001e8c                xQueueTakeMutexRecursive
                0x0000000080001f48                xQueueGenericSend
                0x0000000080002218                xQueueGenericSendFromISR
                0x00000000800023d0                xQueueGiveFromISR
                0x0000000080002558                xQueueReceive
                0x00000000800027e0                imi_IsQueueEmpty
                0x000000008000281c                xQueueSemaphoreTake
                0x0000000080002b1c                xQueuePeek
                0x0000000080002dac                xQueueReceiveFromISR
                0x0000000080002f14                xQueuePeekFromISR
                0x0000000080003020                uxQueueMessagesWaiting
                0x000000008000307c                uxQueueSpacesAvailable
                0x00000000800030ec                uxQueueMessagesWaitingFromISR
                0x0000000080003148                vQueueDelete
                0x00000000800031a4                uxQueueGetQueueNumber
                0x00000000800031cc                vQueueSetQueueNumber
                0x00000000800031fc                ucQueueGetQueueType
                0x00000000800035f8                xQueueIsQueueEmptyFromISR
                0x00000000800036c0                xQueueIsQueueFullFromISR
                0x000000008000373c                vQueueAddToRegistry
                0x00000000800037c8                pcQueueGetName
                0x0000000080003850                vQueueUnregisterQueue
                0x00000000800038e4                vQueueWaitForMessageRestricted
 .text          0x0000000080003990     0x142c output/rtos/stream_buffer.o
                0x0000000080003990                xStreamBufferGenericCreate
                0x0000000080003a98                vStreamBufferDelete
                0x0000000080003b14                xStreamBufferReset
                0x0000000080003be4                xStreamBufferSetTriggerLevel
                0x0000000080003c80                xStreamBufferSpacesAvailable
                0x0000000080003d30                xStreamBufferBytesAvailable
                0x0000000080003d8c                xStreamBufferSend
                0x0000000080003fb4                xStreamBufferSendFromISR
                0x00000000800041d0                xStreamBufferReceive
                0x00000000800043ac                xStreamBufferNextMessageLengthBytes
                0x0000000080004490                xStreamBufferReceiveFromISR
                0x0000000080004680                xStreamBufferIsEmpty
                0x0000000080004700                xStreamBufferIsFull
                0x00000000800047a4                xStreamBufferSendCompletedFromISR
                0x0000000080004850                xStreamBufferReceiveCompletedFromISR
                0x0000000080004d34                uxStreamBufferGetStreamBufferNumber
                0x0000000080004d5c                vStreamBufferSetStreamBufferNumber
                0x0000000080004d8c                ucStreamBufferGetStreamBufferType
 .text          0x0000000080004dbc     0x3bc8 output/rtos/tasks.o
                0x0000000080004dbc                xTaskCreate
                0x0000000080005210                vTaskDelete
                0x0000000080005368                vTaskDelayUntil
                0x00000000800054dc                vTaskDelay
                0x0000000080005564                eTaskGetState
                0x00000000800056c4                uxTaskPriorityGet
                0x000000008000571c                uxTaskPriorityGetFromISR
                0x0000000080005778                vTaskPrioritySet
                0x0000000080005994                vTaskSuspend
                0x0000000080005b90                vTaskResume
                0x0000000080005cac                xTaskResumeFromISR
                0x0000000080005dec                vTaskStartScheduler
                0x0000000080005ee4                vTaskEndScheduler
                0x0000000080005f1c                vTaskSuspendAll
                0x0000000080005f4c                xTaskResumeAll
                0x0000000080006148                xTaskGetTickCount
                0x0000000080006178                xTaskGetTickCountFromISR
                0x00000000800061b0                uxTaskGetNumberOfTasks
                0x00000000800061d4                pcTaskGetName
                0x0000000080006244                uxTaskGetSystemState
                0x0000000080006444                xTaskCatchUpTicks
                0x00000000800064c4                xTaskIncrementTick
                0x000000008000674c                vTaskSwitchContext
                0x0000000080006938                vTaskPlaceOnEventList
                0x00000000800069a8                vTaskPlaceOnUnorderedEventList
                0x0000000080006a58                vTaskPlaceOnEventListRestricted
                0x0000000080006ae0                xTaskRemoveFromEventList
                0x0000000080006c30                vTaskRemoveFromUnorderedEventList
                0x0000000080006d68                vTaskSetTimeOutState
                0x0000000080006dd8                vTaskInternalSetTimeOutState
                0x0000000080006e20                xTaskCheckForTimeOut
                0x0000000080006f64                vTaskMissedYield
                0x0000000080006f8c                uxTaskGetTaskNumber
                0x0000000080006fdc                vTaskSetTaskNumber
                0x00000000800071a0                vTaskGetInfo
                0x0000000080007560                xTaskGetCurrentTaskHandle
                0x0000000080007590                xTaskGetSchedulerState
                0x00000000800075f8                xTaskPriorityInherit
                0x000000008000777c                xTaskPriorityDisinherit
                0x00000000800078ec                vTaskPriorityDisinheritAfterTimeout
                0x0000000080007b34                vTaskList
                0x0000000080007cb8                vTaskGetRunTimeStats
                0x0000000080007e94                uxTaskResetEventItemValue
                0x0000000080007ee4                pvTaskIncrementMutexHeldCount
                0x0000000080007f2c                ulTaskNotifyTake
                0x0000000080008004                xTaskNotifyWait
                0x000000008000811c                xTaskGenericNotify
                0x0000000080008348                xTaskGenericNotifyFromISR
                0x00000000800085c8                vTaskNotifyGiveFromISR
                0x0000000080008768                xTaskNotifyStateClear
                0x00000000800087e8                ulTaskNotifyValueClear
 .text          0x0000000080008984     0x109c output/rtos/timers.o
                0x0000000080008984                xTimerCreateTimerTask10
                0x000000008000899c                xTimerCreateTimerTask
                0x0000000080008a44                xTimerCreate
                0x0000000080008b7c                xTimerGenericCommand
                0x0000000080008c7c                xTimerGetTimerDaemonTaskHandle
                0x0000000080008cc4                xTimerGetPeriod
                0x0000000080008d18                vTimerSetReloadMode
                0x0000000080008db0                uxTimerGetReloadMode
                0x0000000080008e2c                xTimerGetExpiryTime
                0x0000000080008e88                pcTimerGetName
                0x000000008000977c                xTimerIsTimerActive
                0x00000000800097fc                pvTimerGetTimerID
                0x0000000080009860                vTimerSetTimerID
                0x00000000800098c4                xTimerPendFunctionCallFromISR
                0x0000000080009930                xTimerPendFunctionCall
                0x00000000800099c8                uxTimerGetTimerNumber
                0x00000000800099f0                vTimerSetTimerNumber
 .text          0x0000000080009a20       0x54 output/main/driver_init.o
                0x0000000080009a20                InitCalls
 .text          0x0000000080009a74      0x35c output/main/uart_task.o
                0x0000000080009a74                uart_fifo_is_empty
                0x0000000080009a9c                uart_fifo_is_error
                0x0000000080009af0                uart_get_char
                0x0000000080009b7c                uart_irq_handle
                0x0000000080009cdc                uart_task
 .text          0x0000000080009dd0      0x124 output/main/main.o
                0x0000000080009dd0                vApplicationStackOverflowHook
                0x0000000080009e00                InitSysCtrl
                0x0000000080009e14                xl_test
                0x0000000080009e58                main
 .text          0x0000000080009ef4     0x119c output/app/dpu/dpu_hal.o
                0x000000008000a074                dpu_parameter_parse
                0x000000008000a3c4                dpu_hal_vcsel_para
                0x000000008000a548                dpu_hal_irrx_para
                0x000000008000a860                dpu_hal_buffer_dequeue
                0x000000008000ab94                dpu_hal_buffer_dispatch
                0x000000008000acb8                dpu_op_cmd_parse
 .text          0x000000008000b090      0xd04 output/app/dpu/dputask.o
                0x000000008000b158                depth_frame_dispatch
                0x000000008000b184                ir_frame_dispatch
                0x000000008000b1a0                dpu_tick_generator
                0x000000008000b1bc                dpu_depth_isr_cb
                0x000000008000b20c                dpu_ir_isr_cb
                0x000000008000b25c                dpu_hw_init
                0x000000008000b7f0                dpu_start_sw_trigger
                0x000000008000b80c                dputask
                0x000000008000bb00                usbtask
                0x000000008000bc0c                idletask
                0x000000008000bcc8                imi_task_init
 .text          0x000000008000bd94      0x96c output/app/dpu/msg_module.o
                0x000000008000bf3c                imi_send_event
                0x000000008000c064                imi_send_event_isr
                0x000000008000c200                imi_send_buffer
                0x000000008000c340                module_buffer_init
                0x000000008000c3d8                module_push_buffer
                0x000000008000c598                module_pop_buffer
                0x000000008000c6e4                msg_module_init
 .text          0x000000008000c700     0x1754 output/app/imi_app/subsystem/usb/vendor_usb.o
                0x000000008000d268                vendor_usb_process_ep_in_cmd
                0x000000008000d54c                vendor_usb_reset_streams
 .text          0x000000008000de54      0x6d0 output/app/imi_app/subsystem/vendor_sub_system.o
                0x000000008000df08                sub_system_stream_ctl
                0x000000008000dfa8                sub_system_process_events
                0x000000008000e054                sub_system_deinit
                0x000000008000e110                sub_system_handshake
                0x000000008000e228                sub_system_register_callback
                0x000000008000e300                sub_system_handle_payment
                0x000000008000e400                sub_system_init
 .text          0x000000008000e524      0x650 output/app/imi_app/vendor/cmd_hal.o
                0x000000008000ea28                imi_cmd_hal_init
                0x000000008000eb38                imi_cmd_hal_deinit
 .text          0x000000008000eb74     0x27e4 output/app/imi_app/vendor/vendor_device.o
                0x000000008000f778                vendor_device_handle_stream_ctl
                0x000000008000fccc                vendor_device_stream_tsk
                0x00000000800111e0                imi_vendor_device_init
                0x0000000080011310                imi_vendor_device_deinit
 .text          0x0000000080011358     0x24e8 output/app/imi_app/vendor/vendor_misc.o
                0x000000008001367c                vendor_misc_handle_cmd
                0x0000000080013750                vendor_misc_calculate_crc16
                0x00000000800137ec                vendor_misc_init
                0x0000000080013828                vendor_misc_deinit
 .text          0x0000000080013840      0xa18 output/drivers/base/imi_dev.o
                0x00000000800139f8                imi_register_dev
                0x0000000080013aa4                imi_deregister_dev
                0x0000000080013af8                imi_open
                0x0000000080013c14                imi_close
                0x0000000080013c74                imi_ioctl
                0x0000000080013cf0                imi_read
                0x0000000080013d6c                imi_write
                0x0000000080013f28                imi_poll
                0x0000000080013fe8                imi_add_to_wait
                0x0000000080014024                imi_prepare_to_wait
                0x000000008001408c                imi_wait_evt
                0x00000000800140c0                imi_finish_wait
                0x0000000080014114                imi_wakeup_all
                0x00000000800141c4                imi_wakeup_one
 .text          0x0000000080014258      0x338 output/drivers/base/imi_work.o
                0x0000000080014340                schedule_work
                0x00000000800143a0                init_work
 .text          0x0000000080014590     0x10d4 output/drivers/buf_man/imi_bm.o
                0x0000000080014738                bm_buf_get
                0x0000000080014a18                bm_buf_addusers
                0x0000000080014b44                bm_buf_put
                0x0000000080014cf4                bm_bufpool_info_dump
                0x0000000080015074                bm_bufpool_init
                0x00000000800153a0                bm_bufman_init
 .text          0x0000000080015664        0x0 output/drivers/clock/clock.o
 .text          0x0000000080015664        0x0 output/drivers/clock/clock_1680.o
 .text          0x0000000080015664      0x11c output/drivers/clock/clock_2280.o
                0x0000000080015664                imi_2280_clk_default
                0x00000000800156f8                clock_set
                0x0000000080015718                clock_enable
                0x000000008001573c                clock_module_set
                0x0000000080015768                clock_dev_init
 .text          0x0000000080015780      0x5a8 output/drivers/compat/linux_compat.o
                0x0000000080015780                msecs_to_jiffies
                0x00000000800157c8                msleep
                0x0000000080015810                local_irq_save
                0x0000000080015844                local_irq_restore
                0x000000008001586c                FRTOS_completion_init
                0x0000000080015888                FRTOS_completion_reinit
                0x00000000800158c0                FRTOS_complete
                0x00000000800158e4                FRTOS_completion_wait
                0x0000000080015914                FRTOS_mutex_create
                0x0000000080015944                FRTOS_mutex_free
                0x0000000080015980                FRTOS_mutex_lock
                0x00000000800159c4                FRTOS_mutex_unlock
                0x00000000800159f4                FRTOS_sem_create
                0x0000000080015a80                FRTOS_sem_wait
                0x0000000080015af8                FRTOS_sem_signal
                0x0000000080015b28                FRTOS_sem_signal_from_isr
                0x0000000080015b78                FRTOS_sem_free
                0x0000000080015b9c                ffs
                0x0000000080015ca8                mutex_lock
                0x0000000080015cd4                mutex_unlock
                0x0000000080015d00                mutex_init
 .text          0x0000000080015d28        0x0 output/drivers/cpu/cpu.o
 .text          0x0000000080015d28     0x170c output/drivers/csi_rx/csi_rx_2280.o
                0x0000000080015ea4                imi_csi_calc_freq
                0x0000000080015f30                imi_get_csi
                0x00000000800169c0                imi_csi2_start
                0x0000000080016a08                imi_csi2_stop
                0x0000000080016a64                imi_csi2_start_reset
                0x0000000080016ac8                imi_csi2_dhpy_reset
                0x0000000080016c18                imi_csi2_dhpy_calib_check
                0x00000000800171f8                csi_dev_init
                0x00000000800173f4                csi2_remove
 .text          0x0000000080017434      0x810 output/drivers/csi_rx/vidomain_2280.o
                0x0000000080017984                imi_request_vi_domain
                0x0000000080017a6c                imi_release_vi_domain
                0x0000000080017b1c                vi_domain_probe
                0x0000000080017b90                vi_domain_set_resolution
                0x0000000080017bb4                init_mipi_itf_ir
 .text          0x0000000080017c44      0x228 output/drivers/delay/delay.o
                0x0000000080017c78                delayus
                0x0000000080017d44                delayms
                0x0000000080017d98                imi_delay
                0x0000000080017de0                udelay
                0x0000000080017e18                mdelay
 .text          0x0000000080017e6c      0xa3c output/drivers/dma/dmaengine.o
                0x0000000080018098                dma_sync_wait
                0x0000000080018144                dma_issue_pending_all
                0x00000000800181e8                dma_get_slave_caps
                0x0000000080018310                dma_get_slave_channel
                0x00000000800183bc                dma_request_chan
                0x00000000800184b8                dma_release_channel
                0x0000000080018580                dma_async_device_register
                0x000000008001879c                dma_async_tx_descriptor_init
                0x00000000800187cc                dma_wait_for_async_tx
                0x0000000080018880                dma_engine_probe
 .text          0x00000000800188a8     0x5e64 output/drivers/dma/pl330.o
 .text          0x000000008001e70c      0x584 output/drivers/dpu_2280/debug.o
                0x000000008001e70c                dump_dpu_setting
 .text          0x000000008001ec90      0x86c output/drivers/dpu_2280/dpu.o
                0x000000008001ed7c                dpu_register
                0x000000008001ee08                dpu_get_handle
                0x000000008001ef40                dpu_power
                0x000000008001efa0                dpu_reset
                0x000000008001eff8                dpu_update_dma_buf
                0x000000008001f064                dpu_update_dma_size
                0x000000008001f0d0                dpu_get_dma_buf
                0x000000008001f13c                dpu_dma_enable
                0x000000008001f1a0                dpu_register_isr_cb
                0x000000008001f204                dpu_set_reg
                0x000000008001f268                dpu_get_reg
                0x000000008001f2cc                dpu_set_para
                0x000000008001f330                dpu_get_para
                0x000000008001f394                dpu_register_depth
                0x000000008001f49c                dpu_sys_init
 .text          0x000000008001f4fc     0x2220 output/drivers/dpu_2280/dpu_dev.o
                0x000000008001f554                write32_log1
                0x000000008001f5cc                read32_log1
                0x000000008001fd4c                fpp0_onoff
                0x000000008001fdb8                fpp0_config
                0x000000008001fe4c                depth_irq_process
                0x0000000080020048                UVC_DEP_IRQHandler
                0x0000000080020118                ir_irq_process
                0x00000000800202fc                UVC_IR_IRQHandler
                0x0000000080020474                TRIGGER_0_IRQHandler
                0x0000000080021558                dpu_2280_probe
 .text          0x000000008002171c      0x6e8 output/drivers/gpio/gpio.o
                0x000000008002171c                gpio_handler1
                0x0000000080021744                gpio_module_init
                0x000000008002175c                gpad_request_one
                0x0000000080021780                gpio_request_one
                0x00000000800217ac                gpio_set_debounce
                0x00000000800217d0                gpio_set_value
                0x00000000800218ec                gpio_get_value
                0x00000000800219f0                gpio_direction_output
                0x0000000080021b0c                gpio_direction_input
                0x0000000080021c0c                gpio_get_direction
                0x0000000080021d10                gpio_irq_set_type
                0x0000000080021d38                gpio_irq_mask
                0x0000000080021d58                gpio_irq_unmask
                0x0000000080021d78                gpio_request_irq
                0x0000000080021da8                gpio_print_irq_statistics
                0x0000000080021dc0                gpio_device_init
                0x0000000080021de0                gpio_is_valid
 .text          0x0000000080021e04      0x86c output/drivers/i2c/i2c-designware-common.o
                0x0000000080021e78                dw_readl
                0x0000000080021f68                dw_writel
                0x0000000080022054                i2c_dw_scl_hcnt
                0x00000000800220f4                i2c_dw_scl_lcnt
                0x0000000080022158                __i2c_dw_enable
                0x0000000080022190                __i2c_dw_enable_and_wait
                0x000000008002226c                i2c_dw_clk_rate
                0x0000000080022334                i2c_dw_acquire_lock
                0x00000000800223a4                i2c_dw_release_lock
                0x00000000800223e0                i2c_dw_wait_bus_not_busy
                0x0000000080022488                i2c_dw_handle_tx_abort
                0x0000000080022598                i2c_dw_func
                0x00000000800225d4                i2c_dw_disable
                0x0000000080022618                i2c_dw_disable_int
                0x0000000080022644                i2c_dw_read_comp_param
 .text          0x0000000080022670      0x128 output/drivers/i2c/i2c-designware-dma.o
                0x0000000080022670                i2c_dw_dma_en
 .text          0x0000000080022798     0x1544 output/drivers/i2c/i2c-designware-master.o
                0x0000000080023b58                i2c_dw_probe
 .text          0x0000000080023cdc      0x828 output/drivers/i2c/i2c-designware-platdrv.o
                0x0000000080023f9c                dw_i2c_plat_probe
                0x000000008002438c                dw_i2c_plat_remove
                0x00000000800243ec                imi_2280_i2c_controller_init
 .text          0x0000000080024504      0xbe4 output/drivers/i2c/i2c-designware-slave.o
                0x0000000080024f68                i2c_dw_probe_slave
 .text          0x00000000800250e8        0x0 output/drivers/i2c/i2c_plat.o
 .text          0x00000000800250e8      0xf94 output/drivers/i2c/i2c_core.o
                0x0000000080025430                i2c_check_7bit_addr_validity_strict
                0x00000000800255cc                i2c_new_device
                0x0000000080025784                i2c_unregister_device
                0x0000000080025874                i2c_add_adapter
                0x00000000800258fc                i2c_add_numbered_adapter
                0x0000000080025948                i2c_del_adapter
                0x0000000080025bb4                i2c_transfer
                0x0000000080025c24                i2c_master_send
                0x0000000080025cc0                i2c_master_recv
                0x0000000080025d70                i2c_get_adapter
                0x0000000080025e44                i2c_slave_register
                0x0000000080025f98                i2c_slave_unregister
                0x0000000080026060                i2c_probe
 .text          0x000000008002607c      0x6d4 output/drivers/ipc/imi_ipc.o
                0x000000008002607c                imi_ring_buf_init
                0x0000000080026128                imi_ring_buf_deinit
                0x0000000080026148                imi_ring_buf_reset
                0x00000000800261ac                imi_ring_buf_count
                0x0000000080026250                imi_ring_buf_is_empty
                0x00000000800262bc                imi_ring_buf_is_full
                0x000000008002633c                imi_ring_buf_write
                0x00000000800264b0                imi_ring_buf_read
                0x00000000800266a0                imi_ipc_init
                0x0000000080026730                imi_ipc_dump_msg
 .text          0x0000000080026750      0x128 output/drivers/irq/chip.o
                0x0000000080026750                ddr_init
                0x00000000800267b4                ddr_init_fpga
                0x000000008002682c                vector_addr_init
 .text          0x0000000080026878      0x6f0 output/drivers/irq/vic_int.o
                0x0000000080026878                irq_to_desc
                0x00000000800268c0                vic_unmask_irq
                0x00000000800268fc                vic_mask_irq
                0x0000000080026938                vic_ack_irq
                0x000000008002698c                vic_disable
                0x0000000080026a10                irq_enable
                0x0000000080026a48                setup_irq
                0x0000000080026b30                request_irq
                0x0000000080026c90                handle_one_vic
                0x0000000080026dc8                vic_print_irq_statistics
                0x0000000080026e84                vic_handle_irq
                0x0000000080026f00                vic_init
 .text          0x0000000080026f68      0x160 output/drivers/irq/interrupt.o
                0x0000000080026f68                do_undefined_instruction
                0x0000000080026f80                do_software_interrupt
                0x0000000080026f98                do_prefetch_abort
                0x0000000080026fb0                do_data_abort
                0x0000000080026fc8                do_not_used
                0x0000000080026fe0                do_irq
                0x00000000800270a8                do_fiq
 .text          0x00000000800270c8      0xb6c output/drivers/irrx/irrx.o
                0x00000000800271b4                irrx_power
                0x0000000080027258                irrx_reset
                0x00000000800272b0                irrx_init
                0x0000000080027314                irrx_set_reg
                0x0000000080027378                irrx_get_reg
                0x00000000800273dc                irrx_set_window
                0x000000008002749c                irrx_set_timing
                0x00000000800274fc                irrx_set_mirrorflip
                0x000000008002755c                irrx_set_ag
                0x00000000800275bc                irrx_set_dg
                0x000000008002761c                irrx_set_exp
                0x000000008002767c                irrx_set_hts
                0x00000000800276dc                irrx_set_vts
                0x000000008002773c                irrx_get_timing
                0x000000008002779c                irrx_get_id
                0x00000000800277fc                irrx_get_maxwin
                0x00000000800278f0                irrx_set_stream
                0x0000000080027950                irrx_set_dbg
                0x00000000800279b0                irrx_register
                0x0000000080027a3c                irrx_get_handle
                0x0000000080027b78                dpu_register_irrx
                0x0000000080027bd0                irrx_sys_init
 .text          0x0000000080027c34     0x15c4 output/drivers/irrx/ov928x.o
                0x00000000800282b0                get_chip_id
                0x00000000800283c0                ov928x_get_sensor_info
                0x0000000080028534                ov928x_power_off
                0x000000008002907c                ov928x_probe
 .text          0x00000000800291f8      0x428 output/drivers/mailbox/imi_mailbox.o
                0x00000000800291f8                imi1680_a2b_enable
                0x0000000080029278                imi1680_a2b_clear
                0x00000000800292f8                imi1680_a2b_status
                0x0000000080029384                imi1680_a2b_trigger
                0x000000008002940c                imi1680_b2a_enable
                0x000000008002948c                imi1680_b2a_clear
                0x000000008002950c                imi1680_b2a_status
                0x0000000080029598                imi1680_b2a_trigger
 .text          0x0000000080029620      0x304 output/drivers/mailbox/mailbox.o
                0x00000000800297f4                mailbox_a2b00_handler
                0x000000008002985c                mailbox_b2a00_handler
                0x00000000800298c4                mailbox_init
                0x0000000080029904                mailbox_dev_init
 .text          0x0000000080029924      0x20c output/drivers/pinmux/pinmux.o
                0x0000000080029924                pinmux_set_mode
                0x0000000080029a2c                pinmux_get_mode
                0x0000000080029ab4                pinmux_default
 .text          0x0000000080029b30        0x0 output/drivers/qspi/nand/spi_bbm.o
 .text          0x0000000080029b30     0x16a0 output/drivers/qspi/nand/spi_nand.o
                0x0000000080029b30                res_get_nand_info
                0x0000000080029c8c                spi_nand_set_feature
                0x0000000080029e50                spi_nand_reset
                0x000000008002a064                spi_nand_erase_process
                0x000000008002a288                spi_nand_read_process
                0x000000008002a37c                spi_nand_write_to_cache
                0x000000008002a490                spi_nand_write_process
                0x000000008002a60c                spi_nand_read_data
                0x000000008002a77c                spi_nand_write_data
                0x000000008002aa78                nand_flash_read
                0x000000008002aaec                nand_flash_write
                0x000000008002ab88                nand_flash_erase
                0x000000008002ac1c                nand_flash_rawread
                0x000000008002ac94                nand_flash_rawwrite
                0x000000008002ad34                nand_flash_rawerase
                0x000000008002adbc                spi_nand_flash_read_oob
                0x000000008002b10c                nand_init
 .text          0x000000008002b1d0     0x13c4 output/drivers/qspi/nor/spi_nor.o
                0x000000008002b1d0                res_get_nor_info
                0x000000008002b31c                spi_nor_read_sr2
                0x000000008002b35c                spi_nor_write_s1_s2
                0x000000008002b3b8                spi_nor_write_s1
                0x000000008002b400                spi_nor_write_s2
                0x000000008002b448                spi_nor_set_feature
                0x000000008002b4c8                spi_nor_global_unlock
                0x000000008002b538                spi_nor_write_volatile_sr_enable
                0x000000008002b570                spi_nor_sector_erase
                0x000000008002b5d8                spi_nor_block_erase
                0x000000008002b640                spi_nor_reset
                0x000000008002b794                spi_nor_erase_process
                0x000000008002b9b8                spi_nor_read_process
                0x000000008002ba40                spi_nor_write_to_flash
                0x000000008002bb64                spi_nor_write_process
                0x000000008002bbfc                spi_nor_read_data
                0x000000008002bd24                spi_nor_write_data
                0x000000008002bfe8                nor_flash_read
                0x000000008002c05c                nor_flash_write
                0x000000008002c0d0                nor_flash_erase
                0x000000008002c13c                nor_flash_rawread
                0x000000008002c1d0                nor_flash_rawwrite
                0x000000008002c264                nor_flash_rawerase
                0x000000008002c4d4                nor_init
 .text          0x000000008002c594      0x7dc output/drivers/qspi/nor_test.o
                0x000000008002c594                print_nor_int
                0x000000008002c620                print_buf_32
                0x000000008002c7d8                test_nor_data
                0x000000008002c9ac                print_nor_byte
                0x000000008002ca3c                test_nor_byte
                0x000000008002cc00                set_nor_max_clk
                0x000000008002cd14                nor_test
 .text          0x000000008002cd70      0x6c8 output/drivers/qspi/nand_test.o
                0x000000008002cd70                print_nand_int
                0x000000008002cdfc                print_nand_char
                0x000000008002cea4                test_nand_data
                0x000000008002d050                print_nand_byte
                0x000000008002d0e0                test_nand_byte
                0x000000008002d2d8                find_nand_clk_delay
                0x000000008002d3e4                nand_test
 .text          0x000000008002d438     0x1ddc output/drivers/qspi/candence_qspi.o
                0x000000008002d90c                candence_qspi_cs_open
                0x000000008002d948                candence_qspi_cs_close
                0x000000008002dc94                cadence_qspi_controller_init
                0x000000008002de28                candence_qspi_controller_setup
                0x000000008002dfb0                cadence_qspi_indirect_read_setup
                0x000000008002e124                cqspi_dma_tx_callback
                0x000000008002e478                cadence_qspi_indirect_read_execute
                0x000000008002e774                cadence_qspi_indirect_write_setup
                0x000000008002e8e0                cadence_qspi_indirect_write_execute
                0x000000008002ebf8                cadence_qspi_command_read
                0x000000008002ee34                cadence_qspi_command_write
                0x000000008002f054                candence_clk_delay_config
                0x000000008002f0dc                cadence_qspi_setup_dma
 .text          0x000000008002f214        0x0 output/drivers/reset/reset_imi1680.o
 .text          0x000000008002f214      0x328 output/drivers/reset/reset_imi2280.o
                0x000000008002f448                imi2280_reset_probe
 .text          0x000000008002f53c      0x7d4 output/drivers/reset/reset.o
                0x000000008002f6b8                reset_controller_register
                0x000000008002f714                reset_controller_unregister
                0x000000008002f754                reset_control_reset
                0x000000008002f830                reset_control_assert
                0x000000008002f908                reset_control_deassert
                0x000000008002f9c8                reset_control_status
                0x000000008002faa0                reset_control_get
                0x000000008002fcf4                reset_probe
 .text          0x000000008002fd10      0x3ac output/drivers/rvl/rvl.o
                0x000000008002fd10                rvl_handler
                0x000000008002fdb4                imi_rvl_out_data
                0x000000008002fe94                imi_dpu_rvl_out_data
                0x000000008002ff60                imi_rvl
                0x0000000080030004                imi_dpu_rvl
                0x00000000800300a0                rvl_dev_init
 .text          0x00000000800300bc      0x40c output/drivers/soc/cache-cp15.o
                0x0000000080030410                icache_enable
                0x0000000080030428                icache_disable
                0x0000000080030440                icache_status
                0x000000008003046c                dcache_enable
                0x0000000080030484                dcache_disable
                0x000000008003049c                dcache_status
 .text          0x00000000800304c8       0x8c output/drivers/soc/dma_buf.o
                0x00000000800304c8                dma_buf_alloc
 .text          0x0000000080030554        0x0 output/drivers/ssp/imi_spi.o
 .text          0x0000000080030554        0x0 output/drivers/timers/timer_imi1680.o
 *fill*         0x0000000080030554        0x4 
 .text          0x0000000080030558      0x734 output/drivers/timers/timer_imi2280.o
                0x0000000080030558                ConfigureTimeForRunTimeStats
                0x0000000080030784                imi_timer_en
                0x000000008003089c                imi_timer_int_clr
                0x0000000080030970                imi_timer_disable
                0x00000000800309ac                timer_2280_get_timer32_val
                0x00000000800309e0                timer_2280_get_timer64_val
                0x0000000080030a90                imi_timer_get_val
                0x0000000080030b20                timer_init
                0x0000000080030bac                ConfigSysTime
                0x0000000080030be0                imi_get_cur_time
 .text          0x0000000080030c8c      0x8e4 output/drivers/trigger/sensor_sync_2280.o
                0x0000000080031440                ss_2280_probe
 .text          0x0000000080031570        0x0 output/drivers/trigger/soft_timer.o
 .text          0x0000000080031570      0x704 output/drivers/trigger/trigger.o
                0x000000008003165c                trigger_register
                0x00000000800316e8                trigger_get_handle
                0x0000000080031820                trigger_power
                0x0000000080031880                trigger_reset
                0x00000000800318d8                trigger_enable
                0x000000008003193c                trigger_init
                0x000000008003199c                trigger_config
                0x0000000080031a08                trigger_valid_sync
                0x0000000080031a6c                trigger_mode_set
                0x0000000080031ad0                trigger_timer_sync
                0x0000000080031b34                dpu_register_trigger
                0x0000000080031c14                trigger_sys_init
 .text          0x0000000080031c74      0x414 output/drivers/uart/uart.o
                0x0000000080031c74                _sys_exit
                0x0000000080031c94                uart_init
                0x0000000080031da8                uart1_init
                0x0000000080031f0c                uart_putc
                0x0000000080031f4c                uart_getc
                0x0000000080031fc4                uart_tstc
                0x0000000080031ffc                uart_puts
                0x000000008003204c                uart_delay
 .text          0x0000000080032088     0x623c output/drivers/usb/gadget/composite.o
                0x00000000800327f4                utf8_to_utf32
                0x00000000800329d4                utf8s_to_utf16s
                0x0000000080033098                config_ep_by_speed
                0x0000000080033444                usb_add_function
                0x000000008003363c                usb_remove_function
                0x00000000800336e4                usb_function_deactivate
                0x0000000080033770                usb_function_activate
                0x0000000080033854                usb_interface_id
                0x0000000080034844                usb_add_config_only
                0x0000000080034958                usb_add_config
                0x0000000080034b60                usb_remove_config
                0x0000000080035254                usb_string_id
                0x00000000800352ac                usb_string_ids_tab
                0x00000000800355bc                usb_gstrings_attach
                0x000000008003578c                usb_string_ids_n
                0x000000008003608c                composite_setup
                0x00000000800373a0                composite_disconnect
                0x0000000080037788                composite_dev_prepare
                0x00000000800378a4                composite_os_desc_req_prepare
                0x0000000080037970                composite_dev_cleanup
                0x0000000080037c38                composite_suspend
                0x0000000080037d38                composite_resume
                0x0000000080037e60                usb_composite_register
                0x0000000080037f8c                usb_composite_setup_continue
                0x00000000800380b8                usb_composite_overwrite_options
 .text          0x00000000800382c4      0x614 output/drivers/usb/gadget/config.o
                0x0000000080038404                usb_descriptor_fillbuf
                0x00000000800384cc                usb_gadget_config_buf
                0x00000000800385e4                usb_copy_descriptors
                0x000000008003877c                usb_assign_descriptors
 .text          0x00000000800388d8     0x1468 output/drivers/usb/gadget/core.o
                0x0000000080038b34                usb_ep_set_maxpacket_limit
                0x0000000080038b80                usb_ep_enable
                0x0000000080038c04                usb_ep_disable
                0x0000000080038c84                usb_ep_alloc_request
                0x0000000080038ccc                usb_ep_free_request
                0x0000000080038d04                usb_ep_queue
                0x0000000080038e0c                usb_ep_dequeue
                0x0000000080038e4c                usb_ep_set_halt
                0x0000000080038e88                usb_ep_clear_halt
                0x0000000080038ec4                usb_ep_set_wedge
                0x0000000080038f30                usb_ep_fifo_status
                0x0000000080038f88                usb_ep_fifo_flush
                0x0000000080038fcc                usb_gadget_frame_number
                0x0000000080039004                usb_gadget_wakeup
                0x0000000080039064                usb_gadget_set_selfpowered
                0x00000000800390c8                usb_gadget_clear_selfpowered
                0x000000008003912c                usb_gadget_vbus_connect
                0x0000000080039190                usb_gadget_vbus_draw
                0x0000000080039218                usb_gadget_vbus_disconnect
                0x000000008003927c                usb_gadget_connect
                0x0000000080039330                usb_gadget_disconnect
                0x00000000800393e4                usb_gadget_deactivate
                0x0000000080039484                usb_gadget_activate
                0x0000000080039508                usb_gadget_map_request
                0x0000000080039560                usb_gadget_unmap_request
                0x0000000080039590                usb_gadget_giveback_request
                0x00000000800395c4                gadget_find_ep_by_name
                0x0000000080039664                usb_gadget_ep_match_desc
                0x00000000800398e8                usb_gadget_set_state
                0x0000000080039968                usb_udc_vbus_handler
                0x00000000800399b8                usb_gadget_udc_reset
                0x0000000080039ab8                usb_add_gadget_udc_release
                0x0000000080039b34                usb_add_gadget_udc
                0x0000000080039c2c                usb_gadget_probe_driver
                0x0000000080039d18                usb_gadget_register_driver
 .text          0x0000000080039d40      0x434 output/drivers/usb/gadget/epautoconf.o
                0x0000000080039d60                usb_ep_autoconfig_ss
                0x000000008003a080                usb_ep_autoconfig
                0x000000008003a0b4                usb_ep_autoconfig_release
                0x000000008003a0e0                usb_ep_autoconfig_reset
 .text          0x000000008003a174     0x18d4 output/drivers/usb/gadget/function/f_imi.o
 .text          0x000000008003ba48      0x814 output/drivers/usb/gadget/function/imi_vendor_cmd.o
                0x000000008003bf88                imi_cmd_dev_setup
                0x000000008003c094                imi_cmd_dev_req_match
                0x000000008003c0e0                imi_cmd_dev_init
                0x000000008003c1e8                imi_cmd_dev_deinit
 .text          0x000000008003c25c     0x13ec output/drivers/usb/gadget/function/u_imi.o
                0x000000008003d004                imi_video_pump
                0x000000008003d214                imi_video_sub_dev_stream_on
                0x000000008003d2e8                imi_video_enable
                0x000000008003d488                imi_alloc_transfer_buf
                0x000000008003d51c                imi_video_init
                0x000000008003d5fc                imi_upload_init
 .text          0x000000008003d648      0x38c output/drivers/usb/gadget/legacy/g_imi_usb.o
                0x000000008003d648                g_imi_usb_set_serialnumber
                0x000000008003d94c                g_imi_usb_register
                0x000000008003d9b4                USB_init
 .text          0x000000008003d9d4      0x48c output/drivers/usb/gadget/usbstring.o
                0x000000008003dc80                usb_gadget_get_string
 .text          0x000000008003de60     0x2238 output/drivers/usb/musb/musb_core.o
                0x000000008003e890                musb_write_fifo
                0x000000008003ea38                musb_read_fifo
                0x000000008003eb9c                musb_load_testpacket
                0x000000008003eef0                musb_start
                0x000000008003f0cc                musb_stop
                0x000000008003faa4                musb_interrupt
                0x000000008003fca4                musb_dma_completion
                0x000000008003fe50                musb_init_controller
 .text          0x0000000080040098     0x2bc8 output/drivers/usb/musb/musb_gadget.o
                0x00000000800405ec                musb_g_giveback
                0x00000000800409c8                musb_g_tx
                0x0000000080040f24                musb_g_rx
                0x0000000080041960                musb_alloc_request
                0x00000000800419ec                musb_free_request
                0x0000000080041a20                musb_ep_restart
                0x0000000080042848                musb_gadget_setup
                0x00000000800428f4                musb_gadget_cleanup
                0x0000000080042914                musb_gadget_start
                0x000000008004299c                musb_g_wakeup
                0x00000000800429cc                musb_g_disconnect
                0x0000000080042ad8                musb_g_reset
 .text          0x0000000080042c60     0x1f7c output/drivers/usb/musb/musb_gadget_ep0.o
                0x0000000080044234                musb_g_ep0_irq
 .text          0x0000000080044bdc      0x8a8 output/drivers/usb/musb/musb_rtos.o
                0x0000000080044bdc                usb_gadget_handle_interrupts
                0x0000000080044c4c                musb_init
 .text          0x0000000080045484      0xd68 output/drivers/usb/musb/musbhsdma.o
                0x00000000800460bc                musbhs_dma_controller_create
 .text          0x00000000800461ec      0x594 output/drivers/vcsel_driver/vcsel.o
                0x00000000800462d8                vcsel_register
                0x0000000080046374                vcsel_get_handle
                0x00000000800464a0                vcsel_power
                0x0000000080046500                vcsel_reset
                0x0000000080046548                vcsel_set_reg
                0x00000000800465ac                vcsel_get_reg
                0x0000000080046610                vcsel_set_current
                0x0000000080046670                vcsel_set_channel
                0x00000000800466d0                dpu_register_vcsel
                0x0000000080046720                vcsel_sys_init
 .text          0x0000000080046780      0x7e0 output/drivers/vcsel_driver/lm36011.o
                0x0000000080046bc8                lm36011_set_current
                0x0000000080046f44                flood_driver_register
 .text          0x0000000080046f60      0xa54 output/drivers/vcsel_driver/lm3644.o
                0x00000000800473ac                lm3644_set_current
                0x0000000080047998                dot_driver_register
 .text          0x00000000800479b4       0x20 output/boards/2280_ddr/start/section.o
                0x00000000800479b4                hang
                0x00000000800479c0                __div0
 .text          0x00000000800479d4      0x1ec output/boards/2280_ddr/board_2280.o
                0x00000000800479d4                get_bootmode
                0x00000000800479f0                get_secboot_flag
                0x0000000080047a0c                flash_read
                0x0000000080047a7c                flash_write
                0x0000000080047aec                flash_erase
                0x0000000080047b48                board_init
 .text          0x0000000080047bc0      0x600 output/tools/FreeRTOS_CLI/FreeRTOS_CLI.o
                0x0000000080047bc0                FreeRTOS_CLIRegisterCommand
                0x0000000080047c88                FreeRTOS_CLIProcessCommand
                0x0000000080047e70                FreeRTOS_CLIGetOutputBuffer
                0x0000000080047e90                FreeRTOS_CLIGetParameter
 .text          0x00000000800481c0      0xa90 output/tools/FreeRTOS_CLI/imi_console.o
                0x0000000080048758                _ar_top
                0x0000000080048b38                parse_cmd
                0x0000000080048be0                imi_CLIRegisterCommand
 .text          0x0000000080048c50      0x13c output/tools/easylogger/port/elog_init.o
                0x0000000080048c50                imi_elog_init
                0x0000000080048cb0                test_elog
 .text          0x0000000080048d8c      0x1fc output/tools/easylogger/port/elog_port.o
                0x0000000080048d8c                elog_port_init
                0x0000000080048db4                elog_port_output
                0x0000000080048ec8                elog_port_output_lock
                0x0000000080048ee0                elog_port_output_unlock
                0x0000000080048ef8                elog_port_get_time
                0x0000000080048f18                elog_port_get_p_info
                0x0000000080048f38                elog_port_get_t_info
                0x0000000080048f58                retstring
 .text          0x0000000080048f88      0x4c8 output/tools/easylogger/src/elog_utils.o
                0x0000000080048f88                elog_strcpy
                0x0000000080049114                elog_cpyln
                0x00000000800492dc                elog_memcpy
 .text          0x0000000080049450     0x2144 output/tools/easylogger/src/elog.o
                0x0000000080049450                elog_init
                0x00000000800494ec                elog_start
                0x0000000080049504                elog_set_output_enabled
                0x00000000800495cc                elog_set_text_color_enabled
                0x0000000080049600                elog_get_text_color_enabled
                0x0000000080049624                elog_get_output_enabled
                0x0000000080049648                elog_set_fmt
                0x000000008004971c                elog_set_filter
                0x00000000800497ec                elog_set_filter_lvl
                0x00000000800498ac                elog_set_filter_tag
                0x00000000800498dc                elog_set_filter_kw
                0x000000008004990c                elog_output_lock
                0x0000000080049950                elog_output_unlock
                0x0000000080049a60                elog_set_filter_tag_lvl
                0x0000000080049e00                elog_get_filter_tag_lvl
                0x0000000080049fa0                elog_raw
                0x000000008004a048                elog_output
                0x000000008004a9e4                elog_output_lock_enabled
                0x000000008004aa70                elog_assert_set_hook
                0x000000008004aaa0                elog_find_lvl
                0x000000008004aee8                elog_find_tag
                0x000000008004b1cc                elog_hexdump
 *fill*         0x000000008004b594        0x4 
 .text          0x000000008004b598     0x2410 output/tools/printf/vsnprintf.o
                0x000000008004b598                utf16_strlen
                0x000000008004b5f0                utf16_strnlen
                0x000000008004b660                utf16_to_utf8
                0x000000008004ba0c                utf8_to_utf16
                0x000000008004bc94                __div64_32
                0x000000008004d8d4                imi_vsnprintf
                0x000000008004d914                snprintf
                0x000000008004d96c                vsprintf
 .text          0x000000008004d9a8      0x240 output/tools/printf/printf.o
                0x000000008004da24                printf
                0x000000008004dac4                imi_printf
                0x000000008004db64                print_cur_time
                0x000000008004dba0                sprintf
 .text          0x000000008004dbe8        0x0 output/tools/stdlib/ctype.o
 .text          0x000000008004dbe8     0x1344 output/tools/stdlib/string.o
                0x000000008004dbe8                memchr
                0x000000008004dc60                memcmp
                0x000000008004dd08                memcpy
                0x000000008004ddf8                memmove
                0x000000008004dea4                memset
                0x000000008004df08                strcat
                0x000000008004df88                strchr
                0x000000008004dff0                strcmp
                0x000000008004e064                strcpy
                0x000000008004e0c4                strlcpy
                0x000000008004e14c                strcspn
                0x000000008004e1f8                strlen
                0x000000008004e24c                strncat
                0x000000008004e304                strncmp
                0x000000008004e398                strncpy
                0x000000008004e410                strpbrk
                0x000000008004e4a8                strrchr
                0x000000008004e520                strspn
                0x000000008004e5e4                strstr
                0x000000008004e690                strtok
                0x000000008004e778                strtok_r
                0x000000008004e8ec                simple_strtoul
                0x000000008004ea3c                strnlen
                0x000000008004eaa8                strtol
                0x000000008004edd4                atoi
 .text          0x000000008004ef2c        0x0 output/boards/2280_ddr/start/lib1funcs.o
 *fill*         0x000000008004ef2c        0x4 
 .text.__udivsi3
                0x000000008004ef30       0xe8 output/boards/2280_ddr/start/lib1funcs.o
                0x000000008004ef30                __aeabi_uidiv
                0x000000008004ef30                __udivsi3
 *fill*         0x000000008004f018        0x8 
 .text.__umodsi3
                0x000000008004f020       0xbc output/boards/2280_ddr/start/lib1funcs.o
                0x000000008004f020                __umodsi3
 *fill*         0x000000008004f0dc        0x4 
 .text.__divsi3
                0x000000008004f0e0      0x118 output/boards/2280_ddr/start/lib1funcs.o
                0x000000008004f0e0                __divsi3
                0x000000008004f0e0                __aeabi_idiv
 *fill*         0x000000008004f1f8        0x8 
 .text.__modsi3
                0x000000008004f200       0xd4 output/boards/2280_ddr/start/lib1funcs.o
                0x000000008004f200                __modsi3
 *fill*         0x000000008004f2d4        0xc 
 .text.__aeabi_uidivmod
                0x000000008004f2e0       0x38 output/boards/2280_ddr/start/lib1funcs.o
                0x000000008004f2e0                __aeabi_uidivmod
                0x000000008004f300                __aeabi_idivmod
 .text.Ldiv0    0x000000008004f318       0x10 output/boards/2280_ddr/start/lib1funcs.o
 .text          0x000000008004f328     0x4c08 ./drivers/ddr/libddr_64.a(dcu.o)
                0x000000008004f328                maxt
                0x000000008004f3a4                MA_OUTW
                0x000000008004f3d4                MA_INW
                0x000000008004f404                Write_reg
                0x000000008004f434                Read_reg
                0x000000008004f464                MA_INH1
                0x000000008004f498                MA_OUTH1
                0x000000008004f4e0                delay_ns
                0x000000008004f518                delay
                0x000000008004f560                ddr_reset
                0x000000008004f5d8                cfg_pll0
                0x000000008004f654                wait_for_pll0_lock
                0x000000008004f6a0                cfg_pll1
                0x000000008004f71c                wait_for_pll1_lock
                0x000000008004f768                cfg_pll2
                0x000000008004f7e4                wait_for_pll2_lock
                0x000000008004f830                init_chip_ddr
                0x000000008004fde0                message_box
                0x000000008004ff0c                get_streaming_message
                0x000000008004ff28                lookup_string_index
                0x000000008004ffb0                dwc_ddrphy_phyinit_userCustom_E_setDfiClk
                0x000000008004ffd0                dwc_ddrphy_phyinit_userCustom_customPostTrain
                0x000000008004ffe8                dwc_ddrphy_phyinit_userCustom_H_readMsgBlock
                0x000000008005000c                dwc_ddrphy_apb_wr
                0x000000008005003c                load_image
                0x00000000800500b0                load_dmem
                0x0000000080050450                load_Imem
                0x00000000800504a8                config
                0x0000000080052228                DDR3_init
 .text          0x0000000080053f30       0x3c /home/tool/arm-hjimi-linux-gnueabi/bin/../lib/gcc/arm-hjimi-linux-gnueabi/7.3.0/libgcc.a(_aeabi_uldivmod.o)
                0x0000000080053f30                __aeabi_uldivmod
 .text          0x0000000080053f6c       0x10 /home/tool/arm-hjimi-linux-gnueabi/bin/../lib/gcc/arm-hjimi-linux-gnueabi/7.3.0/libgcc.a(_dvmd_lnx.o)
                0x0000000080053f6c                __aeabi_ldiv0
                0x0000000080053f6c                __aeabi_idiv0
 .text          0x0000000080053f7c      0x15c /home/tool/arm-hjimi-linux-gnueabi/bin/../lib/gcc/arm-hjimi-linux-gnueabi/7.3.0/libgcc.a(_udivmoddi4.o)
                0x0000000080053f7c                __udivmoddi4

.glue_7         0x00000000800540d8        0x0
 .glue_7        0x00000000800540d8        0x0 linker stubs

.glue_7t        0x00000000800540d8        0x0
 .glue_7t       0x00000000800540d8        0x0 linker stubs

.vfp11_veneer   0x00000000800540d8        0x0
 .vfp11_veneer  0x00000000800540d8        0x0 linker stubs

.v4_bx          0x00000000800540d8        0x0
 .v4_bx         0x00000000800540d8        0x0 linker stubs

.plt            0x00000000800540d8       0x2c
 .plt           0x00000000800540d8       0x2c output/rtos/croutine.o

.iplt           0x0000000080054104        0x0
 .iplt          0x0000000080054104        0x0 output/rtos/croutine.o
                0x0000000080054104                . = ALIGN (0x4)

.rodata         0x0000000080054104    0x70c32
 *(SORT_BY_ALIGNMENT(SORT_BY_NAME(.rodata*)))
 .rodata        0x0000000080054104       0x22 output/rtos/event_groups.o
 *fill*         0x0000000080054126        0x2 
 .rodata        0x0000000080054128       0x32 output/rtos/portable/MemMang/heap_4.o
 *fill*         0x000000008005415a        0x2 
 .rodata        0x000000008005415c       0x1e output/rtos/queue.o
 *fill*         0x000000008005417a        0x2 
 .rodata        0x000000008005417c       0x26 output/rtos/stream_buffer.o
 *fill*         0x00000000800541a2        0x2 
 .rodata        0x00000000800541a4       0x74 output/rtos/tasks.o
 .rodata        0x0000000080054218       0x41 output/rtos/timers.o
 *fill*         0x0000000080054259        0x3 
 .rodata        0x000000008005425c       0x6b output/main/uart_task.o
 *fill*         0x00000000800542c7        0x1 
 .rodata        0x00000000800542c8       0x4a output/main/main.o
 *fill*         0x0000000080054312        0x2 
 .rodata        0x0000000080054314    0x658dd output/app/dpu/dpu_hal.o
                0x0000000080054314                dpu_init_seq
                0x0000000080054744                ref_img
                0x00000000800b4744                s2d
                0x00000000800b8744                dpu_ram_frame
 *fill*         0x00000000800b9bf1        0x3 
 .rodata        0x00000000800b9bf4       0xfa output/app/dpu/dputask.o
 *fill*         0x00000000800b9cee        0x2 
 .rodata        0x00000000800b9cf0      0x12a output/app/dpu/msg_module.o
 *fill*         0x00000000800b9e1a        0x2 
 .rodata        0x00000000800b9e1c      0x288 output/app/imi_app/subsystem/usb/vendor_usb.o
 .rodata        0x00000000800ba0a4       0xe4 output/app/imi_app/subsystem/vendor_sub_system.o
 .rodata        0x00000000800ba188      0x12d output/app/imi_app/vendor/cmd_hal.o
 *fill*         0x00000000800ba2b5        0x3 
 .rodata        0x00000000800ba2b8      0x457 output/app/imi_app/vendor/vendor_device.o
 *fill*         0x00000000800ba70f        0x1 
 .rodata        0x00000000800ba710      0x5f3 output/app/imi_app/vendor/vendor_misc.o
 *fill*         0x00000000800bad03        0x1 
 .rodata        0x00000000800bad04       0x36 output/drivers/base/imi_dev.o
 *fill*         0x00000000800bad3a        0x2 
 .rodata        0x00000000800bad3c        0x9 output/drivers/base/imi_work.o
 *fill*         0x00000000800bad45        0x3 
 .rodata        0x00000000800bad48      0x427 output/drivers/buf_man/imi_bm.o
 *fill*         0x00000000800bb16f        0x1 
 .rodata        0x00000000800bb170      0x2c0 output/drivers/clock/clock_2280.o
 .rodata        0x00000000800bb430      0x599 output/drivers/csi_rx/csi_rx_2280.o
 *fill*         0x00000000800bb9c9        0x3 
 .rodata        0x00000000800bb9cc       0xb0 output/drivers/csi_rx/vidomain_2280.o
 .rodata        0x00000000800bba7c      0x106 output/drivers/dma/dmaengine.o
 *fill*         0x00000000800bbb82        0x2 
 .rodata        0x00000000800bbb84      0x278 output/drivers/dma/pl330.o
 .rodata        0x00000000800bbdfc       0xb0 output/drivers/dpu_2280/debug.o
 .rodata        0x00000000800bbeac       0xad output/drivers/dpu_2280/dpu.o
 *fill*         0x00000000800bbf59        0x3 
 .rodata        0x00000000800bbf5c      0x45f output/drivers/dpu_2280/dpu_dev.o
 *fill*         0x00000000800bc3bb        0x1 
 .rodata        0x00000000800bc3bc       0xdb output/drivers/gpio/gpio.o
 *fill*         0x00000000800bc497        0x1 
 .rodata        0x00000000800bc498      0x357 output/drivers/i2c/i2c-designware-common.o
 *fill*         0x00000000800bc7ef        0x1 
 .rodata        0x00000000800bc7f0       0x6a output/drivers/i2c/i2c-designware-dma.o
 *fill*         0x00000000800bc85a        0x2 
 .rodata        0x00000000800bc85c      0x1cb output/drivers/i2c/i2c-designware-master.o
 *fill*         0x00000000800bca27        0x1 
 .rodata        0x00000000800bca28       0xb2 output/drivers/i2c/i2c-designware-platdrv.o
 *fill*         0x00000000800bcada        0x2 
 .rodata        0x00000000800bcadc      0x133 output/drivers/i2c/i2c-designware-slave.o
 *fill*         0x00000000800bcc0f        0x1 
 .rodata        0x00000000800bcc10      0x11d output/drivers/i2c/i2c_core.o
 *fill*         0x00000000800bcd2d        0x3 
 .rodata        0x00000000800bcd30       0x52 output/drivers/ipc/imi_ipc.o
 *fill*         0x00000000800bcd82        0x2 
 .rodata        0x00000000800bcd84       0x2e output/drivers/irq/chip.o
 *fill*         0x00000000800bcdb2        0x2 
 .rodata        0x00000000800bcdb4       0xc8 output/drivers/irq/vic_int.o
 .rodata        0x00000000800bce7c       0x59 output/drivers/irq/interrupt.o
 *fill*         0x00000000800bced5        0x3 
 .rodata        0x00000000800bced8       0x8a output/drivers/irrx/irrx.o
 *fill*         0x00000000800bcf62        0x2 
 .rodata        0x00000000800bcf64      0x57d output/drivers/irrx/ov928x.o
 *fill*         0x00000000800bd4e1        0x3 
 .rodata        0x00000000800bd4e4      0x208 output/drivers/mailbox/imi_mailbox.o
 .rodata        0x00000000800bd6ec        0x8 output/drivers/mailbox/mailbox.o
 .rodata        0x00000000800bd6f4      0x134 output/drivers/pinmux/pinmux.o
 .rodata        0x00000000800bd828      0x47a output/drivers/qspi/nand/spi_nand.o
 *fill*         0x00000000800bdca2        0x2 
 .rodata        0x00000000800bdca4      0x4d1 output/drivers/qspi/nor/spi_nor.o
 *fill*         0x00000000800be175        0x3 
 .rodata        0x00000000800be178      0x1a7 output/drivers/qspi/nor_test.o
 *fill*         0x00000000800be31f        0x1 
 .rodata        0x00000000800be320      0x180 output/drivers/qspi/nand_test.o
 .rodata        0x00000000800be4a0      0x2c3 output/drivers/qspi/candence_qspi.o
 *fill*         0x00000000800be763        0x1 
 .rodata        0x00000000800be764       0xac output/drivers/reset/reset_imi2280.o
 .rodata        0x00000000800be810       0xc6 output/drivers/reset/reset.o
 *fill*         0x00000000800be8d6        0x2 
 .rodata        0x00000000800be8d8       0x88 output/drivers/rvl/rvl.o
 .rodata        0x00000000800be960       0x13 output/drivers/soc/dma_buf.o
 *fill*         0x00000000800be973        0x1 
 .rodata        0x00000000800be974        0x8 output/drivers/timers/timer_imi2280.o
 .rodata        0x00000000800be97c       0xb2 output/drivers/trigger/sensor_sync_2280.o
 *fill*         0x00000000800bea2e        0x2 
 .rodata        0x00000000800bea30       0x9d output/drivers/trigger/trigger.o
 *fill*         0x00000000800beacd        0x3 
 .rodata        0x00000000800bead0      0x289 output/drivers/usb/gadget/composite.o
 *fill*         0x00000000800bed59        0x3 
 .rodata        0x00000000800bed5c       0x41 output/drivers/usb/gadget/core.o
 *fill*         0x00000000800bed9d        0x3 
 .rodata        0x00000000800beda0       0x40 output/drivers/usb/gadget/function/f_imi.o
 .rodata        0x00000000800bede0       0x5e output/drivers/usb/gadget/function/imi_vendor_cmd.o
 *fill*         0x00000000800bee3e        0x2 
 .rodata        0x00000000800bee40       0x1a output/drivers/usb/gadget/function/u_imi.o
 *fill*         0x00000000800bee5a        0x2 
 .rodata        0x00000000800bee5c       0x73 output/drivers/usb/gadget/legacy/g_imi_usb.o
 *fill*         0x00000000800beecf        0x1 
 .rodata        0x00000000800beed0      0x11a output/drivers/usb/musb/musb_core.o
                0x00000000800beed0                musb_driver_name
 *fill*         0x00000000800befea        0x2 
 .rodata        0x00000000800befec       0x6b output/drivers/usb/musb/musb_gadget.o
 *fill*         0x00000000800bf057        0x1 
 .rodata        0x00000000800bf058       0xaf output/drivers/usb/musb/musb_gadget_ep0.o
                0x00000000800bf0d0                musb_g_ep0_ops
 *fill*         0x00000000800bf107        0x1 
 .rodata        0x00000000800bf108       0x1f output/drivers/usb/musb/musb_rtos.o
 *fill*         0x00000000800bf127        0x1 
 .rodata        0x00000000800bf128       0xc8 output/drivers/usb/musb/musbhsdma.o
 .rodata        0x00000000800bf1f0       0x73 output/drivers/vcsel_driver/vcsel.o
 *fill*         0x00000000800bf263        0x1 
 .rodata        0x00000000800bf264      0x13a output/drivers/vcsel_driver/lm36011.o
 *fill*         0x00000000800bf39e        0x2 
 .rodata        0x00000000800bf3a0      0x13f output/drivers/vcsel_driver/lm3644.o
 *fill*         0x00000000800bf4df        0x1 
 .rodata        0x00000000800bf4e0       0x43 output/boards/2280_ddr/board_2280.o
 *fill*         0x00000000800bf523        0x1 
 .rodata        0x00000000800bf524      0x124 output/tools/FreeRTOS_CLI/FreeRTOS_CLI.o
 .rodata        0x00000000800bf648      0x435 output/tools/FreeRTOS_CLI/imi_console.o
 *fill*         0x00000000800bfa7d        0x3 
 .rodata        0x00000000800bfa80       0x4a output/tools/easylogger/port/elog_init.o
 *fill*         0x00000000800bfaca        0x2 
 .rodata        0x00000000800bfacc        0xa output/tools/easylogger/port/elog_port.o
 *fill*         0x00000000800bfad6        0x2 
 .rodata        0x00000000800bfad8       0x8c output/tools/easylogger/src/elog_utils.o
 .rodata        0x00000000800bfb64      0x37e output/tools/easylogger/src/elog.o
 *fill*         0x00000000800bfee2        0x2 
 .rodata        0x00000000800bfee4       0x20 output/tools/printf/vsnprintf.o
 .rodata        0x00000000800bff04        0xa output/tools/printf/printf.o
 *fill*         0x00000000800bff0e        0x2 
 .rodata        0x00000000800bff10      0x100 output/tools/stdlib/ctype.o
                0x00000000800bff10                _ctype
 .rodata        0x00000000800c0010     0x4d26 ./drivers/ddr/libddr_64.a(dcu.o)
                0x00000000800c4d36                _etext = .
                0x00000000000c4d36                _text_size = (. - _text)

.interp         0x00000000800c4d36       0x13
 .interp        0x00000000800c4d36       0x13 output/rtos/croutine.o

.gnu.version_d  0x00000000800c4d4c        0x0
 .gnu.version_d
                0x00000000800c4d4c        0x0 output/rtos/croutine.o

.gnu.version    0x00000000800c4d4a       0x42
 .gnu.version   0x00000000800c4d4a       0x42 output/rtos/croutine.o

.gnu.version_r  0x00000000800c4d8c       0x20
 .gnu.version_r
                0x00000000800c4d8c       0x20 output/rtos/croutine.o

.hash           0x00000000800c4dac       0xd0
 .hash          0x00000000800c4dac       0xd0 output/rtos/croutine.o

.gnu.hash       0x00000000800c4e7c       0xe4
 .gnu.hash      0x00000000800c4e7c       0xe4 output/rtos/croutine.o

.ARM.extab      0x00000000800c4f60        0x0
 .ARM.extab     0x00000000800c4f60        0x0 /home/tool/arm-hjimi-linux-gnueabi/bin/../lib/gcc/arm-hjimi-linux-gnueabi/7.3.0/libgcc.a(_udivmoddi4.o)

.ARM.exidx      0x00000000800c4f60        0x8
 .ARM.exidx     0x00000000800c4f60        0x8 /home/tool/arm-hjimi-linux-gnueabi/bin/../lib/gcc/arm-hjimi-linux-gnueabi/7.3.0/libgcc.a(_udivmoddi4.o)

.data           0x00000000800c4f68     0x69c4
                0x00000000800c4f68                _data = .
 *(.data*)
 .data          0x00000000800c4f68        0x0 output/rtos/croutine.o
 .data.rel.ro   0x00000000800c4f68        0x0 output/rtos/croutine.o
 .data          0x00000000800c4f68        0x0 output/rtos/event_groups.o
 .data          0x00000000800c4f68        0x0 output/rtos/list.o
 .data          0x00000000800c4f68        0x4 output/rtos/portable/GCC/port.o
                0x00000000800c4f68                ulCriticalNesting
 .data          0x00000000800c4f6c        0x0 output/rtos/portable/MemMang/heap_4.o
 .data          0x00000000800c4f6c        0x0 output/rtos/queue.o
 .data          0x00000000800c4f6c        0x0 output/rtos/stream_buffer.o
 .data          0x00000000800c4f6c        0x0 output/rtos/tasks.o
 .data          0x00000000800c4f6c        0x0 output/rtos/timers.o
 .data          0x00000000800c4f6c        0x0 output/main/driver_init.o
 .data          0x00000000800c4f6c        0x0 output/main/uart_task.o
 .data          0x00000000800c4f6c        0x0 output/main/main.o
 .data          0x00000000800c4f6c        0x0 output/app/dpu/dpu_hal.o
 .data          0x00000000800c4f6c       0x6c output/app/dpu/dputask.o
                0x00000000800c4f6c                task_init_table
 .data          0x00000000800c4fd8        0x0 output/app/dpu/msg_module.o
 .data          0x00000000800c4fd8       0x5c output/app/imi_app/subsystem/usb/vendor_usb.o
                0x00000000800c500c                imi_sub_system_usb
 .data          0x00000000800c5034       0x10 output/app/imi_app/subsystem/vendor_sub_system.o
 .data          0x00000000800c5044        0x0 output/app/imi_app/vendor/cmd_hal.o
 .data          0x00000000800c5044        0xb output/app/imi_app/vendor/vendor_device.o
 *fill*         0x00000000800c504f        0x1 
 .data          0x00000000800c5050      0x2c0 output/app/imi_app/vendor/vendor_misc.o
                0x00000000800c50d0                vendor_misc_handle_map
 .data          0x00000000800c5310        0x0 output/drivers/base/imi_dev.o
 .data          0x00000000800c5310        0x0 output/drivers/base/imi_work.o
 .data          0x00000000800c5310        0xc output/drivers/buf_man/imi_bm.o
                0x00000000800c5310                imi_bufpool_base
                0x00000000800c5314                ibpl
 .data          0x00000000800c531c        0x0 output/drivers/clock/clock.o
 .data          0x00000000800c531c        0x0 output/drivers/clock/clock_1680.o
 .data          0x00000000800c531c        0x0 output/drivers/clock/clock_2280.o
 .data          0x00000000800c531c        0x0 output/drivers/compat/linux_compat.o
 .data          0x00000000800c531c        0x0 output/drivers/cpu/cpu.o
 .data          0x00000000800c531c        0x8 output/drivers/csi_rx/csi_rx_2280.o
 .data          0x00000000800c5324        0x0 output/drivers/csi_rx/vidomain_2280.o
 .data          0x00000000800c5324        0x0 output/drivers/delay/delay.o
 .data          0x00000000800c5324       0x20 output/drivers/dma/dmaengine.o
 .data          0x00000000800c5344        0x0 output/drivers/dma/pl330.o
 .data          0x00000000800c5344        0x0 output/drivers/dpu_2280/debug.o
 .data          0x00000000800c5344        0x8 output/drivers/dpu_2280/dpu.o
 .data          0x00000000800c534c       0x38 output/drivers/dpu_2280/dpu_dev.o
                0x00000000800c5354                dbg_lvl
                0x00000000800c5358                dpu_2280_ops
 .data          0x00000000800c5384        0x0 output/drivers/gpio/gpio.o
 .data          0x00000000800c5384       0x40 output/drivers/i2c/i2c-designware-common.o
 .data          0x00000000800c53c4        0x0 output/drivers/i2c/i2c-designware-dma.o
 .data          0x00000000800c53c4        0x0 output/drivers/i2c/i2c-designware-master.o
 .data          0x00000000800c53c4        0x0 output/drivers/i2c/i2c-designware-platdrv.o
 .data          0x00000000800c53c4        0x0 output/drivers/i2c/i2c-designware-slave.o
 .data          0x00000000800c53c4        0x0 output/drivers/i2c/i2c_plat.o
 .data          0x00000000800c53c4        0x8 output/drivers/i2c/i2c_core.o
 .data          0x00000000800c53cc        0x0 output/drivers/ipc/imi_ipc.o
 .data          0x00000000800c53cc        0x0 output/drivers/irq/chip.o
 .data          0x00000000800c53cc       0x10 output/drivers/irq/vic_int.o
                0x00000000800c53cc                vic_addr
 .data          0x00000000800c53dc        0x0 output/drivers/irq/interrupt.o
 .data          0x00000000800c53dc        0x8 output/drivers/irrx/irrx.o
 .data          0x00000000800c53e4       0x4c output/drivers/irrx/ov928x.o
                0x00000000800c53e4                hw_info
                0x00000000800c5414                ov928x_dev_ops
 .data          0x00000000800c5430        0x0 output/drivers/mailbox/imi_mailbox.o
 .data          0x00000000800c5430       0x20 output/drivers/mailbox/mailbox.o
                0x00000000800c5430                imi_mailbox_driver
 .data          0x00000000800c5450        0x0 output/drivers/pinmux/pinmux.o
 .data          0x00000000800c5450        0x0 output/drivers/qspi/nand/spi_bbm.o
 .data          0x00000000800c5450        0x0 output/drivers/qspi/nand/spi_nand.o
 .data          0x00000000800c5450        0x0 output/drivers/qspi/nor/spi_nor.o
 .data          0x00000000800c5450        0x4 output/drivers/qspi/nor_test.o
                0x00000000800c5450                quad_mode_w
 .data          0x00000000800c5454        0x0 output/drivers/qspi/nand_test.o
 .data          0x00000000800c5454        0x4 output/drivers/qspi/candence_qspi.o
 .data          0x00000000800c5458        0x0 output/drivers/reset/reset_imi1680.o
 .data          0x00000000800c5458       0x10 output/drivers/reset/reset_imi2280.o
 .data          0x00000000800c5468        0x8 output/drivers/reset/reset.o
 .data          0x00000000800c5470        0x8 output/drivers/rvl/rvl.o
                0x00000000800c5470                imi_rvl_driver
 .data          0x00000000800c5478        0x0 output/drivers/soc/cache-cp15.o
 .data          0x00000000800c5478        0x4 output/drivers/soc/dma_buf.o
 .data          0x00000000800c547c        0x0 output/drivers/ssp/imi_spi.o
 .data          0x00000000800c547c        0x0 output/drivers/timers/timer_imi1680.o
 .data          0x00000000800c547c        0x0 output/drivers/timers/timer_imi2280.o
 .data          0x00000000800c547c       0x24 output/drivers/trigger/sensor_sync_2280.o
                0x00000000800c547c                trig_2280_ops
 .data          0x00000000800c54a0        0x0 output/drivers/trigger/soft_timer.o
 .data          0x00000000800c54a0        0x8 output/drivers/trigger/trigger.o
 .data          0x00000000800c54a8        0x0 output/drivers/uart/uart.o
 .data          0x00000000800c54a8        0x0 output/drivers/usb/gadget/composite.o
 .data          0x00000000800c54a8        0x0 output/drivers/usb/gadget/config.o
 .data          0x00000000800c54a8        0x8 output/drivers/usb/gadget/core.o
 .data          0x00000000800c54b0        0x0 output/drivers/usb/gadget/epautoconf.o
 .data          0x00000000800c54b0       0xe0 output/drivers/usb/gadget/function/f_imi.o
                0x00000000800c5588                imi_1680_usb
 .data          0x00000000800c5590       0x24 output/drivers/usb/gadget/function/imi_vendor_cmd.o
 .data          0x00000000800c55b4        0x0 output/drivers/usb/gadget/function/u_imi.o
 .data          0x00000000800c55b4       0xa4 output/drivers/usb/gadget/legacy/g_imi_usb.o
                0x00000000800c55b4                usb_g_fun
 .data          0x00000000800c5658        0x0 output/drivers/usb/gadget/usbstring.o
 .data          0x00000000800c5658        0xa output/drivers/usb/musb/musb_core.o
 *fill*         0x00000000800c5662        0x2 
 .data          0x00000000800c5664        0x8 output/drivers/usb/musb/musb_gadget.o
 .data          0x00000000800c566c        0x0 output/drivers/usb/musb/musb_gadget_ep0.o
 .data          0x00000000800c566c       0x70 output/drivers/usb/musb/musb_rtos.o
 .data          0x00000000800c56dc        0x0 output/drivers/usb/musb/musbhsdma.o
 .data          0x00000000800c56dc        0x8 output/drivers/vcsel_driver/vcsel.o
 .data          0x00000000800c56e4       0x40 output/drivers/vcsel_driver/lm36011.o
                0x00000000800c56e4                flood_dev
                0x00000000800c570c                lm36011_vcsel_ops
 .data          0x00000000800c5724       0x40 output/drivers/vcsel_driver/lm3644.o
                0x00000000800c5724                dot_dev
                0x00000000800c574c                lm3644_vcsel_ops
 .data          0x00000000800c5764        0x0 output/boards/2280_ddr/start/section.o
 .data          0x00000000800c5764        0x0 output/boards/2280_ddr/board_2280.o
 .data          0x00000000800c5764        0xc output/tools/FreeRTOS_CLI/FreeRTOS_CLI.o
 .data          0x00000000800c5770        0x0 output/tools/FreeRTOS_CLI/imi_console.o
 .data          0x00000000800c5770        0x0 output/tools/easylogger/port/elog_init.o
 .data          0x00000000800c5770        0x0 output/tools/easylogger/port/elog_port.o
 .data          0x00000000800c5770        0x0 output/tools/easylogger/src/elog_utils.o
 .data          0x00000000800c5770       0x30 output/tools/easylogger/src/elog.o
 .data          0x00000000800c57a0        0x0 output/tools/printf/vsnprintf.o
 .data          0x00000000800c57a0        0x0 output/tools/printf/printf.o
 .data          0x00000000800c57a0        0x0 output/tools/stdlib/ctype.o
 .data          0x00000000800c57a0        0x0 output/tools/stdlib/string.o
 .data          0x00000000800c57a0        0x0 output/boards/2280_ddr/start/lib1funcs.o
 .data          0x00000000800c57a0        0x0 output/boards/2280_ddr/start/start.o
 .data          0x00000000800c57a0     0x618c ./drivers/ddr/libddr_64.a(dcu.o)
                0x00000000800c57a0                stnum
                0x00000000800c5d8c                strlog
                0x00000000800c6378                DMEM
                0x00000000800c6d08                IMEM
 .data          0x00000000800cb92c        0x0 /home/tool/arm-hjimi-linux-gnueabi/bin/../lib/gcc/arm-hjimi-linux-gnueabi/7.3.0/libgcc.a(_aeabi_uldivmod.o)
 .data          0x00000000800cb92c        0x0 /home/tool/arm-hjimi-linux-gnueabi/bin/../lib/gcc/arm-hjimi-linux-gnueabi/7.3.0/libgcc.a(_dvmd_lnx.o)
 .data          0x00000000800cb92c        0x0 /home/tool/arm-hjimi-linux-gnueabi/bin/../lib/gcc/arm-hjimi-linux-gnueabi/7.3.0/libgcc.a(_udivmoddi4.o)

.dynamic        0x00000000800cb92c       0xa0
 .dynamic       0x00000000800cb92c       0xa0 output/rtos/croutine.o
                0x00000000800cb92c                _DYNAMIC

.got            0x00000000800cb9cc        0x0
 .got           0x00000000800cb9cc        0x0 output/rtos/croutine.o

.got.plt        0x00000000800cb9cc       0x14
 .got.plt       0x00000000800cb9cc       0x14 output/rtos/croutine.o
                0x00000000800cb9cc                _GLOBAL_OFFSET_TABLE_

.igot.plt       0x00000000800cb9e0        0x0
 .igot.plt      0x00000000800cb9e0        0x0 output/rtos/croutine.o
                0x00000000800cb9e0                . = ALIGN (0x4)

.image_copy_end
 *(.__image_copy_end)

.rel_dyn_start
 *(.__rel_dyn_start)

.rel.dyn        0x00000000800cb9e0     0x6798
 *(.rel*)
 .rel.got       0x00000000800cb9e0        0x0 output/rtos/croutine.o
 .rel.plt       0x00000000800d2168       0x10 output/rtos/croutine.o
 .rel.bss       0x00000000800cb9f0        0x0 output/rtos/croutine.o
 .rel.data.rel.ro
                0x00000000800cb9f0        0x0 output/rtos/croutine.o
 .rel.iplt      0x00000000800cb9f0        0x0 output/rtos/croutine.o
 .rel.text      0x00000000800cb9e0     0x50b8 output/rtos/croutine.o
 .rel.data      0x00000000800d0a98     0x1218 output/rtos/croutine.o
 .rel._INIT_SUBSYS
                0x00000000800d1cb0       0x50 output/rtos/croutine.o
 .rel.rodata    0x00000000800d1d00      0x388 output/rtos/croutine.o
 .rel._INIT_CORE
                0x00000000800d2088       0x30 output/rtos/croutine.o
 .rel._INIT_POST_CORE
                0x00000000800d20b8       0x18 output/rtos/croutine.o
 .rel._INIT_DEV
                0x00000000800d20d0       0x28 output/rtos/croutine.o
 .rel._INIT_ARCH
                0x00000000800d20f8       0x18 output/rtos/croutine.o
 .rel._INIT_EARLY
                0x00000000800d2110       0x20 output/rtos/croutine.o
 .rel.vectors   0x00000000800d2130       0x38 output/rtos/croutine.o

.rel_dyn_end
 *(.__rel_dyn_end)

.end
 *(.__end)
                0x00000000800d2178                _image_binary_end = .
                0x00000000800d3000                . = ALIGN (0x1000)

.mmutable       0x00000000800d3000        0x0
                0x00000000800d3000                __mmu_table = .
 *(.mmutable)

.bss_start      0x00000000800d3000        0x0
 *(.__bss_start)
 .__bss_start   0x00000000800d3000        0x0 output/boards/2280_ddr/start/section.o
                0x00000000800d3000                __bss_start
                0x00000000800d3000                __bss_base = .

.bss            0x00000000800d3000  0x6063c1c
 *(.bss*)
 .bss           0x00000000800d3000        0x0 output/rtos/croutine.o
 .bss           0x00000000800d3000        0x0 output/rtos/event_groups.o
 .bss           0x00000000800d3000        0x0 output/rtos/list.o
 .bss           0x00000000800d3000        0x8 output/rtos/portable/GCC/port.o
                0x00000000800d3000                ulPortYieldRequired
                0x00000000800d3004                ulPortInterruptNesting
 .bss           0x00000000800d3008    0x4b020 output/rtos/portable/MemMang/heap_4.o
 .bss           0x000000008011e028        0x0 output/rtos/queue.o
 .bss           0x000000008011e028        0x0 output/rtos/stream_buffer.o
 .bss           0x000000008011e028      0x148 output/rtos/tasks.o
                0x000000008011e028                pxCurrentTCB
 .bss           0x000000008011e170       0x3c output/rtos/timers.o
 .bss           0x000000008011e1ac        0x0 output/main/driver_init.o
 .bss           0x000000008011e1ac       0x4c output/main/uart_task.o
                0x000000008011e1ac                uart_buf_processed
                0x000000008011e1b0                send_bytes
                0x000000008011e1b4                recieve_msg_info
 .bss           0x000000008011e1f8        0x0 output/main/main.o
 .bss           0x000000008011e1f8        0x0 output/app/dpu/dpu_hal.o
 .bss           0x000000008011e1f8        0xc output/app/dpu/dputask.o
                0x000000008011e1f8                imi_bm_handler
 .bss           0x000000008011e204       0x10 output/app/dpu/msg_module.o
 *fill*         0x000000008011e214        0x4 
 .bss           0x000000008011e218      0x360 output/app/imi_app/subsystem/usb/vendor_usb.o
 .bss           0x000000008011e578       0x14 output/app/imi_app/subsystem/vendor_sub_system.o
 .bss           0x000000008011e58c        0x0 output/app/imi_app/vendor/cmd_hal.o
 .bss           0x000000008011e58c      0x16c output/app/imi_app/vendor/vendor_device.o
 .bss           0x000000008011e6f8       0x2f output/app/imi_app/vendor/vendor_misc.o
 *fill*         0x000000008011e727        0x1 
 .bss           0x000000008011e728      0x400 output/drivers/base/imi_dev.o
 .bss           0x000000008011eb28       0x14 output/drivers/base/imi_work.o
 .bss           0x000000008011eb3c        0x4 output/drivers/buf_man/imi_bm.o
 .bss           0x000000008011eb40        0x0 output/drivers/clock/clock.o
 .bss           0x000000008011eb40        0x0 output/drivers/clock/clock_1680.o
 .bss           0x000000008011eb40        0x0 output/drivers/clock/clock_2280.o
 .bss           0x000000008011eb40        0x0 output/drivers/compat/linux_compat.o
 .bss           0x000000008011eb40        0x0 output/drivers/cpu/cpu.o
 .bss           0x000000008011eb40        0x4 output/drivers/csi_rx/csi_rx_2280.o
 .bss           0x000000008011eb44        0x8 output/drivers/csi_rx/vidomain_2280.o
 .bss           0x000000008011eb4c        0x0 output/drivers/delay/delay.o
 .bss           0x000000008011eb4c        0x9 output/drivers/dma/dmaengine.o
                0x000000008011eb4c                imi_dma_device
 .bss           0x000000008011eb55        0x0 output/drivers/dma/pl330.o
 .bss           0x000000008011eb55        0x0 output/drivers/dpu_2280/debug.o
 *fill*         0x000000008011eb55        0x3 
 .bss           0x000000008011eb58        0x4 output/drivers/dpu_2280/dpu.o
 .bss           0x000000008011eb5c       0x10 output/drivers/dpu_2280/dpu_dev.o
 .bss           0x000000008011eb6c        0x0 output/drivers/gpio/gpio.o
 .bss           0x000000008011eb6c        0x1 output/drivers/i2c/i2c-designware-common.o
 .bss           0x000000008011eb6d        0x0 output/drivers/i2c/i2c-designware-dma.o
 .bss           0x000000008011eb6d        0x0 output/drivers/i2c/i2c-designware-master.o
 .bss           0x000000008011eb6d        0x0 output/drivers/i2c/i2c-designware-platdrv.o
 .bss           0x000000008011eb6d        0x0 output/drivers/i2c/i2c-designware-slave.o
 .bss           0x000000008011eb6d        0x0 output/drivers/i2c/i2c_plat.o
 *fill*         0x000000008011eb6d        0x3 
 .bss           0x000000008011eb70        0x4 output/drivers/i2c/i2c_core.o
 .bss           0x000000008011eb74     0x5054 output/drivers/ipc/imi_ipc.o
                0x000000008011eb74                imi_evt_grps
 .bss           0x0000000080123bc8        0x0 output/drivers/irq/chip.o
 .bss           0x0000000080123bc8        0x4 output/drivers/irq/vic_int.o
                0x0000000080123bc8                cpu_flag
 .bss           0x0000000080123bcc        0x4 output/drivers/irq/interrupt.o
                0x0000000080123bcc                interrupt_flg
 .bss           0x0000000080123bd0        0x4 output/drivers/irrx/irrx.o
 .bss           0x0000000080123bd4        0x0 output/drivers/irrx/ov928x.o
 .bss           0x0000000080123bd4        0x0 output/drivers/mailbox/imi_mailbox.o
 .bss           0x0000000080123bd4        0x0 output/drivers/mailbox/mailbox.o
 .bss           0x0000000080123bd4        0x0 output/drivers/pinmux/pinmux.o
 .bss           0x0000000080123bd4        0x0 output/drivers/qspi/nand/spi_bbm.o
 .bss           0x0000000080123bd4        0x8 output/drivers/qspi/nand/spi_nand.o
 .bss           0x0000000080123bdc        0x8 output/drivers/qspi/nor/spi_nor.o
 .bss           0x0000000080123be4     0x2008 output/drivers/qspi/nor_test.o
                0x0000000080123be4                quad_mode_s
                0x0000000080123be8                quad_mode_r
 .bss           0x0000000080125bec     0x8000 output/drivers/qspi/nand_test.o
 .bss           0x000000008012dbec        0x0 output/drivers/qspi/candence_qspi.o
 .bss           0x000000008012dbec        0x0 output/drivers/reset/reset_imi1680.o
 .bss           0x000000008012dbec        0x0 output/drivers/reset/reset_imi2280.o
 .bss           0x000000008012dbec        0x4 output/drivers/reset/reset.o
 .bss           0x000000008012dbf0        0x0 output/drivers/rvl/rvl.o
 *fill*         0x000000008012dbf0     0x2410 
 .bss           0x0000000080130000     0x4000 output/drivers/soc/cache-cp15.o
 .bss           0x0000000080134000        0x0 output/drivers/soc/dma_buf.o
 .bss           0x0000000080134000        0x0 output/drivers/ssp/imi_spi.o
 .bss           0x0000000080134000        0x0 output/drivers/timers/timer_imi1680.o
 .bss           0x0000000080134000        0x0 output/drivers/timers/timer_imi2280.o
 .bss           0x0000000080134000        0x0 output/drivers/trigger/sensor_sync_2280.o
 .bss           0x0000000080134000        0x0 output/drivers/trigger/soft_timer.o
 .bss           0x0000000080134000        0x4 output/drivers/trigger/trigger.o
 .bss           0x0000000080134004        0x0 output/drivers/uart/uart.o
 .bss           0x0000000080134004      0x4e8 output/drivers/usb/gadget/composite.o
 .bss           0x00000000801344ec      0x304 output/drivers/usb/gadget/config.o
 .bss           0x00000000801347f0       0x15 output/drivers/usb/gadget/core.o
 .bss           0x0000000080134805        0x0 output/drivers/usb/gadget/epautoconf.o
 *fill*         0x0000000080134805        0x3 
 .bss           0x0000000080134808      0x200 output/drivers/usb/gadget/function/f_imi.o
 .bss           0x0000000080134a08       0x40 output/drivers/usb/gadget/function/imi_vendor_cmd.o
 .bss           0x0000000080134a48        0x4 output/drivers/usb/gadget/function/u_imi.o
 .bss           0x0000000080134a4c       0x88 output/drivers/usb/gadget/legacy/g_imi_usb.o
 .bss           0x0000000080134ad4        0x0 output/drivers/usb/gadget/usbstring.o
 .bss           0x0000000080134ad4        0x4 output/drivers/usb/musb/musb_core.o
 .bss           0x0000000080134ad8        0x0 output/drivers/usb/musb/musb_gadget.o
 .bss           0x0000000080134ad8        0x0 output/drivers/usb/musb/musb_gadget_ep0.o
 .bss           0x0000000080134ad8        0x4 output/drivers/usb/musb/musb_rtos.o
 .bss           0x0000000080134adc        0x0 output/drivers/usb/musb/musbhsdma.o
 .bss           0x0000000080134adc        0x4 output/drivers/vcsel_driver/vcsel.o
 .bss           0x0000000080134ae0        0x0 output/drivers/vcsel_driver/lm36011.o
 .bss           0x0000000080134ae0        0x0 output/drivers/vcsel_driver/lm3644.o
 .bss           0x0000000080134ae0        0x0 output/boards/2280_ddr/start/section.o
 .bss           0x0000000080134ae0        0x0 output/boards/2280_ddr/board_2280.o
 .bss           0x0000000080134ae0        0x8 output/tools/FreeRTOS_CLI/FreeRTOS_CLI.o
 .bss           0x0000000080134ae8        0x0 output/tools/FreeRTOS_CLI/imi_console.o
 .bss           0x0000000080134ae8        0x0 output/tools/easylogger/port/elog_init.o
 .bss           0x0000000080134ae8       0x14 output/tools/easylogger/port/elog_port.o
 .bss           0x0000000080134afc        0x0 output/tools/easylogger/src/elog_utils.o
 .bss           0x0000000080134afc      0x49c output/tools/easylogger/src/elog.o
 .bss           0x0000000080134f98        0x0 output/tools/printf/vsnprintf.o
 .bss           0x0000000080134f98      0x404 output/tools/printf/printf.o
 .bss           0x000000008013539c        0x0 output/tools/stdlib/ctype.o
 .bss           0x000000008013539c        0x0 output/tools/stdlib/string.o
 .bss           0x000000008013539c        0x0 output/boards/2280_ddr/start/lib1funcs.o
 .bss           0x000000008013539c        0x0 output/boards/2280_ddr/start/start.o
 .bss           0x000000008013539c       0x50 ./drivers/ddr/libddr_64.a(dcu.o)
                0x000000008013539c                rvalue
 .bss           0x00000000801353ec        0x0 /home/tool/arm-hjimi-linux-gnueabi/bin/../lib/gcc/arm-hjimi-linux-gnueabi/7.3.0/libgcc.a(_aeabi_uldivmod.o)
 .bss           0x00000000801353ec        0x0 /home/tool/arm-hjimi-linux-gnueabi/bin/../lib/gcc/arm-hjimi-linux-gnueabi/7.3.0/libgcc.a(_dvmd_lnx.o)
 .bss           0x00000000801353ec        0x0 /home/tool/arm-hjimi-linux-gnueabi/bin/../lib/gcc/arm-hjimi-linux-gnueabi/7.3.0/libgcc.a(_udivmoddi4.o)
                0x00000000801353ec                . = ALIGN (0x4)
                0x00000000801353ec                __bss_limit = .
 COMMON         0x00000000801353ec       0x40 output/rtos/queue.o
                0x00000000801353ec                xQueueRegistry
 COMMON         0x000000008013542c       0x80 output/main/uart_task.o
                0x000000008013542c                queue_uart_buff
                0x000000008013546c                queue_uart_cmd
 COMMON         0x00000000801354ac        0x8 output/main/main.o
                0x00000000801354ac                UART_Handler
                0x00000000801354b0                QSPI_Handler
 COMMON         0x00000000801354b4       0xdc output/app/dpu/dputask.o
                0x00000000801354b4                dputask_handle
                0x00000000801354b8                usb_free_list
                0x00000000801354c0                dpc
                0x0000000080135580                idle_handle
                0x0000000080135584                usb_busy_list
                0x000000008013558c                usb_handle
 COMMON         0x0000000080135590       0x60 output/app/imi_app/vendor/cmd_hal.o
                0x0000000080135590                imi_cmd_hal
 COMMON         0x00000000801355f0  0x6000000 output/drivers/buf_man/imi_bm.o
                0x00000000801355f0                IMI_BUFPOLL_BASE
 COMMON         0x00000000861355f0      0x140 output/drivers/clock/clock_2280.o
                0x00000000861355f0                dev_list
 COMMON         0x0000000086135730     0x1000 output/drivers/irq/vic_int.o
                0x0000000086135730                irq_desc
 COMMON         0x0000000086136730        0xc output/drivers/mailbox/imi_mailbox.o
                0x0000000086136730                imi_mail_desc
 COMMON         0x000000008613673c       0x10 output/drivers/qspi/candence_qspi.o
                0x000000008613673c                cookie_qspi
                0x0000000086136740                qspi_dma_complete
                0x0000000086136744                tx_chan
                0x0000000086136748                rx_chan
 *fill*         0x000000008613674c        0x4 
 COMMON         0x0000000086136750       0x50 output/drivers/usb/gadget/function/u_imi.o
                0x0000000086136750                g_imi_video
                0x0000000086136758                g_frame_id
 COMMON         0x00000000861367a0      0x400 output/tools/FreeRTOS_CLI/imi_console.o
                0x00000000861367a0                cli_output
 COMMON         0x0000000086136ba0        0x4 output/tools/easylogger/src/elog.o
                0x0000000086136ba0                elog_assert_hook
 COMMON         0x0000000086136ba4        0x4 output/tools/stdlib/string.o
                0x0000000086136ba4                ___strtok
 COMMON         0x0000000086136ba8       0x74 ./drivers/ddr/libddr_64.a(dcu.o)
                0x0000000086136ba8                tZQCS
                0x0000000086136bac                tRRD
                0x0000000086136bb0                CL
                0x0000000086136bb4                CWL
                0x0000000086136bb8                tDLLK
                0x0000000086136bbc                tRP
                0x0000000086136bc0                tXPDLL
                0x0000000086136bc4                tCKE
                0x0000000086136bc8                tRASmin
                0x0000000086136bcc                tREFI
                0x0000000086136bd0                tXSDLL
                0x0000000086136bd4                tRFC
                0x0000000086136bd8                tZQoper
                0x0000000086136bdc                tMOD
                0x0000000086136be0                BL
                0x0000000086136be4                RL
                0x0000000086136be8                tWR
                0x0000000086136bec                tRFCmin
                0x0000000086136bf0                WL
                0x0000000086136bf4                tXPR
                0x0000000086136bf8                tXS
                0x0000000086136bfc                tRC
                0x0000000086136c00                tCCD
                0x0000000086136c04                tRCD
                0x0000000086136c08                tRTP
                0x0000000086136c0c                AL
                0x0000000086136c10                tCKSRX
                0x0000000086136c14                tMRD
                0x0000000086136c18                Tctrl_delay

.dynbss         0x00000000800d3000        0x0 load address 0x0000000086136c1c
 .dynbss        0x00000000800d3000        0x0 output/rtos/croutine.o

.bss_end        0x00000000801353ec        0x0
 *(.__bss_end)
 .__bss_end     0x00000000801353ec        0x0 output/boards/2280_ddr/start/section.o
                0x00000000801353ec                __bss_end

/DISCARD/
 *(.rel.reloc)
 *(.eh_frame)
 *(.note.GNU-stack)
 *(.dynsym)
 *(.dynstr)
 *(.note.gnu.build-id)
 *(.comment)
Address of section .text set to 0x80000000
OUTPUT(output/imiTest_2280_ddr.axf elf32-littlearm)

.ARM.attributes
                0x0000000000000000       0x30
 .ARM.attributes
                0x0000000000000000       0x2b output/rtos/croutine.o
 .ARM.attributes
                0x000000000000002b       0x2b output/rtos/event_groups.o
 .ARM.attributes
                0x0000000000000056       0x2b output/rtos/list.o
 .ARM.attributes
                0x0000000000000081       0x2b output/rtos/portable/GCC/port.o
 .ARM.attributes
                0x00000000000000ac       0x2b output/rtos/portable/MemMang/heap_4.o
 .ARM.attributes
                0x00000000000000d7       0x2b output/rtos/queue.o
 .ARM.attributes
                0x0000000000000102       0x2b output/rtos/stream_buffer.o
 .ARM.attributes
                0x000000000000012d       0x2b output/rtos/tasks.o
 .ARM.attributes
                0x0000000000000158       0x2b output/rtos/timers.o
 .ARM.attributes
                0x0000000000000183       0x2b output/main/driver_init.o
 .ARM.attributes
                0x00000000000001ae       0x2b output/main/uart_task.o
 .ARM.attributes
                0x00000000000001d9       0x2b output/main/main.o
 .ARM.attributes
                0x0000000000000204       0x2b output/app/dpu/dpu_hal.o
 .ARM.attributes
                0x000000000000022f       0x2b output/app/dpu/dputask.o
 .ARM.attributes
                0x000000000000025a       0x2b output/app/dpu/msg_module.o
 .ARM.attributes
                0x0000000000000285       0x2b output/app/imi_app/subsystem/usb/vendor_usb.o
 .ARM.attributes
                0x00000000000002b0       0x2b output/app/imi_app/subsystem/vendor_sub_system.o
 .ARM.attributes
                0x00000000000002db       0x2b output/app/imi_app/vendor/cmd_hal.o
 .ARM.attributes
                0x0000000000000306       0x2b output/app/imi_app/vendor/vendor_device.o
 .ARM.attributes
                0x0000000000000331       0x2b output/app/imi_app/vendor/vendor_misc.o
 .ARM.attributes
                0x000000000000035c       0x2b output/drivers/base/imi_dev.o
 .ARM.attributes
                0x0000000000000387       0x2b output/drivers/base/imi_work.o
 .ARM.attributes
                0x00000000000003b2       0x2b output/drivers/buf_man/imi_bm.o
 .ARM.attributes
                0x00000000000003dd       0x2b output/drivers/clock/clock.o
 .ARM.attributes
                0x0000000000000408       0x2b output/drivers/clock/clock_1680.o
 .ARM.attributes
                0x0000000000000433       0x2b output/drivers/clock/clock_2280.o
 .ARM.attributes
                0x000000000000045e       0x2b output/drivers/compat/linux_compat.o
 .ARM.attributes
                0x0000000000000489       0x2b output/drivers/cpu/cpu.o
 .ARM.attributes
                0x00000000000004b4       0x2b output/drivers/csi_rx/csi_rx_2280.o
 .ARM.attributes
                0x00000000000004df       0x2b output/drivers/csi_rx/vidomain_2280.o
 .ARM.attributes
                0x000000000000050a       0x2b output/drivers/delay/delay.o
 .ARM.attributes
                0x0000000000000535       0x2b output/drivers/dma/dmaengine.o
 .ARM.attributes
                0x0000000000000560       0x2b output/drivers/dma/pl330.o
 .ARM.attributes
                0x000000000000058b       0x2b output/drivers/dpu_2280/debug.o
 .ARM.attributes
                0x00000000000005b6       0x2b output/drivers/dpu_2280/dpu.o
 .ARM.attributes
                0x00000000000005e1       0x2b output/drivers/dpu_2280/dpu_dev.o
 .ARM.attributes
                0x000000000000060c       0x2b output/drivers/gpio/gpio.o
 .ARM.attributes
                0x0000000000000637       0x2b output/drivers/i2c/i2c-designware-common.o
 .ARM.attributes
                0x0000000000000662       0x2b output/drivers/i2c/i2c-designware-dma.o
 .ARM.attributes
                0x000000000000068d       0x2b output/drivers/i2c/i2c-designware-master.o
 .ARM.attributes
                0x00000000000006b8       0x2b output/drivers/i2c/i2c-designware-platdrv.o
 .ARM.attributes
                0x00000000000006e3       0x2b output/drivers/i2c/i2c-designware-slave.o
 .ARM.attributes
                0x000000000000070e       0x2b output/drivers/i2c/i2c_plat.o
 .ARM.attributes
                0x0000000000000739       0x2b output/drivers/i2c/i2c_core.o
 .ARM.attributes
                0x0000000000000764       0x2b output/drivers/ipc/imi_ipc.o
 .ARM.attributes
                0x000000000000078f       0x2b output/drivers/irq/chip.o
 .ARM.attributes
                0x00000000000007ba       0x2b output/drivers/irq/vic_int.o
 .ARM.attributes
                0x00000000000007e5       0x2b output/drivers/irq/interrupt.o
 .ARM.attributes
                0x0000000000000810       0x2b output/drivers/irrx/irrx.o
 .ARM.attributes
                0x000000000000083b       0x2b output/drivers/irrx/ov928x.o
 .ARM.attributes
                0x0000000000000866       0x2b output/drivers/mailbox/imi_mailbox.o
 .ARM.attributes
                0x0000000000000891       0x2b output/drivers/mailbox/mailbox.o
 .ARM.attributes
                0x00000000000008bc       0x2b output/drivers/pinmux/pinmux.o
 .ARM.attributes
                0x00000000000008e7       0x2b output/drivers/qspi/nand/spi_bbm.o
 .ARM.attributes
                0x0000000000000912       0x2b output/drivers/qspi/nand/spi_nand.o
 .ARM.attributes
                0x000000000000093d       0x2b output/drivers/qspi/nor/spi_nor.o
 .ARM.attributes
                0x0000000000000968       0x2b output/drivers/qspi/nor_test.o
 .ARM.attributes
                0x0000000000000993       0x2b output/drivers/qspi/nand_test.o
 .ARM.attributes
                0x00000000000009be       0x2b output/drivers/qspi/candence_qspi.o
 .ARM.attributes
                0x00000000000009e9       0x2b output/drivers/reset/reset_imi1680.o
 .ARM.attributes
                0x0000000000000a14       0x2b output/drivers/reset/reset_imi2280.o
 .ARM.attributes
                0x0000000000000a3f       0x2b output/drivers/reset/reset.o
 .ARM.attributes
                0x0000000000000a6a       0x2b output/drivers/rvl/rvl.o
 .ARM.attributes
                0x0000000000000a95       0x2b output/drivers/soc/cache-cp15.o
 .ARM.attributes
                0x0000000000000ac0       0x2b output/drivers/soc/dma_buf.o
 .ARM.attributes
                0x0000000000000aeb       0x2b output/drivers/ssp/imi_spi.o
 .ARM.attributes
                0x0000000000000b16       0x2b output/drivers/timers/timer_imi1680.o
 .ARM.attributes
                0x0000000000000b41       0x2b output/drivers/timers/timer_imi2280.o
 .ARM.attributes
                0x0000000000000b6c       0x2b output/drivers/trigger/sensor_sync_2280.o
 .ARM.attributes
                0x0000000000000b97       0x2b output/drivers/trigger/soft_timer.o
 .ARM.attributes
                0x0000000000000bc2       0x2b output/drivers/trigger/trigger.o
 .ARM.attributes
                0x0000000000000bed       0x2b output/drivers/uart/uart.o
 .ARM.attributes
                0x0000000000000c18       0x2b output/drivers/usb/gadget/composite.o
 .ARM.attributes
                0x0000000000000c43       0x2b output/drivers/usb/gadget/config.o
 .ARM.attributes
                0x0000000000000c6e       0x2b output/drivers/usb/gadget/core.o
 .ARM.attributes
                0x0000000000000c99       0x2b output/drivers/usb/gadget/epautoconf.o
 .ARM.attributes
                0x0000000000000cc4       0x2b output/drivers/usb/gadget/function/f_imi.o
 .ARM.attributes
                0x0000000000000cef       0x2b output/drivers/usb/gadget/function/imi_vendor_cmd.o
 .ARM.attributes
                0x0000000000000d1a       0x2b output/drivers/usb/gadget/function/u_imi.o
 .ARM.attributes
                0x0000000000000d45       0x2b output/drivers/usb/gadget/legacy/g_imi_usb.o
 .ARM.attributes
                0x0000000000000d70       0x2b output/drivers/usb/gadget/usbstring.o
 .ARM.attributes
                0x0000000000000d9b       0x2b output/drivers/usb/musb/musb_core.o
 .ARM.attributes
                0x0000000000000dc6       0x2b output/drivers/usb/musb/musb_gadget.o
 .ARM.attributes
                0x0000000000000df1       0x2b output/drivers/usb/musb/musb_gadget_ep0.o
 .ARM.attributes
                0x0000000000000e1c       0x2b output/drivers/usb/musb/musb_rtos.o
 .ARM.attributes
                0x0000000000000e47       0x2b output/drivers/usb/musb/musbhsdma.o
 .ARM.attributes
                0x0000000000000e72       0x2b output/drivers/vcsel_driver/vcsel.o
 .ARM.attributes
                0x0000000000000e9d       0x2b output/drivers/vcsel_driver/lm36011.o
 .ARM.attributes
                0x0000000000000ec8       0x2b output/drivers/vcsel_driver/lm3644.o
 .ARM.attributes
                0x0000000000000ef3       0x2b output/boards/2280_ddr/start/section.o
 .ARM.attributes
                0x0000000000000f1e       0x2b output/boards/2280_ddr/board_2280.o
 .ARM.attributes
                0x0000000000000f49       0x2b output/tools/FreeRTOS_CLI/FreeRTOS_CLI.o
 .ARM.attributes
                0x0000000000000f74       0x2b output/tools/FreeRTOS_CLI/imi_console.o
 .ARM.attributes
                0x0000000000000f9f       0x2b output/tools/easylogger/port/elog_init.o
 .ARM.attributes
                0x0000000000000fca       0x2b output/tools/easylogger/port/elog_port.o
 .ARM.attributes
                0x0000000000000ff5       0x2b output/tools/easylogger/src/elog_utils.o
 .ARM.attributes
                0x0000000000001020       0x2b output/tools/easylogger/src/elog.o
 .ARM.attributes
                0x000000000000104b       0x2b output/tools/printf/vsnprintf.o
 .ARM.attributes
                0x0000000000001076       0x2b output/tools/printf/printf.o
 .ARM.attributes
                0x00000000000010a1       0x2b output/tools/stdlib/ctype.o
 .ARM.attributes
                0x00000000000010cc       0x2b output/tools/stdlib/string.o
 .ARM.attributes
                0x00000000000010f7       0x1b output/boards/2280_ddr/start/lib1funcs.o
 .ARM.attributes
                0x0000000000001112       0x1b output/boards/2280_ddr/start/start.o
 .ARM.attributes
                0x000000000000112d       0x27 ./drivers/ddr/libddr_64.a(dcu.o)
 .ARM.attributes
                0x0000000000001154       0x24 /home/tool/arm-hjimi-linux-gnueabi/bin/../lib/gcc/arm-hjimi-linux-gnueabi/7.3.0/libgcc.a(_aeabi_uldivmod.o)
 .ARM.attributes
                0x0000000000001178       0x24 /home/tool/arm-hjimi-linux-gnueabi/bin/../lib/gcc/arm-hjimi-linux-gnueabi/7.3.0/libgcc.a(_dvmd_lnx.o)
 .ARM.attributes
                0x000000000000119c       0x32 /home/tool/arm-hjimi-linux-gnueabi/bin/../lib/gcc/arm-hjimi-linux-gnueabi/7.3.0/libgcc.a(_udivmoddi4.o)

.debug_info     0x0000000000000000    0x49346
 .debug_info    0x0000000000000000       0x7d output/rtos/croutine.o
 .debug_info    0x000000000000007d      0x75e output/rtos/event_groups.o
 .debug_info    0x00000000000007db      0x29d output/rtos/list.o
 .debug_info    0x0000000000000a78      0x253 output/rtos/portable/GCC/port.o
 .debug_info    0x0000000000000ccb      0x3ee output/rtos/portable/MemMang/heap_4.o
 .debug_info    0x00000000000010b9     0x1002 output/rtos/queue.o
 .debug_info    0x00000000000020bb      0xbd0 output/rtos/stream_buffer.o
 .debug_info    0x0000000000002c8b     0x1b8c output/rtos/tasks.o
 .debug_info    0x0000000000004817      0xbfb output/rtos/timers.o
 .debug_info    0x0000000000005412       0x84 output/main/driver_init.o
 .debug_info    0x0000000000005496      0x288 output/main/uart_task.o
 .debug_info    0x000000000000571e      0x205 output/main/main.o
 .debug_info    0x0000000000005923     0x170f output/app/dpu/dpu_hal.o
 .debug_info    0x0000000000007032     0x166a output/app/dpu/dputask.o
 .debug_info    0x000000000000869c      0x9b2 output/app/dpu/msg_module.o
 .debug_info    0x000000000000904e     0x1630 output/app/imi_app/subsystem/usb/vendor_usb.o
 .debug_info    0x000000000000a67e      0xc18 output/app/imi_app/subsystem/vendor_sub_system.o
 .debug_info    0x000000000000b296      0x779 output/app/imi_app/vendor/cmd_hal.o
 .debug_info    0x000000000000ba0f     0x1a75 output/app/imi_app/vendor/vendor_device.o
 .debug_info    0x000000000000d484      0xf5d output/app/imi_app/vendor/vendor_misc.o
 .debug_info    0x000000000000e3e1      0x844 output/drivers/base/imi_dev.o
 .debug_info    0x000000000000ec25      0x3dd output/drivers/base/imi_work.o
 .debug_info    0x000000000000f002      0x86b output/drivers/buf_man/imi_bm.o
 .debug_info    0x000000000000f86d      0x253 output/drivers/clock/clock_2280.o
 .debug_info    0x000000000000fac0      0x493 output/drivers/compat/linux_compat.o
 .debug_info    0x000000000000ff53      0xbbc output/drivers/csi_rx/csi_rx_2280.o
 .debug_info    0x0000000000010b0f      0x7b3 output/drivers/csi_rx/vidomain_2280.o
 .debug_info    0x00000000000112c2      0x21b output/drivers/delay/delay.o
 .debug_info    0x00000000000114dd      0xecd output/drivers/dma/dmaengine.o
 .debug_info    0x00000000000123aa     0x3512 output/drivers/dma/pl330.o
 .debug_info    0x00000000000158bc      0x6ea output/drivers/dpu_2280/debug.o
 .debug_info    0x0000000000015fa6      0xab9 output/drivers/dpu_2280/dpu.o
 .debug_info    0x0000000000016a5f     0x1819 output/drivers/dpu_2280/dpu_dev.o
 .debug_info    0x0000000000018278      0x612 output/drivers/gpio/gpio.o
 .debug_info    0x000000000001888a      0xd17 output/drivers/i2c/i2c-designware-common.o
 .debug_info    0x00000000000195a1      0x92f output/drivers/i2c/i2c-designware-dma.o
 .debug_info    0x0000000000019ed0      0xdba output/drivers/i2c/i2c-designware-master.o
 .debug_info    0x000000000001ac8a      0xb62 output/drivers/i2c/i2c-designware-platdrv.o
 .debug_info    0x000000000001b7ec      0xc10 output/drivers/i2c/i2c-designware-slave.o
 .debug_info    0x000000000001c3fc       0xc0 output/drivers/i2c/i2c_plat.o
 .debug_info    0x000000000001c4bc      0xdf0 output/drivers/i2c/i2c_core.o
 .debug_info    0x000000000001d2ac      0x59f output/drivers/ipc/imi_ipc.o
 .debug_info    0x000000000001d84b       0xfc output/drivers/irq/chip.o
 .debug_info    0x000000000001d947      0x4e4 output/drivers/irq/vic_int.o
 .debug_info    0x000000000001de2b      0x176 output/drivers/irq/interrupt.o
 .debug_info    0x000000000001dfa1      0xb6f output/drivers/irrx/irrx.o
 .debug_info    0x000000000001eb10     0x12eb output/drivers/irrx/ov928x.o
 .debug_info    0x000000000001fdfb      0x4f3 output/drivers/mailbox/imi_mailbox.o
 .debug_info    0x00000000000202ee      0x4a2 output/drivers/mailbox/mailbox.o
 .debug_info    0x0000000000020790      0x4fa output/drivers/pinmux/pinmux.o
 .debug_info    0x0000000000020c8a      0xe6d output/drivers/qspi/nand/spi_nand.o
 .debug_info    0x0000000000021af7      0xe3a output/drivers/qspi/nor/spi_nor.o
 .debug_info    0x0000000000022931      0x33e output/drivers/qspi/nor_test.o
 .debug_info    0x0000000000022c6f      0x2f4 output/drivers/qspi/nand_test.o
 .debug_info    0x0000000000022f63     0x1658 output/drivers/qspi/candence_qspi.o
 .debug_info    0x00000000000245bb      0x460 output/drivers/reset/reset_imi2280.o
 .debug_info    0x0000000000024a1b      0x60a output/drivers/reset/reset.o
 .debug_info    0x0000000000025025      0x405 output/drivers/rvl/rvl.o
 .debug_info    0x000000000002542a      0x304 output/drivers/soc/cache-cp15.o
 .debug_info    0x000000000002572e       0xd6 output/drivers/soc/dma_buf.o
 .debug_info    0x0000000000025804      0x12a output/drivers/timers/timer_imi1680.o
 .debug_info    0x000000000002592e      0x582 output/drivers/timers/timer_imi2280.o
 .debug_info    0x0000000000025eb0      0xbca output/drivers/trigger/sensor_sync_2280.o
 .debug_info    0x0000000000026a7a      0x835 output/drivers/trigger/trigger.o
 .debug_info    0x00000000000272af      0x256 output/drivers/uart/uart.o
 .debug_info    0x0000000000027505     0x3dbc output/drivers/usb/gadget/composite.o
 .debug_info    0x000000000002b2c1     0x151e output/drivers/usb/gadget/config.o
 .debug_info    0x000000000002c7df     0x1758 output/drivers/usb/gadget/core.o
 .debug_info    0x000000000002df37      0xc49 output/drivers/usb/gadget/epautoconf.o
 .debug_info    0x000000000002eb80     0x25c2 output/drivers/usb/gadget/function/f_imi.o
 .debug_info    0x0000000000031142     0x18d7 output/drivers/usb/gadget/function/imi_vendor_cmd.o
 .debug_info    0x0000000000032a19     0x11c9 output/drivers/usb/gadget/function/u_imi.o
 .debug_info    0x0000000000033be2     0x151e output/drivers/usb/gadget/legacy/g_imi_usb.o
 .debug_info    0x0000000000035100      0x261 output/drivers/usb/gadget/usbstring.o
 .debug_info    0x0000000000035361     0x27f0 output/drivers/usb/musb/musb_core.o
 .debug_info    0x0000000000037b51     0x2e10 output/drivers/usb/musb/musb_gadget.o
 .debug_info    0x000000000003a961     0x2311 output/drivers/usb/musb/musb_gadget_ep0.o
 .debug_info    0x000000000003cc72     0x1a76 output/drivers/usb/musb/musb_rtos.o
 .debug_info    0x000000000003e6e8     0x1f10 output/drivers/usb/musb/musbhsdma.o
 .debug_info    0x00000000000405f8      0x667 output/drivers/vcsel_driver/vcsel.o
 .debug_info    0x0000000000040c5f      0xbb2 output/drivers/vcsel_driver/lm36011.o
 .debug_info    0x0000000000041811      0xbd3 output/drivers/vcsel_driver/lm3644.o
 .debug_info    0x00000000000423e4       0x96 output/boards/2280_ddr/start/section.o
 .debug_info    0x000000000004247a      0x284 output/boards/2280_ddr/board_2280.o
 .debug_info    0x00000000000426fe      0x3fa output/tools/FreeRTOS_CLI/FreeRTOS_CLI.o
 .debug_info    0x0000000000042af8      0x891 output/tools/FreeRTOS_CLI/imi_console.o
 .debug_info    0x0000000000043389      0x157 output/tools/easylogger/port/elog_init.o
 .debug_info    0x00000000000434e0      0x210 output/tools/easylogger/port/elog_port.o
 .debug_info    0x00000000000436f0      0x228 output/tools/easylogger/src/elog_utils.o
 .debug_info    0x0000000000043918      0xc8e output/tools/easylogger/src/elog.o
 .debug_info    0x00000000000445a6      0xb07 output/tools/printf/vsnprintf.o
 .debug_info    0x00000000000450ad      0x27e output/tools/printf/printf.o
 .debug_info    0x000000000004532b       0x59 output/tools/stdlib/ctype.o
 .debug_info    0x0000000000045384      0x978 output/tools/stdlib/string.o
 .debug_info    0x0000000000045cfc       0x22 output/boards/2280_ddr/start/lib1funcs.o
 .debug_info    0x0000000000045d1e       0x22 output/boards/2280_ddr/start/start.o
 .debug_info    0x0000000000045d40     0x283b ./drivers/ddr/libddr_64.a(dcu.o)
 .debug_info    0x000000000004857b       0x26 /home/tool/arm-hjimi-linux-gnueabi/bin/../lib/gcc/arm-hjimi-linux-gnueabi/7.3.0/libgcc.a(_aeabi_uldivmod.o)
 .debug_info    0x00000000000485a1       0x26 /home/tool/arm-hjimi-linux-gnueabi/bin/../lib/gcc/arm-hjimi-linux-gnueabi/7.3.0/libgcc.a(_dvmd_lnx.o)
 .debug_info    0x00000000000485c7      0xd7f /home/tool/arm-hjimi-linux-gnueabi/bin/../lib/gcc/arm-hjimi-linux-gnueabi/7.3.0/libgcc.a(_udivmoddi4.o)

.debug_abbrev   0x0000000000000000     0xba0d
 .debug_abbrev  0x0000000000000000       0x37 output/rtos/croutine.o
 .debug_abbrev  0x0000000000000037      0x185 output/rtos/event_groups.o
 .debug_abbrev  0x00000000000001bc       0xf0 output/rtos/list.o
 .debug_abbrev  0x00000000000002ac      0x14b output/rtos/portable/GCC/port.o
 .debug_abbrev  0x00000000000003f7      0x167 output/rtos/portable/MemMang/heap_4.o
 .debug_abbrev  0x000000000000055e      0x200 output/rtos/queue.o
 .debug_abbrev  0x000000000000075e      0x1c3 output/rtos/stream_buffer.o
 .debug_abbrev  0x0000000000000921      0x28c output/rtos/tasks.o
 .debug_abbrev  0x0000000000000bad      0x218 output/rtos/timers.o
 .debug_abbrev  0x0000000000000dc5       0x6b output/main/driver_init.o
 .debug_abbrev  0x0000000000000e30      0x141 output/main/uart_task.o
 .debug_abbrev  0x0000000000000f71      0x112 output/main/main.o
 .debug_abbrev  0x0000000000001083      0x295 output/app/dpu/dpu_hal.o
 .debug_abbrev  0x0000000000001318      0x2b0 output/app/dpu/dputask.o
 .debug_abbrev  0x00000000000015c8      0x20c output/app/dpu/msg_module.o
 .debug_abbrev  0x00000000000017d4      0x335 output/app/imi_app/subsystem/usb/vendor_usb.o
 .debug_abbrev  0x0000000000001b09      0x1f5 output/app/imi_app/subsystem/vendor_sub_system.o
 .debug_abbrev  0x0000000000001cfe      0x1ba output/app/imi_app/vendor/cmd_hal.o
 .debug_abbrev  0x0000000000001eb8      0x314 output/app/imi_app/vendor/vendor_device.o
 .debug_abbrev  0x00000000000021cc      0x2fc output/app/imi_app/vendor/vendor_misc.o
 .debug_abbrev  0x00000000000024c8      0x20a output/drivers/base/imi_dev.o
 .debug_abbrev  0x00000000000026d2      0x1af output/drivers/base/imi_work.o
 .debug_abbrev  0x0000000000002881      0x1cf output/drivers/buf_man/imi_bm.o
 .debug_abbrev  0x0000000000002a50      0x166 output/drivers/clock/clock_2280.o
 .debug_abbrev  0x0000000000002bb6      0x18a output/drivers/compat/linux_compat.o
 .debug_abbrev  0x0000000000002d40      0x2b8 output/drivers/csi_rx/csi_rx_2280.o
 .debug_abbrev  0x0000000000002ff8      0x24b output/drivers/csi_rx/vidomain_2280.o
 .debug_abbrev  0x0000000000003243       0xeb output/drivers/delay/delay.o
 .debug_abbrev  0x000000000000332e      0x340 output/drivers/dma/dmaengine.o
 .debug_abbrev  0x000000000000366e      0x2fa output/drivers/dma/pl330.o
 .debug_abbrev  0x0000000000003968      0x130 output/drivers/dpu_2280/debug.o
 .debug_abbrev  0x0000000000003a98      0x1d8 output/drivers/dpu_2280/dpu.o
 .debug_abbrev  0x0000000000003c70      0x331 output/drivers/dpu_2280/dpu_dev.o
 .debug_abbrev  0x0000000000003fa1      0x1f9 output/drivers/gpio/gpio.o
 .debug_abbrev  0x000000000000419a      0x262 output/drivers/i2c/i2c-designware-common.o
 .debug_abbrev  0x00000000000043fc      0x19b output/drivers/i2c/i2c-designware-dma.o
 .debug_abbrev  0x0000000000004597      0x297 output/drivers/i2c/i2c-designware-master.o
 .debug_abbrev  0x000000000000482e      0x279 output/drivers/i2c/i2c-designware-platdrv.o
 .debug_abbrev  0x0000000000004aa7      0x253 output/drivers/i2c/i2c-designware-slave.o
 .debug_abbrev  0x0000000000004cfa       0x64 output/drivers/i2c/i2c_plat.o
 .debug_abbrev  0x0000000000004d5e      0x302 output/drivers/i2c/i2c_core.o
 .debug_abbrev  0x0000000000005060      0x1b7 output/drivers/ipc/imi_ipc.o
 .debug_abbrev  0x0000000000005217       0xc1 output/drivers/irq/chip.o
 .debug_abbrev  0x00000000000052d8      0x1a0 output/drivers/irq/vic_int.o
 .debug_abbrev  0x0000000000005478       0xbd output/drivers/irq/interrupt.o
 .debug_abbrev  0x0000000000005535      0x23f output/drivers/irrx/irrx.o
 .debug_abbrev  0x0000000000005774      0x267 output/drivers/irrx/ov928x.o
 .debug_abbrev  0x00000000000059db      0x15f output/drivers/mailbox/imi_mailbox.o
 .debug_abbrev  0x0000000000005b3a      0x1c3 output/drivers/mailbox/mailbox.o
 .debug_abbrev  0x0000000000005cfd      0x150 output/drivers/pinmux/pinmux.o
 .debug_abbrev  0x0000000000005e4d      0x242 output/drivers/qspi/nand/spi_nand.o
 .debug_abbrev  0x000000000000608f      0x244 output/drivers/qspi/nor/spi_nor.o
 .debug_abbrev  0x00000000000062d3      0x109 output/drivers/qspi/nor_test.o
 .debug_abbrev  0x00000000000063dc       0xcf output/drivers/qspi/nand_test.o
 .debug_abbrev  0x00000000000064ab      0x345 output/drivers/qspi/candence_qspi.o
 .debug_abbrev  0x00000000000067f0      0x164 output/drivers/reset/reset_imi2280.o
 .debug_abbrev  0x0000000000006954      0x1d1 output/drivers/reset/reset.o
 .debug_abbrev  0x0000000000006b25      0x1bc output/drivers/rvl/rvl.o
 .debug_abbrev  0x0000000000006ce1      0x171 output/drivers/soc/cache-cp15.o
 .debug_abbrev  0x0000000000006e52       0x82 output/drivers/soc/dma_buf.o
 .debug_abbrev  0x0000000000006ed4       0xc8 output/drivers/timers/timer_imi1680.o
 .debug_abbrev  0x0000000000006f9c      0x1c5 output/drivers/timers/timer_imi2280.o
 .debug_abbrev  0x0000000000007161      0x1c8 output/drivers/trigger/sensor_sync_2280.o
 .debug_abbrev  0x0000000000007329      0x1f6 output/drivers/trigger/trigger.o
 .debug_abbrev  0x000000000000751f      0x128 output/drivers/uart/uart.o
 .debug_abbrev  0x0000000000007647      0x3e8 output/drivers/usb/gadget/composite.o
 .debug_abbrev  0x0000000000007a2f      0x1fa output/drivers/usb/gadget/config.o
 .debug_abbrev  0x0000000000007c29      0x34e output/drivers/usb/gadget/core.o
 .debug_abbrev  0x0000000000007f77      0x1fa output/drivers/usb/gadget/epautoconf.o
 .debug_abbrev  0x0000000000008171      0x2f2 output/drivers/usb/gadget/function/f_imi.o
 .debug_abbrev  0x0000000000008463      0x268 output/drivers/usb/gadget/function/imi_vendor_cmd.o
 .debug_abbrev  0x00000000000086cb      0x2bf output/drivers/usb/gadget/function/u_imi.o
 .debug_abbrev  0x000000000000898a      0x216 output/drivers/usb/gadget/legacy/g_imi_usb.o
 .debug_abbrev  0x0000000000008ba0      0x146 output/drivers/usb/gadget/usbstring.o
 .debug_abbrev  0x0000000000008ce6      0x40e output/drivers/usb/musb/musb_core.o
 .debug_abbrev  0x00000000000090f4      0x420 output/drivers/usb/musb/musb_gadget.o
 .debug_abbrev  0x0000000000009514      0x39f output/drivers/usb/musb/musb_gadget_ep0.o
 .debug_abbrev  0x00000000000098b3      0x2b9 output/drivers/usb/musb/musb_rtos.o
 .debug_abbrev  0x0000000000009b6c      0x31e output/drivers/usb/musb/musbhsdma.o
 .debug_abbrev  0x0000000000009e8a      0x1c9 output/drivers/vcsel_driver/vcsel.o
 .debug_abbrev  0x000000000000a053      0x20a output/drivers/vcsel_driver/lm36011.o
 .debug_abbrev  0x000000000000a25d      0x230 output/drivers/vcsel_driver/lm3644.o
 .debug_abbrev  0x000000000000a48d       0x70 output/boards/2280_ddr/start/section.o
 .debug_abbrev  0x000000000000a4fd      0x138 output/boards/2280_ddr/board_2280.o
 .debug_abbrev  0x000000000000a635      0x176 output/tools/FreeRTOS_CLI/FreeRTOS_CLI.o
 .debug_abbrev  0x000000000000a7ab      0x200 output/tools/FreeRTOS_CLI/imi_console.o
 .debug_abbrev  0x000000000000a9ab       0xeb output/tools/easylogger/port/elog_init.o
 .debug_abbrev  0x000000000000aa96      0x15b output/tools/easylogger/port/elog_port.o
 .debug_abbrev  0x000000000000abf1      0x105 output/tools/easylogger/src/elog_utils.o
 .debug_abbrev  0x000000000000acf6      0x2f7 output/tools/easylogger/src/elog.o
 .debug_abbrev  0x000000000000afed      0x233 output/tools/printf/vsnprintf.o
 .debug_abbrev  0x000000000000b220      0x14c output/tools/printf/printf.o
 .debug_abbrev  0x000000000000b36c       0x4e output/tools/stdlib/ctype.o
 .debug_abbrev  0x000000000000b3ba      0x1af output/tools/stdlib/string.o
 .debug_abbrev  0x000000000000b569       0x12 output/boards/2280_ddr/start/lib1funcs.o
 .debug_abbrev  0x000000000000b57b       0x12 output/boards/2280_ddr/start/start.o
 .debug_abbrev  0x000000000000b58d      0x2e2 ./drivers/ddr/libddr_64.a(dcu.o)
 .debug_abbrev  0x000000000000b86f       0x14 /home/tool/arm-hjimi-linux-gnueabi/bin/../lib/gcc/arm-hjimi-linux-gnueabi/7.3.0/libgcc.a(_aeabi_uldivmod.o)
 .debug_abbrev  0x000000000000b883       0x14 /home/tool/arm-hjimi-linux-gnueabi/bin/../lib/gcc/arm-hjimi-linux-gnueabi/7.3.0/libgcc.a(_dvmd_lnx.o)
 .debug_abbrev  0x000000000000b897      0x176 /home/tool/arm-hjimi-linux-gnueabi/bin/../lib/gcc/arm-hjimi-linux-gnueabi/7.3.0/libgcc.a(_udivmoddi4.o)

.debug_aranges  0x0000000000000000      0xc90
 .debug_aranges
                0x0000000000000000       0x18 output/rtos/croutine.o
 .debug_aranges
                0x0000000000000018       0x20 output/rtos/event_groups.o
 .debug_aranges
                0x0000000000000038       0x20 output/rtos/list.o
 .debug_aranges
                0x0000000000000058       0x20 output/rtos/portable/GCC/port.o
 .debug_aranges
                0x0000000000000078       0x20 output/rtos/portable/MemMang/heap_4.o
 .debug_aranges
                0x0000000000000098       0x20 output/rtos/queue.o
 .debug_aranges
                0x00000000000000b8       0x20 output/rtos/stream_buffer.o
 .debug_aranges
                0x00000000000000d8       0x20 output/rtos/tasks.o
 .debug_aranges
                0x00000000000000f8       0x20 output/rtos/timers.o
 .debug_aranges
                0x0000000000000118       0x20 output/main/driver_init.o
 .debug_aranges
                0x0000000000000138       0x20 output/main/uart_task.o
 .debug_aranges
                0x0000000000000158       0x20 output/main/main.o
 .debug_aranges
                0x0000000000000178       0x20 output/app/dpu/dpu_hal.o
 .debug_aranges
                0x0000000000000198       0x20 output/app/dpu/dputask.o
 .debug_aranges
                0x00000000000001b8       0x20 output/app/dpu/msg_module.o
 .debug_aranges
                0x00000000000001d8       0x20 output/app/imi_app/subsystem/usb/vendor_usb.o
 .debug_aranges
                0x00000000000001f8       0x20 output/app/imi_app/subsystem/vendor_sub_system.o
 .debug_aranges
                0x0000000000000218       0x20 output/app/imi_app/vendor/cmd_hal.o
 .debug_aranges
                0x0000000000000238       0x20 output/app/imi_app/vendor/vendor_device.o
 .debug_aranges
                0x0000000000000258       0x20 output/app/imi_app/vendor/vendor_misc.o
 .debug_aranges
                0x0000000000000278       0x20 output/drivers/base/imi_dev.o
 .debug_aranges
                0x0000000000000298       0x20 output/drivers/base/imi_work.o
 .debug_aranges
                0x00000000000002b8       0x20 output/drivers/buf_man/imi_bm.o
 .debug_aranges
                0x00000000000002d8       0x20 output/drivers/clock/clock_2280.o
 .debug_aranges
                0x00000000000002f8       0x20 output/drivers/compat/linux_compat.o
 .debug_aranges
                0x0000000000000318       0x20 output/drivers/csi_rx/csi_rx_2280.o
 .debug_aranges
                0x0000000000000338       0x20 output/drivers/csi_rx/vidomain_2280.o
 .debug_aranges
                0x0000000000000358       0x20 output/drivers/delay/delay.o
 .debug_aranges
                0x0000000000000378       0x20 output/drivers/dma/dmaengine.o
 .debug_aranges
                0x0000000000000398       0x20 output/drivers/dma/pl330.o
 .debug_aranges
                0x00000000000003b8       0x20 output/drivers/dpu_2280/debug.o
 .debug_aranges
                0x00000000000003d8       0x20 output/drivers/dpu_2280/dpu.o
 .debug_aranges
                0x00000000000003f8       0x20 output/drivers/dpu_2280/dpu_dev.o
 .debug_aranges
                0x0000000000000418       0x20 output/drivers/gpio/gpio.o
 .debug_aranges
                0x0000000000000438       0x20 output/drivers/i2c/i2c-designware-common.o
 .debug_aranges
                0x0000000000000458       0x20 output/drivers/i2c/i2c-designware-dma.o
 .debug_aranges
                0x0000000000000478       0x20 output/drivers/i2c/i2c-designware-master.o
 .debug_aranges
                0x0000000000000498       0x20 output/drivers/i2c/i2c-designware-platdrv.o
 .debug_aranges
                0x00000000000004b8       0x20 output/drivers/i2c/i2c-designware-slave.o
 .debug_aranges
                0x00000000000004d8       0x18 output/drivers/i2c/i2c_plat.o
 .debug_aranges
                0x00000000000004f0       0x20 output/drivers/i2c/i2c_core.o
 .debug_aranges
                0x0000000000000510       0x20 output/drivers/ipc/imi_ipc.o
 .debug_aranges
                0x0000000000000530       0x20 output/drivers/irq/chip.o
 .debug_aranges
                0x0000000000000550       0x20 output/drivers/irq/vic_int.o
 .debug_aranges
                0x0000000000000570       0x20 output/drivers/irq/interrupt.o
 .debug_aranges
                0x0000000000000590       0x20 output/drivers/irrx/irrx.o
 .debug_aranges
                0x00000000000005b0       0x20 output/drivers/irrx/ov928x.o
 .debug_aranges
                0x00000000000005d0       0x20 output/drivers/mailbox/imi_mailbox.o
 .debug_aranges
                0x00000000000005f0       0x20 output/drivers/mailbox/mailbox.o
 .debug_aranges
                0x0000000000000610       0x20 output/drivers/pinmux/pinmux.o
 .debug_aranges
                0x0000000000000630       0x20 output/drivers/qspi/nand/spi_nand.o
 .debug_aranges
                0x0000000000000650       0x20 output/drivers/qspi/nor/spi_nor.o
 .debug_aranges
                0x0000000000000670       0x20 output/drivers/qspi/nor_test.o
 .debug_aranges
                0x0000000000000690       0x20 output/drivers/qspi/nand_test.o
 .debug_aranges
                0x00000000000006b0       0x20 output/drivers/qspi/candence_qspi.o
 .debug_aranges
                0x00000000000006d0       0x20 output/drivers/reset/reset_imi2280.o
 .debug_aranges
                0x00000000000006f0       0x20 output/drivers/reset/reset.o
 .debug_aranges
                0x0000000000000710       0x20 output/drivers/rvl/rvl.o
 .debug_aranges
                0x0000000000000730       0x20 output/drivers/soc/cache-cp15.o
 .debug_aranges
                0x0000000000000750       0x20 output/drivers/soc/dma_buf.o
 .debug_aranges
                0x0000000000000770       0x18 output/drivers/timers/timer_imi1680.o
 .debug_aranges
                0x0000000000000788       0x20 output/drivers/timers/timer_imi2280.o
 .debug_aranges
                0x00000000000007a8       0x20 output/drivers/trigger/sensor_sync_2280.o
 .debug_aranges
                0x00000000000007c8       0x20 output/drivers/trigger/trigger.o
 .debug_aranges
                0x00000000000007e8       0x20 output/drivers/uart/uart.o
 .debug_aranges
                0x0000000000000808       0x20 output/drivers/usb/gadget/composite.o
 .debug_aranges
                0x0000000000000828       0x20 output/drivers/usb/gadget/config.o
 .debug_aranges
                0x0000000000000848       0x20 output/drivers/usb/gadget/core.o
 .debug_aranges
                0x0000000000000868       0x20 output/drivers/usb/gadget/epautoconf.o
 .debug_aranges
                0x0000000000000888       0x20 output/drivers/usb/gadget/function/f_imi.o
 .debug_aranges
                0x00000000000008a8       0x20 output/drivers/usb/gadget/function/imi_vendor_cmd.o
 .debug_aranges
                0x00000000000008c8       0x20 output/drivers/usb/gadget/function/u_imi.o
 .debug_aranges
                0x00000000000008e8       0x20 output/drivers/usb/gadget/legacy/g_imi_usb.o
 .debug_aranges
                0x0000000000000908       0x20 output/drivers/usb/gadget/usbstring.o
 .debug_aranges
                0x0000000000000928       0x20 output/drivers/usb/musb/musb_core.o
 .debug_aranges
                0x0000000000000948       0x20 output/drivers/usb/musb/musb_gadget.o
 .debug_aranges
                0x0000000000000968       0x20 output/drivers/usb/musb/musb_gadget_ep0.o
 .debug_aranges
                0x0000000000000988       0x20 output/drivers/usb/musb/musb_rtos.o
 .debug_aranges
                0x00000000000009a8       0x20 output/drivers/usb/musb/musbhsdma.o
 .debug_aranges
                0x00000000000009c8       0x20 output/drivers/vcsel_driver/vcsel.o
 .debug_aranges
                0x00000000000009e8       0x20 output/drivers/vcsel_driver/lm36011.o
 .debug_aranges
                0x0000000000000a08       0x20 output/drivers/vcsel_driver/lm3644.o
 .debug_aranges
                0x0000000000000a28       0x20 output/boards/2280_ddr/start/section.o
 .debug_aranges
                0x0000000000000a48       0x20 output/boards/2280_ddr/board_2280.o
 .debug_aranges
                0x0000000000000a68       0x20 output/tools/FreeRTOS_CLI/FreeRTOS_CLI.o
 .debug_aranges
                0x0000000000000a88       0x20 output/tools/FreeRTOS_CLI/imi_console.o
 .debug_aranges
                0x0000000000000aa8       0x20 output/tools/easylogger/port/elog_init.o
 .debug_aranges
                0x0000000000000ac8       0x20 output/tools/easylogger/port/elog_port.o
 .debug_aranges
                0x0000000000000ae8       0x20 output/tools/easylogger/src/elog_utils.o
 .debug_aranges
                0x0000000000000b08       0x20 output/tools/easylogger/src/elog.o
 .debug_aranges
                0x0000000000000b28       0x20 output/tools/printf/vsnprintf.o
 .debug_aranges
                0x0000000000000b48       0x20 output/tools/printf/printf.o
 .debug_aranges
                0x0000000000000b68       0x18 output/tools/stdlib/ctype.o
 .debug_aranges
                0x0000000000000b80       0x20 output/tools/stdlib/string.o
 .debug_aranges
                0x0000000000000ba0       0x48 output/boards/2280_ddr/start/lib1funcs.o
 .debug_aranges
                0x0000000000000be8       0x28 output/boards/2280_ddr/start/start.o
 .debug_aranges
                0x0000000000000c10       0x20 ./drivers/ddr/libddr_64.a(dcu.o)
 .debug_aranges
                0x0000000000000c30       0x20 /home/tool/arm-hjimi-linux-gnueabi/bin/../lib/gcc/arm-hjimi-linux-gnueabi/7.3.0/libgcc.a(_aeabi_uldivmod.o)
 .debug_aranges
                0x0000000000000c50       0x20 /home/tool/arm-hjimi-linux-gnueabi/bin/../lib/gcc/arm-hjimi-linux-gnueabi/7.3.0/libgcc.a(_dvmd_lnx.o)
 .debug_aranges
                0x0000000000000c70       0x20 /home/tool/arm-hjimi-linux-gnueabi/bin/../lib/gcc/arm-hjimi-linux-gnueabi/7.3.0/libgcc.a(_udivmoddi4.o)

.debug_line     0x0000000000000000    0x10031
 .debug_line    0x0000000000000000       0x40 output/rtos/croutine.o
 .debug_line    0x0000000000000040      0x245 output/rtos/event_groups.o
 .debug_line    0x0000000000000285       0xb1 output/rtos/list.o
 .debug_line    0x0000000000000336      0x159 output/rtos/portable/GCC/port.o
 .debug_line    0x000000000000048f      0x225 output/rtos/portable/MemMang/heap_4.o
 .debug_line    0x00000000000006b4      0x681 output/rtos/queue.o
 .debug_line    0x0000000000000d35      0x3ae output/rtos/stream_buffer.o
 .debug_line    0x00000000000010e3      0xa39 output/rtos/tasks.o
 .debug_line    0x0000000000001b1c      0x30b output/rtos/timers.o
 .debug_line    0x0000000000001e27       0x54 output/main/driver_init.o
 .debug_line    0x0000000000001e7b      0x19e output/main/uart_task.o
 .debug_line    0x0000000000002019       0xec output/main/main.o
 .debug_line    0x0000000000002105      0x308 output/app/dpu/dpu_hal.o
 .debug_line    0x000000000000240d      0x34e output/app/dpu/dputask.o
 .debug_line    0x000000000000275b      0x2ad output/app/dpu/msg_module.o
 .debug_line    0x0000000000002a08      0x3fe output/app/imi_app/subsystem/usb/vendor_usb.o
 .debug_line    0x0000000000002e06      0x264 output/app/imi_app/subsystem/vendor_sub_system.o
 .debug_line    0x000000000000306a      0x22a output/app/imi_app/vendor/cmd_hal.o
 .debug_line    0x0000000000003294      0x4f5 output/app/imi_app/vendor/vendor_device.o
 .debug_line    0x0000000000003789      0x378 output/app/imi_app/vendor/vendor_misc.o
 .debug_line    0x0000000000003b01      0x1f6 output/drivers/base/imi_dev.o
 .debug_line    0x0000000000003cf7      0x13f output/drivers/base/imi_work.o
 .debug_line    0x0000000000003e36      0x320 output/drivers/buf_man/imi_bm.o
 .debug_line    0x0000000000004156        0x0 output/drivers/clock/clock.o
 .debug_line    0x0000000000004156        0x0 output/drivers/clock/clock_1680.o
 .debug_line    0x0000000000004156      0x105 output/drivers/clock/clock_2280.o
 .debug_line    0x000000000000425b      0x239 output/drivers/compat/linux_compat.o
 .debug_line    0x0000000000004494        0x0 output/drivers/cpu/cpu.o
 .debug_line    0x0000000000004494      0x38e output/drivers/csi_rx/csi_rx_2280.o
 .debug_line    0x0000000000004822      0x215 output/drivers/csi_rx/vidomain_2280.o
 .debug_line    0x0000000000004a37       0xcf output/drivers/delay/delay.o
 .debug_line    0x0000000000004b06      0x2ad output/drivers/dma/dmaengine.o
 .debug_line    0x0000000000004db3      0xa1e output/drivers/dma/pl330.o
 .debug_line    0x00000000000057d1      0x210 output/drivers/dpu_2280/debug.o
 .debug_line    0x00000000000059e1      0x1e9 output/drivers/dpu_2280/dpu.o
 .debug_line    0x0000000000005bca      0x547 output/drivers/dpu_2280/dpu_dev.o
 .debug_line    0x0000000000006111      0x1c7 output/drivers/gpio/gpio.o
 .debug_line    0x00000000000062d8      0x294 output/drivers/i2c/i2c-designware-common.o
 .debug_line    0x000000000000656c      0x1cb output/drivers/i2c/i2c-designware-dma.o
 .debug_line    0x0000000000006737      0x47c output/drivers/i2c/i2c-designware-master.o
 .debug_line    0x0000000000006bb3      0x262 output/drivers/i2c/i2c-designware-platdrv.o
 .debug_line    0x0000000000006e15      0x2f8 output/drivers/i2c/i2c-designware-slave.o
 .debug_line    0x000000000000710d       0xbe output/drivers/i2c/i2c_plat.o
 .debug_line    0x00000000000071cb      0x326 output/drivers/i2c/i2c_core.o
 .debug_line    0x00000000000074f1      0x1a2 output/drivers/ipc/imi_ipc.o
 .debug_line    0x0000000000007693       0x56 output/drivers/irq/chip.o
 .debug_line    0x00000000000076e9      0x1b9 output/drivers/irq/vic_int.o
 .debug_line    0x00000000000078a2       0x9d output/drivers/irq/interrupt.o
 .debug_line    0x000000000000793f      0x221 output/drivers/irrx/irrx.o
 .debug_line    0x0000000000007b60      0x331 output/drivers/irrx/ov928x.o
 .debug_line    0x0000000000007e91      0x15b output/drivers/mailbox/imi_mailbox.o
 .debug_line    0x0000000000007fec       0xe9 output/drivers/mailbox/mailbox.o
 .debug_line    0x00000000000080d5      0x11c output/drivers/pinmux/pinmux.o
 .debug_line    0x00000000000081f1        0x0 output/drivers/qspi/nand/spi_bbm.o
 .debug_line    0x00000000000081f1      0x3a0 output/drivers/qspi/nand/spi_nand.o
 .debug_line    0x0000000000008591      0x328 output/drivers/qspi/nor/spi_nor.o
 .debug_line    0x00000000000088b9      0x1a3 output/drivers/qspi/nor_test.o
 .debug_line    0x0000000000008a5c      0x17e output/drivers/qspi/nand_test.o
 .debug_line    0x0000000000008bda      0x485 output/drivers/qspi/candence_qspi.o
 .debug_line    0x000000000000905f        0x0 output/drivers/reset/reset_imi1680.o
 .debug_line    0x000000000000905f      0x168 output/drivers/reset/reset_imi2280.o
 .debug_line    0x00000000000091c7      0x208 output/drivers/reset/reset.o
 .debug_line    0x00000000000093cf      0x142 output/drivers/rvl/rvl.o
 .debug_line    0x0000000000009511       0xbd output/drivers/soc/cache-cp15.o
 .debug_line    0x00000000000095ce       0x70 output/drivers/soc/dma_buf.o
 .debug_line    0x000000000000963e        0x0 output/drivers/ssp/imi_spi.o
 .debug_line    0x000000000000963e       0xdf output/drivers/timers/timer_imi1680.o
 .debug_line    0x000000000000971d      0x1a0 output/drivers/timers/timer_imi2280.o
 .debug_line    0x00000000000098bd      0x251 output/drivers/trigger/sensor_sync_2280.o
 .debug_line    0x0000000000009b0e        0x0 output/drivers/trigger/soft_timer.o
 .debug_line    0x0000000000009b0e      0x1de output/drivers/trigger/trigger.o
 .debug_line    0x0000000000009cec       0x95 output/drivers/uart/uart.o
 .debug_line    0x0000000000009d81      0xc7c output/drivers/usb/gadget/composite.o
 .debug_line    0x000000000000a9fd      0x184 output/drivers/usb/gadget/config.o
 .debug_line    0x000000000000ab81      0x308 output/drivers/usb/gadget/core.o
 .debug_line    0x000000000000ae89      0x142 output/drivers/usb/gadget/epautoconf.o
 .debug_line    0x000000000000afcb      0x3c8 output/drivers/usb/gadget/function/f_imi.o
 .debug_line    0x000000000000b393      0x201 output/drivers/usb/gadget/function/imi_vendor_cmd.o
 .debug_line    0x000000000000b594      0x2ee output/drivers/usb/gadget/function/u_imi.o
 .debug_line    0x000000000000b882      0x166 output/drivers/usb/gadget/legacy/g_imi_usb.o
 .debug_line    0x000000000000b9e8      0x1b5 output/drivers/usb/gadget/usbstring.o
 .debug_line    0x000000000000bb9d      0x493 output/drivers/usb/musb/musb_core.o
 .debug_line    0x000000000000c030      0x6c7 output/drivers/usb/musb/musb_gadget.o
 .debug_line    0x000000000000c6f7      0x4da output/drivers/usb/musb/musb_gadget_ep0.o
 .debug_line    0x000000000000cbd1      0x254 output/drivers/usb/musb/musb_rtos.o
 .debug_line    0x000000000000ce25      0x2ff output/drivers/usb/musb/musbhsdma.o
 .debug_line    0x000000000000d124      0x1c8 output/drivers/vcsel_driver/vcsel.o
 .debug_line    0x000000000000d2ec      0x22c output/drivers/vcsel_driver/lm36011.o
 .debug_line    0x000000000000d518      0x251 output/drivers/vcsel_driver/lm3644.o
 .debug_line    0x000000000000d769       0x55 output/boards/2280_ddr/start/section.o
 .debug_line    0x000000000000d7be      0x128 output/boards/2280_ddr/board_2280.o
 .debug_line    0x000000000000d8e6      0x21b output/tools/FreeRTOS_CLI/FreeRTOS_CLI.o
 .debug_line    0x000000000000db01      0x26c output/tools/FreeRTOS_CLI/imi_console.o
 .debug_line    0x000000000000dd6d       0xe2 output/tools/easylogger/port/elog_init.o
 .debug_line    0x000000000000de4f      0x125 output/tools/easylogger/port/elog_port.o
 .debug_line    0x000000000000df74      0x183 output/tools/easylogger/src/elog_utils.o
 .debug_line    0x000000000000e0f7      0x5e8 output/tools/easylogger/src/elog.o
 .debug_line    0x000000000000e6df      0x524 output/tools/printf/vsnprintf.o
 .debug_line    0x000000000000ec03      0x118 output/tools/printf/printf.o
 .debug_line    0x000000000000ed1b       0x4a output/tools/stdlib/ctype.o
 .debug_line    0x000000000000ed65      0x411 output/tools/stdlib/string.o
 .debug_line    0x000000000000f176       0xfc output/boards/2280_ddr/start/lib1funcs.o
 .debug_line    0x000000000000f272       0x94 output/boards/2280_ddr/start/start.o
 .debug_line    0x000000000000f306      0x9eb ./drivers/ddr/libddr_64.a(dcu.o)
 .debug_line    0x000000000000fcf1       0x57 /home/tool/arm-hjimi-linux-gnueabi/bin/../lib/gcc/arm-hjimi-linux-gnueabi/7.3.0/libgcc.a(_aeabi_uldivmod.o)
 .debug_line    0x000000000000fd48       0x5c /home/tool/arm-hjimi-linux-gnueabi/bin/../lib/gcc/arm-hjimi-linux-gnueabi/7.3.0/libgcc.a(_dvmd_lnx.o)
 .debug_line    0x000000000000fda4      0x28d /home/tool/arm-hjimi-linux-gnueabi/bin/../lib/gcc/arm-hjimi-linux-gnueabi/7.3.0/libgcc.a(_udivmoddi4.o)

.debug_str      0x0000000000000000    0x11a53
 .debug_str     0x0000000000000000      0x10a output/rtos/croutine.o
                                        0x143 (size before relaxing)
 .debug_str     0x000000000000010a      0x3be output/rtos/event_groups.o
                                        0x543 (size before relaxing)
 .debug_str     0x00000000000004c8       0x99 output/rtos/list.o
                                        0x27e (size before relaxing)
 .debug_str     0x0000000000000561      0x14d output/rtos/portable/GCC/port.o
                                        0x29f (size before relaxing)
 .debug_str     0x00000000000006ae      0x2cd output/rtos/portable/MemMang/heap_4.o
                                        0x429 (size before relaxing)
 .debug_str     0x000000000000097b      0x617 output/rtos/queue.o
                                        0x8a5 (size before relaxing)
 .debug_str     0x0000000000000f92      0x4e4 output/rtos/stream_buffer.o
                                        0x731 (size before relaxing)
 .debug_str     0x0000000000001476      0xe07 output/rtos/tasks.o
                                       0x1210 (size before relaxing)
 .debug_str     0x000000000000227d      0x536 output/rtos/timers.o
                                        0x806 (size before relaxing)
 .debug_str     0x00000000000027b3       0x44 output/main/driver_init.o
                                         0xd4 (size before relaxing)
 .debug_str     0x00000000000027f7      0x112 output/main/uart_task.o
                                        0x2ae (size before relaxing)
 .debug_str     0x0000000000002909      0x16b output/main/main.o
                                        0x305 (size before relaxing)
 .debug_str     0x0000000000002a74      0xe3d output/app/dpu/dpu_hal.o
                                       0x1215 (size before relaxing)
 .debug_str     0x00000000000038b1      0x213 output/app/dpu/dputask.o
                                       0x1080 (size before relaxing)
 .debug_str     0x0000000000003ac4       0xf5 output/app/dpu/msg_module.o
                                        0x757 (size before relaxing)
 .debug_str     0x0000000000003bb9     0x1190 output/app/imi_app/subsystem/usb/vendor_usb.o
                                       0x15b0 (size before relaxing)
 .debug_str     0x0000000000004d49      0x1b8 output/app/imi_app/subsystem/vendor_sub_system.o
                                        0xde1 (size before relaxing)
 .debug_str     0x0000000000004f01      0x19b output/app/imi_app/vendor/cmd_hal.o
                                        0x5d5 (size before relaxing)
 .debug_str     0x000000000000509c      0xd22 output/app/imi_app/vendor/vendor_device.o
                                       0x1c1f (size before relaxing)
 .debug_str     0x0000000000005dbe      0x4db output/app/imi_app/vendor/vendor_misc.o
                                       0x10f1 (size before relaxing)
 .debug_str     0x0000000000006299      0x13f output/drivers/base/imi_dev.o
                                        0x401 (size before relaxing)
 .debug_str     0x00000000000063d8       0xb3 output/drivers/base/imi_work.o
                                        0x37e (size before relaxing)
 .debug_str     0x000000000000648b       0xf9 output/drivers/buf_man/imi_bm.o
                                        0x5dd (size before relaxing)
 .debug_str     0x0000000000006584       0x16 output/drivers/clock/clock.o
                                         0xa6 (size before relaxing)
 .debug_str     0x000000000000659a       0x1b output/drivers/clock/clock_1680.o
                                         0xab (size before relaxing)
 .debug_str     0x00000000000065b5       0x98 output/drivers/clock/clock_2280.o
                                        0x221 (size before relaxing)
 .debug_str     0x000000000000664d      0x179 output/drivers/compat/linux_compat.o
                                        0x3a3 (size before relaxing)
 .debug_str     0x00000000000067c6       0x12 output/drivers/cpu/cpu.o
                                         0xa2 (size before relaxing)
 .debug_str     0x00000000000067d8      0x366 output/drivers/csi_rx/csi_rx_2280.o
                                        0x5b1 (size before relaxing)
 .debug_str     0x0000000000006b3e      0x141 output/drivers/csi_rx/vidomain_2280.o
                                        0x4a3 (size before relaxing)
 .debug_str     0x0000000000006c7f       0xee output/drivers/delay/delay.o
                                        0x21f (size before relaxing)
 .debug_str     0x0000000000006d6d      0x8a9 output/drivers/dma/dmaengine.o
                                        0xb6c (size before relaxing)
 .debug_str     0x0000000000007616      0x9ea output/drivers/dma/pl330.o
                                       0x150d (size before relaxing)
 .debug_str     0x0000000000008000      0x163 output/drivers/dpu_2280/debug.o
                                        0x505 (size before relaxing)
 .debug_str     0x0000000000008163      0x104 output/drivers/dpu_2280/dpu.o
                                        0x652 (size before relaxing)
 .debug_str     0x0000000000008267      0x2c9 output/drivers/dpu_2280/dpu_dev.o
                                        0xaad (size before relaxing)
 .debug_str     0x0000000000008530      0x15c output/drivers/gpio/gpio.o
                                        0x34f (size before relaxing)
 .debug_str     0x000000000000868c      0x3c6 output/drivers/i2c/i2c-designware-common.o
                                        0x776 (size before relaxing)
 .debug_str     0x0000000000008a52       0xa2 output/drivers/i2c/i2c-designware-dma.o
                                        0x664 (size before relaxing)
 .debug_str     0x0000000000008af4      0x162 output/drivers/i2c/i2c-designware-master.o
                                        0x7e8 (size before relaxing)
 .debug_str     0x0000000000008c56      0x12b output/drivers/i2c/i2c-designware-platdrv.o
                                        0x787 (size before relaxing)
 .debug_str     0x0000000000008d81      0x130 output/drivers/i2c/i2c-designware-slave.o
                                        0x789 (size before relaxing)
 .debug_str     0x0000000000008eb1       0x17 output/drivers/i2c/i2c_plat.o
                                        0x168 (size before relaxing)
 .debug_str     0x0000000000008ec8      0x253 output/drivers/i2c/i2c_core.o
                                        0x6a4 (size before relaxing)
 .debug_str     0x000000000000911b      0x129 output/drivers/ipc/imi_ipc.o
                                        0x3b0 (size before relaxing)
 .debug_str     0x0000000000009244       0x4f output/drivers/irq/chip.o
                                        0x182 (size before relaxing)
 .debug_str     0x0000000000009293      0x102 output/drivers/irq/vic_int.o
                                        0x2d4 (size before relaxing)
 .debug_str     0x0000000000009395       0xa0 output/drivers/irq/interrupt.o
                                        0x1e6 (size before relaxing)
 .debug_str     0x0000000000009435      0x189 output/drivers/irrx/irrx.o
                                        0x675 (size before relaxing)
 .debug_str     0x00000000000095be      0x2db output/drivers/irrx/ov928x.o
                                        0x984 (size before relaxing)
 .debug_str     0x0000000000009899       0xf3 output/drivers/mailbox/imi_mailbox.o
                                        0x348 (size before relaxing)
 .debug_str     0x000000000000998c       0xf5 output/drivers/mailbox/mailbox.o
                                        0x3c9 (size before relaxing)
 .debug_str     0x0000000000009a81      0x465 output/drivers/pinmux/pinmux.o
                                        0x5d2 (size before relaxing)
 .debug_str     0x0000000000009ee6       0x1c output/drivers/qspi/nand/spi_bbm.o
                                         0xac (size before relaxing)
 .debug_str     0x0000000000009f02      0x510 output/drivers/qspi/nand/spi_nand.o
                                        0x731 (size before relaxing)
 .debug_str     0x000000000000a412      0x301 output/drivers/qspi/nor/spi_nor.o
                                        0x5bc (size before relaxing)
 .debug_str     0x000000000000a713       0xaa output/drivers/qspi/nor_test.o
                                        0x1f5 (size before relaxing)
 .debug_str     0x000000000000a7bd       0x84 output/drivers/qspi/nand_test.o
                                        0x1de (size before relaxing)
 .debug_str     0x000000000000a841      0x484 output/drivers/qspi/candence_qspi.o
                                        0xf46 (size before relaxing)
 .debug_str     0x000000000000acc5       0x1e output/drivers/reset/reset_imi1680.o
                                         0xae (size before relaxing)
 .debug_str     0x000000000000ace3       0xb2 output/drivers/reset/reset_imi2280.o
                                        0x2c6 (size before relaxing)
 .debug_str     0x000000000000ad95       0xf3 output/drivers/reset/reset.o
                                        0x384 (size before relaxing)
 .debug_str     0x000000000000ae88       0x87 output/drivers/rvl/rvl.o
                                        0x2b7 (size before relaxing)
 .debug_str     0x000000000000af0f      0x16e output/drivers/soc/cache-cp15.o
                                        0x2be (size before relaxing)
 .debug_str     0x000000000000b07d       0x2e output/drivers/soc/dma_buf.o
                                        0x16b (size before relaxing)
 .debug_str     0x000000000000b0ab       0x16 output/drivers/ssp/imi_spi.o
                                         0xa6 (size before relaxing)
 .debug_str     0x000000000000b0c1       0x1f output/drivers/timers/timer_imi1680.o
                                        0x18d (size before relaxing)
 .debug_str     0x000000000000b0e0      0x229 output/drivers/timers/timer_imi2280.o
                                        0x483 (size before relaxing)
 .debug_str     0x000000000000b309      0x133 output/drivers/trigger/sensor_sync_2280.o
                                        0x935 (size before relaxing)
 .debug_str     0x000000000000b43c       0x1d output/drivers/trigger/soft_timer.o
                                         0xad (size before relaxing)
 .debug_str     0x000000000000b459      0x105 output/drivers/trigger/trigger.o
                                        0x47c (size before relaxing)
 .debug_str     0x000000000000b55e       0x94 output/drivers/uart/uart.o
                                        0x1cc (size before relaxing)
 .debug_str     0x000000000000b5f2     0x1185 output/drivers/usb/gadget/composite.o
                                       0x17b8 (size before relaxing)
 .debug_str     0x000000000000c777       0x93 output/drivers/usb/gadget/config.o
                                        0xd00 (size before relaxing)
 .debug_str     0x000000000000c80a      0x398 output/drivers/usb/gadget/core.o
                                        0xc9f (size before relaxing)
 .debug_str     0x000000000000cba2       0x82 output/drivers/usb/gadget/epautoconf.o
                                        0x89c (size before relaxing)
 .debug_str     0x000000000000cc24      0x668 output/drivers/usb/gadget/function/f_imi.o
                                       0x1656 (size before relaxing)
 .debug_str     0x000000000000d28c      0x169 output/drivers/usb/gadget/function/imi_vendor_cmd.o
                                       0x102c (size before relaxing)
 .debug_str     0x000000000000d3f5      0x211 output/drivers/usb/gadget/function/u_imi.o
                                        0xa5e (size before relaxing)
 .debug_str     0x000000000000d606      0x13b output/drivers/usb/gadget/legacy/g_imi_usb.o
                                        0xd6b (size before relaxing)
 .debug_str     0x000000000000d741       0x4b output/drivers/usb/gadget/usbstring.o
                                        0x200 (size before relaxing)
 .debug_str     0x000000000000d78c      0xaed output/drivers/usb/musb/musb_core.o
                                       0x15e9 (size before relaxing)
 .debug_str     0x000000000000e279      0x326 output/drivers/usb/musb/musb_gadget.o
                                       0x17fc (size before relaxing)
 .debug_str     0x000000000000e59f      0x172 output/drivers/usb/musb/musb_gadget_ep0.o
                                       0x13df (size before relaxing)
 .debug_str     0x000000000000e711      0x105 output/drivers/usb/musb/musb_rtos.o
                                       0x1259 (size before relaxing)
 .debug_str     0x000000000000e816      0x148 output/drivers/usb/musb/musbhsdma.o
                                       0x12e1 (size before relaxing)
 .debug_str     0x000000000000e95e       0xd6 output/drivers/vcsel_driver/vcsel.o
                                        0x3c0 (size before relaxing)
 .debug_str     0x000000000000ea34      0x14f output/drivers/vcsel_driver/lm36011.o
                                        0x662 (size before relaxing)
 .debug_str     0x000000000000eb83       0xfd output/drivers/vcsel_driver/lm3644.o
                                        0x646 (size before relaxing)
 .debug_str     0x000000000000ec80       0x42 output/boards/2280_ddr/start/section.o
                                         0xe4 (size before relaxing)
 .debug_str     0x000000000000ecc2       0x6e output/boards/2280_ddr/board_2280.o
                                        0x263 (size before relaxing)
 .debug_str     0x000000000000ed30      0x2b5 output/tools/FreeRTOS_CLI/FreeRTOS_CLI.o
                                        0x44a (size before relaxing)
 .debug_str     0x000000000000efe5      0x105 output/tools/FreeRTOS_CLI/imi_console.o
                                        0x4a4 (size before relaxing)
 .debug_str     0x000000000000f0ea       0xb2 output/tools/easylogger/port/elog_init.o
                                        0x206 (size before relaxing)
 .debug_str     0x000000000000f19c       0xd9 output/tools/easylogger/port/elog_port.o
                                        0x230 (size before relaxing)
 .debug_str     0x000000000000f275       0x6b output/tools/easylogger/src/elog_utils.o
                                        0x1bc (size before relaxing)
 .debug_str     0x000000000000f2e0      0x31f output/tools/easylogger/src/elog.o
                                        0x7f8 (size before relaxing)
 .debug_str     0x000000000000f5ff      0x19c output/tools/printf/vsnprintf.o
                                        0x36e (size before relaxing)
 .debug_str     0x000000000000f79b       0x49 output/tools/printf/printf.o
                                        0x1ce (size before relaxing)
 .debug_str     0x000000000000f7e4       0x15 output/tools/stdlib/ctype.o
                                         0xc7 (size before relaxing)
 .debug_str     0x000000000000f7f9      0x12a output/tools/stdlib/string.o
                                        0x2c8 (size before relaxing)
 .debug_str     0x000000000000f923       0x2e output/boards/2280_ddr/start/lib1funcs.o
                                         0x4f (size before relaxing)
 .debug_str     0x000000000000f951       0x1e output/boards/2280_ddr/start/start.o
                                         0x4b (size before relaxing)
 .debug_str     0x000000000000f96f      0xcf3 ./drivers/ddr/libddr_64.a(dcu.o)
                                        0xf35 (size before relaxing)
 .debug_str     0x0000000000010662       0x89 /home/tool/arm-hjimi-linux-gnueabi/bin/../lib/gcc/arm-hjimi-linux-gnueabi/7.3.0/libgcc.a(_aeabi_uldivmod.o)
                                         0x95 (size before relaxing)
 .debug_str     0x00000000000106eb       0x27 /home/tool/arm-hjimi-linux-gnueabi/bin/../lib/gcc/arm-hjimi-linux-gnueabi/7.3.0/libgcc.a(_dvmd_lnx.o)
                                         0x99 (size before relaxing)
 .debug_str     0x0000000000010712     0x1341 /home/tool/arm-hjimi-linux-gnueabi/bin/../lib/gcc/arm-hjimi-linux-gnueabi/7.3.0/libgcc.a(_udivmoddi4.o)
                                       0x1656 (size before relaxing)

.debug_frame    0x0000000000000000     0xd1a8
 .debug_frame   0x0000000000000000      0x1d8 output/rtos/event_groups.o
 .debug_frame   0x00000000000001d8       0xb0 output/rtos/list.o
 .debug_frame   0x0000000000000288       0xf8 output/rtos/portable/GCC/port.o
 .debug_frame   0x0000000000000380      0x114 output/rtos/portable/MemMang/heap_4.o
 .debug_frame   0x0000000000000494      0x488 output/rtos/queue.o
 .debug_frame   0x000000000000091c      0x314 output/rtos/stream_buffer.o
 .debug_frame   0x0000000000000c30      0x7f4 output/rtos/tasks.o
 .debug_frame   0x0000000000001424      0x368 output/rtos/timers.o
 .debug_frame   0x000000000000178c       0x30 output/main/driver_init.o
 .debug_frame   0x00000000000017bc       0xac output/main/uart_task.o
 .debug_frame   0x0000000000001868       0x88 output/main/main.o
 .debug_frame   0x00000000000018f0      0x1a0 output/app/dpu/dpu_hal.o
 .debug_frame   0x0000000000001a90      0x1d0 output/app/dpu/dputask.o
 .debug_frame   0x0000000000001c60      0x1cc output/app/dpu/msg_module.o
 .debug_frame   0x0000000000001e2c      0x3f8 output/app/imi_app/subsystem/usb/vendor_usb.o
 .debug_frame   0x0000000000002224      0x110 output/app/imi_app/subsystem/vendor_sub_system.o
 .debug_frame   0x0000000000002334      0x130 output/app/imi_app/vendor/cmd_hal.o
 .debug_frame   0x0000000000002464      0x484 output/app/imi_app/vendor/vendor_device.o
 .debug_frame   0x00000000000028e8      0x304 output/app/imi_app/vendor/vendor_misc.o
 .debug_frame   0x0000000000002bec      0x2d0 output/drivers/base/imi_dev.o
 .debug_frame   0x0000000000002ebc      0x10c output/drivers/base/imi_work.o
 .debug_frame   0x0000000000002fc8      0x1c4 output/drivers/buf_man/imi_bm.o
 .debug_frame   0x000000000000318c       0xb0 output/drivers/clock/clock_2280.o
 .debug_frame   0x000000000000323c      0x2ac output/drivers/compat/linux_compat.o
 .debug_frame   0x00000000000034e8      0x318 output/drivers/csi_rx/csi_rx_2280.o
 .debug_frame   0x0000000000003800      0x18c output/drivers/csi_rx/vidomain_2280.o
 .debug_frame   0x000000000000398c       0xd0 output/drivers/delay/delay.o
 .debug_frame   0x0000000000003a5c      0x234 output/drivers/dma/dmaengine.o
 .debug_frame   0x0000000000003c90      0xcc0 output/drivers/dma/pl330.o
 .debug_frame   0x0000000000004950       0x3c output/drivers/dpu_2280/debug.o
 .debug_frame   0x000000000000498c      0x27c output/drivers/dpu_2280/dpu.o
 .debug_frame   0x0000000000004c08      0x4a0 output/drivers/dpu_2280/dpu_dev.o
 .debug_frame   0x00000000000050a8      0x22c output/drivers/gpio/gpio.o
 .debug_frame   0x00000000000052d4      0x210 output/drivers/i2c/i2c-designware-common.o
 .debug_frame   0x00000000000054e4       0x30 output/drivers/i2c/i2c-designware-dma.o
 .debug_frame   0x0000000000005514      0x1a0 output/drivers/i2c/i2c-designware-master.o
 .debug_frame   0x00000000000056b4      0x134 output/drivers/i2c/i2c-designware-platdrv.o
 .debug_frame   0x00000000000057e8      0x138 output/drivers/i2c/i2c-designware-slave.o
 .debug_frame   0x0000000000005920      0x40c output/drivers/i2c/i2c_core.o
 .debug_frame   0x0000000000005d2c      0x150 output/drivers/ipc/imi_ipc.o
 .debug_frame   0x0000000000005e7c       0x6c output/drivers/irq/chip.o
 .debug_frame   0x0000000000005ee8      0x190 output/drivers/irq/vic_int.o
 .debug_frame   0x0000000000006078       0xc8 output/drivers/irq/interrupt.o
 .debug_frame   0x0000000000006140      0x350 output/drivers/irrx/irrx.o
 .debug_frame   0x0000000000006490      0x2d8 output/drivers/irrx/ov928x.o
 .debug_frame   0x0000000000006768      0x110 output/drivers/mailbox/imi_mailbox.o
 .debug_frame   0x0000000000006878      0x18c output/drivers/mailbox/mailbox.o
 .debug_frame   0x0000000000006a04       0x6c output/drivers/pinmux/pinmux.o
 .debug_frame   0x0000000000006a70      0x410 output/drivers/qspi/nand/spi_nand.o
 .debug_frame   0x0000000000006e80      0x470 output/drivers/qspi/nor/spi_nor.o
 .debug_frame   0x00000000000072f0       0xec output/drivers/qspi/nor_test.o
 .debug_frame   0x00000000000073dc       0xec output/drivers/qspi/nand_test.o
 .debug_frame   0x00000000000074c8      0x500 output/drivers/qspi/candence_qspi.o
 .debug_frame   0x00000000000079c8       0x90 output/drivers/reset/reset_imi2280.o
 .debug_frame   0x0000000000007a58      0x1d0 output/drivers/reset/reset.o
 .debug_frame   0x0000000000007c28       0xd0 output/drivers/rvl/rvl.o
 .debug_frame   0x0000000000007cf8      0x1f4 output/drivers/soc/cache-cp15.o
 .debug_frame   0x0000000000007eec       0x30 output/drivers/soc/dma_buf.o
 .debug_frame   0x0000000000007f1c      0x238 output/drivers/timers/timer_imi2280.o
 .debug_frame   0x0000000000008154       0xf4 output/drivers/trigger/sensor_sync_2280.o
 .debug_frame   0x0000000000008248      0x210 output/drivers/trigger/trigger.o
 .debug_frame   0x0000000000008458      0x130 output/drivers/uart/uart.o
 .debug_frame   0x0000000000008588      0xc4c output/drivers/usb/gadget/composite.o
 .debug_frame   0x00000000000091d4      0x130 output/drivers/usb/gadget/config.o
 .debug_frame   0x0000000000009304      0x634 output/drivers/usb/gadget/core.o
 .debug_frame   0x0000000000009938       0xb4 output/drivers/usb/gadget/epautoconf.o
 .debug_frame   0x00000000000099ec      0x3f8 output/drivers/usb/gadget/function/f_imi.o
 .debug_frame   0x0000000000009de4      0x190 output/drivers/usb/gadget/function/imi_vendor_cmd.o
 .debug_frame   0x0000000000009f74      0x354 output/drivers/usb/gadget/function/u_imi.o
 .debug_frame   0x000000000000a2c8       0xec output/drivers/usb/gadget/legacy/g_imi_usb.o
 .debug_frame   0x000000000000a3b4       0x94 output/drivers/usb/gadget/usbstring.o
 .debug_frame   0x000000000000a448      0x684 output/drivers/usb/musb/musb_core.o
 .debug_frame   0x000000000000aacc      0x6e8 output/drivers/usb/musb/musb_gadget.o
 .debug_frame   0x000000000000b1b4      0x380 output/drivers/usb/musb/musb_gadget_ep0.o
 .debug_frame   0x000000000000b534       0xd0 output/drivers/usb/musb/musb_rtos.o
 .debug_frame   0x000000000000b604      0x1d4 output/drivers/usb/musb/musbhsdma.o
 .debug_frame   0x000000000000b7d8      0x1d0 output/drivers/vcsel_driver/vcsel.o
 .debug_frame   0x000000000000b9a8      0x1ac output/drivers/vcsel_driver/lm36011.o
 .debug_frame   0x000000000000bb54      0x1b0 output/drivers/vcsel_driver/lm3644.o
 .debug_frame   0x000000000000bd04       0x44 output/boards/2280_ddr/start/section.o
 .debug_frame   0x000000000000bd48       0xd0 output/boards/2280_ddr/board_2280.o
 .debug_frame   0x000000000000be18       0xd4 output/tools/FreeRTOS_CLI/FreeRTOS_CLI.o
 .debug_frame   0x000000000000beec      0x1b8 output/tools/FreeRTOS_CLI/imi_console.o
 .debug_frame   0x000000000000c0a4       0x4c output/tools/easylogger/port/elog_init.o
 .debug_frame   0x000000000000c0f0      0x114 output/tools/easylogger/port/elog_port.o
 .debug_frame   0x000000000000c204       0x70 output/tools/easylogger/src/elog_utils.o
 .debug_frame   0x000000000000c274      0x334 output/tools/easylogger/src/elog.o
 .debug_frame   0x000000000000c5a8      0x2a4 output/tools/printf/vsnprintf.o
 .debug_frame   0x000000000000c84c      0x114 output/tools/printf/printf.o
 .debug_frame   0x000000000000c960      0x360 output/tools/stdlib/string.o
 .debug_frame   0x000000000000ccc0      0x458 ./drivers/ddr/libddr_64.a(dcu.o)
 .debug_frame   0x000000000000d118       0x2c /home/tool/arm-hjimi-linux-gnueabi/bin/../lib/gcc/arm-hjimi-linux-gnueabi/7.3.0/libgcc.a(_aeabi_uldivmod.o)
 .debug_frame   0x000000000000d144       0x28 /home/tool/arm-hjimi-linux-gnueabi/bin/../lib/gcc/arm-hjimi-linux-gnueabi/7.3.0/libgcc.a(_dvmd_lnx.o)
 .debug_frame   0x000000000000d16c       0x3c /home/tool/arm-hjimi-linux-gnueabi/bin/../lib/gcc/arm-hjimi-linux-gnueabi/7.3.0/libgcc.a(_udivmoddi4.o)

.debug_ranges   0x0000000000000000      0x1b0
 .debug_ranges  0x0000000000000000       0x18 output/drivers/dpu_2280/dpu_dev.o
 .debug_ranges  0x0000000000000018       0x18 output/drivers/i2c/i2c-designware-master.o
 .debug_ranges  0x0000000000000030       0x18 output/drivers/irrx/ov928x.o
 .debug_ranges  0x0000000000000048       0x48 output/drivers/usb/gadget/composite.o
 .debug_ranges  0x0000000000000090       0x60 output/drivers/usb/musb/musb_gadget.o
 .debug_ranges  0x00000000000000f0       0x48 output/drivers/usb/musb/musb_gadget_ep0.o
 .debug_ranges  0x0000000000000138       0x18 output/tools/stdlib/string.o
 .debug_ranges  0x0000000000000150       0x40 output/boards/2280_ddr/start/lib1funcs.o
 .debug_ranges  0x0000000000000190       0x20 output/boards/2280_ddr/start/start.o

.debug_loc      0x0000000000000000      0x439
 .debug_loc     0x0000000000000000      0x439 /home/tool/arm-hjimi-linux-gnueabi/bin/../lib/gcc/arm-hjimi-linux-gnueabi/7.3.0/libgcc.a(_udivmoddi4.o)

Cross Reference Table

Symbol                                            File
AL                                                ./drivers/ddr/libddr_64.a(dcu.o)
BL                                                ./drivers/ddr/libddr_64.a(dcu.o)
CL                                                ./drivers/ddr/libddr_64.a(dcu.o)
CWL                                               ./drivers/ddr/libddr_64.a(dcu.o)
ConfigSysTime                                     output/drivers/timers/timer_imi2280.o
ConfigureTimeForRunTimeStats                      output/drivers/timers/timer_imi2280.o
DDR3_init                                         ./drivers/ddr/libddr_64.a(dcu.o)
                                                  output/drivers/irq/chip.o
DMEM                                              ./drivers/ddr/libddr_64.a(dcu.o)
FRTOS_complete                                    output/drivers/compat/linux_compat.o
                                                  output/drivers/usb/gadget/function/f_imi.o
                                                  output/drivers/qspi/candence_qspi.o
                                                  output/drivers/i2c/i2c-designware-slave.o
                                                  output/drivers/i2c/i2c-designware-master.o
FRTOS_completion_init                             output/drivers/compat/linux_compat.o
                                                  output/drivers/usb/gadget/function/u_imi.o
                                                  output/drivers/qspi/candence_qspi.o
                                                  output/drivers/i2c/i2c_core.o
                                                  output/drivers/i2c/i2c-designware-slave.o
                                                  output/drivers/i2c/i2c-designware-master.o
FRTOS_completion_reinit                           output/drivers/compat/linux_compat.o
                                                  output/drivers/qspi/candence_qspi.o
                                                  output/drivers/i2c/i2c-designware-master.o
FRTOS_completion_wait                             output/drivers/compat/linux_compat.o
                                                  output/drivers/usb/gadget/function/f_imi.o
                                                  output/drivers/qspi/candence_qspi.o
                                                  output/drivers/i2c/i2c_core.o
                                                  output/drivers/i2c/i2c-designware-master.o
FRTOS_mutex_create                                output/drivers/compat/linux_compat.o
                                                  output/drivers/vcsel_driver/vcsel.o
                                                  output/drivers/trigger/trigger.o
                                                  output/drivers/qspi/nor/spi_nor.o
                                                  output/drivers/qspi/nand/spi_nand.o
                                                  output/drivers/irrx/irrx.o
                                                  output/drivers/i2c/i2c_core.o
                                                  output/drivers/dpu_2280/dpu.o
                                                  output/drivers/base/imi_work.o
                                                  output/app/imi_app/vendor/vendor_device.o
                                                  output/app/imi_app/subsystem/vendor_sub_system.o
                                                  output/app/imi_app/subsystem/usb/vendor_usb.o
                                                  output/app/dpu/dputask.o
FRTOS_mutex_free                                  output/drivers/compat/linux_compat.o
                                                  output/app/imi_app/vendor/vendor_device.o
                                                  output/app/imi_app/subsystem/vendor_sub_system.o
                                                  output/app/imi_app/subsystem/usb/vendor_usb.o
FRTOS_mutex_lock                                  output/drivers/compat/linux_compat.o
                                                  output/drivers/vcsel_driver/vcsel.o
                                                  output/drivers/trigger/trigger.o
                                                  output/drivers/qspi/nor/spi_nor.o
                                                  output/drivers/qspi/nand/spi_nand.o
                                                  output/drivers/irrx/irrx.o
                                                  output/drivers/i2c/i2c_core.o
                                                  output/drivers/dpu_2280/dpu.o
                                                  output/drivers/base/imi_work.o
                                                  output/app/imi_app/vendor/vendor_device.o
                                                  output/app/imi_app/subsystem/vendor_sub_system.o
                                                  output/app/imi_app/subsystem/usb/vendor_usb.o
                                                  output/app/dpu/dpu_hal.o
FRTOS_mutex_unlock                                output/drivers/compat/linux_compat.o
                                                  output/drivers/vcsel_driver/vcsel.o
                                                  output/drivers/trigger/trigger.o
                                                  output/drivers/qspi/nor/spi_nor.o
                                                  output/drivers/qspi/nand/spi_nand.o
                                                  output/drivers/irrx/irrx.o
                                                  output/drivers/i2c/i2c_core.o
                                                  output/drivers/dpu_2280/dpu.o
                                                  output/drivers/base/imi_work.o
                                                  output/app/imi_app/vendor/vendor_device.o
                                                  output/app/imi_app/subsystem/vendor_sub_system.o
                                                  output/app/imi_app/subsystem/usb/vendor_usb.o
                                                  output/app/dpu/dpu_hal.o
FRTOS_sem_create                                  output/drivers/compat/linux_compat.o
                                                  output/drivers/base/imi_dev.o
FRTOS_sem_free                                    output/drivers/compat/linux_compat.o
                                                  output/drivers/base/imi_dev.o
FRTOS_sem_signal                                  output/drivers/compat/linux_compat.o
                                                  output/drivers/base/imi_dev.o
FRTOS_sem_signal_from_isr                         output/drivers/compat/linux_compat.o
                                                  output/drivers/base/imi_dev.o
FRTOS_sem_wait                                    output/drivers/compat/linux_compat.o
                                                  output/drivers/base/imi_dev.o
FreeRTOS_CLIGetOutputBuffer                       output/tools/FreeRTOS_CLI/FreeRTOS_CLI.o
FreeRTOS_CLIGetParameter                          output/tools/FreeRTOS_CLI/FreeRTOS_CLI.o
                                                  output/tools/FreeRTOS_CLI/imi_console.o
FreeRTOS_CLIProcessCommand                        output/tools/FreeRTOS_CLI/FreeRTOS_CLI.o
                                                  output/tools/FreeRTOS_CLI/imi_console.o
FreeRTOS_CLIRegisterCommand                       output/tools/FreeRTOS_CLI/FreeRTOS_CLI.o
                                                  output/tools/FreeRTOS_CLI/imi_console.o
GLIBC_2.10                                        /home/tool/arm-hjimi-linux-gnueabi/arm-hjimi-linux-gnueabi/sysroot/lib/libc.so.6
GLIBC_2.11                                        /home/tool/arm-hjimi-linux-gnueabi/arm-hjimi-linux-gnueabi/sysroot/lib/libc.so.6
GLIBC_2.12                                        /home/tool/arm-hjimi-linux-gnueabi/arm-hjimi-linux-gnueabi/sysroot/lib/libc.so.6
GLIBC_2.13                                        /home/tool/arm-hjimi-linux-gnueabi/arm-hjimi-linux-gnueabi/sysroot/lib/libc.so.6
GLIBC_2.14                                        /home/tool/arm-hjimi-linux-gnueabi/arm-hjimi-linux-gnueabi/sysroot/lib/libc.so.6
GLIBC_2.15                                        /home/tool/arm-hjimi-linux-gnueabi/arm-hjimi-linux-gnueabi/sysroot/lib/libc.so.6
GLIBC_2.16                                        /home/tool/arm-hjimi-linux-gnueabi/arm-hjimi-linux-gnueabi/sysroot/lib/libc.so.6
GLIBC_2.17                                        /home/tool/arm-hjimi-linux-gnueabi/arm-hjimi-linux-gnueabi/sysroot/lib/libc.so.6
GLIBC_2.18                                        /home/tool/arm-hjimi-linux-gnueabi/arm-hjimi-linux-gnueabi/sysroot/lib/libc.so.6
GLIBC_2.22                                        /home/tool/arm-hjimi-linux-gnueabi/arm-hjimi-linux-gnueabi/sysroot/lib/libc.so.6
GLIBC_2.23                                        /home/tool/arm-hjimi-linux-gnueabi/arm-hjimi-linux-gnueabi/sysroot/lib/libc.so.6
GLIBC_2.24                                        /home/tool/arm-hjimi-linux-gnueabi/arm-hjimi-linux-gnueabi/sysroot/lib/libc.so.6
GLIBC_2.25                                        /home/tool/arm-hjimi-linux-gnueabi/arm-hjimi-linux-gnueabi/sysroot/lib/libc.so.6
GLIBC_2.26                                        /home/tool/arm-hjimi-linux-gnueabi/arm-hjimi-linux-gnueabi/sysroot/lib/libc.so.6
GLIBC_2.4                                         /home/tool/arm-hjimi-linux-gnueabi/arm-hjimi-linux-gnueabi/sysroot/lib/libc.so.6
                                                  /home/tool/arm-hjimi-linux-gnueabi/arm-hjimi-linux-gnueabi/sysroot/lib/ld-linux.so.3
GLIBC_2.5                                         /home/tool/arm-hjimi-linux-gnueabi/arm-hjimi-linux-gnueabi/sysroot/lib/libc.so.6
GLIBC_2.6                                         /home/tool/arm-hjimi-linux-gnueabi/arm-hjimi-linux-gnueabi/sysroot/lib/libc.so.6
GLIBC_2.7                                         /home/tool/arm-hjimi-linux-gnueabi/arm-hjimi-linux-gnueabi/sysroot/lib/libc.so.6
GLIBC_2.8                                         /home/tool/arm-hjimi-linux-gnueabi/arm-hjimi-linux-gnueabi/sysroot/lib/libc.so.6
GLIBC_2.9                                         /home/tool/arm-hjimi-linux-gnueabi/arm-hjimi-linux-gnueabi/sysroot/lib/libc.so.6
GLIBC_PRIVATE                                     /home/tool/arm-hjimi-linux-gnueabi/arm-hjimi-linux-gnueabi/sysroot/lib/libc.so.6
                                                  /home/tool/arm-hjimi-linux-gnueabi/arm-hjimi-linux-gnueabi/sysroot/lib/ld-linux.so.3
IMEM                                              ./drivers/ddr/libddr_64.a(dcu.o)
IMI_BUFPOLL_BASE                                  output/drivers/buf_man/imi_bm.o
InitCalls                                         output/main/driver_init.o
                                                  output/main/main.o
InitSysCtrl                                       output/main/main.o
MA_INH1                                           ./drivers/ddr/libddr_64.a(dcu.o)
MA_INW                                            ./drivers/ddr/libddr_64.a(dcu.o)
MA_OUTH1                                          ./drivers/ddr/libddr_64.a(dcu.o)
MA_OUTW                                           ./drivers/ddr/libddr_64.a(dcu.o)
QSPI_Handler                                      output/main/main.o
RL                                                ./drivers/ddr/libddr_64.a(dcu.o)
Read_reg                                          ./drivers/ddr/libddr_64.a(dcu.o)
TRIGGER_0_IRQHandler                              output/drivers/dpu_2280/dpu_dev.o
Tctrl_delay                                       ./drivers/ddr/libddr_64.a(dcu.o)
UART_Handler                                      output/main/main.o
USB_init                                          output/drivers/usb/gadget/legacy/g_imi_usb.o
UVC_DEP_IRQHandler                                output/drivers/dpu_2280/dpu_dev.o
UVC_IR_IRQHandler                                 output/drivers/dpu_2280/dpu_dev.o
WL                                                ./drivers/ddr/libddr_64.a(dcu.o)
Write_reg                                         ./drivers/ddr/libddr_64.a(dcu.o)
_DYNAMIC                                          output/rtos/croutine.o
_Exit                                             /home/tool/arm-hjimi-linux-gnueabi/arm-hjimi-linux-gnueabi/sysroot/lib/libc.so.6
_Exit@@GLIBC_2.4                                  /home/tool/arm-hjimi-linux-gnueabi/arm-hjimi-linux-gnueabi/sysroot/lib/libc.so.6
_Exit@GLIBC_2.4                                   /home/tool/arm-hjimi-linux-gnueabi/arm-hjimi-linux-gnueabi/sysroot/lib/libc.so.6
_GLOBAL_OFFSET_TABLE_                             output/rtos/croutine.o
_IO_fprintf                                       /home/tool/arm-hjimi-linux-gnueabi/arm-hjimi-linux-gnueabi/sysroot/lib/libc.so.6
_IO_fprintf@@GLIBC_2.4                            /home/tool/arm-hjimi-linux-gnueabi/arm-hjimi-linux-gnueabi/sysroot/lib/libc.so.6
_IO_fprintf@GLIBC_2.4                             /home/tool/arm-hjimi-linux-gnueabi/arm-hjimi-linux-gnueabi/sysroot/lib/libc.so.6
___strtok                                         output/tools/stdlib/string.o
__aeabi_idiv                                      output/boards/2280_ddr/start/lib1funcs.o
                                                  output/drivers/trigger/sensor_sync_2280.o
                                                  output/drivers/qspi/nand_test.o
                                                  output/drivers/qspi/nor_test.o
                                                  output/drivers/irrx/ov928x.o
                                                  output/drivers/dma/pl330.o
__aeabi_idiv0                                     /home/tool/arm-hjimi-linux-gnueabi/bin/../lib/gcc/arm-hjimi-linux-gnueabi/7.3.0/libgcc.a(_dvmd_lnx.o)
__aeabi_idivmod                                   output/boards/2280_ddr/start/lib1funcs.o
__aeabi_ldiv0                                     /home/tool/arm-hjimi-linux-gnueabi/bin/../lib/gcc/arm-hjimi-linux-gnueabi/7.3.0/libgcc.a(_dvmd_lnx.o)
                                                  /home/tool/arm-hjimi-linux-gnueabi/bin/../lib/gcc/arm-hjimi-linux-gnueabi/7.3.0/libgcc.a(_aeabi_uldivmod.o)
__aeabi_uidiv                                     output/boards/2280_ddr/start/lib1funcs.o
                                                  output/tools/stdlib/string.o
                                                  output/tools/printf/vsnprintf.o
                                                  output/drivers/usb/musb/musb_gadget.o
                                                  output/drivers/uart/uart.o
                                                  output/drivers/qspi/candence_qspi.o
                                                  output/drivers/dma/pl330.o
                                                  output/drivers/csi_rx/csi_rx_2280.o
                                                  output/rtos/tasks.o
__aeabi_uidivmod                                  output/boards/2280_ddr/start/lib1funcs.o
                                                  output/tools/stdlib/string.o
                                                  output/tools/printf/vsnprintf.o
                                                  output/drivers/usb/musb/musb_gadget.o
                                                  output/drivers/usb/gadget/function/f_imi.o
                                                  output/drivers/uart/uart.o
                                                  output/drivers/qspi/nor/spi_nor.o
                                                  output/drivers/qspi/nand/spi_nand.o
                                                  output/drivers/dma/pl330.o
__aeabi_uldivmod                                  /home/tool/arm-hjimi-linux-gnueabi/bin/../lib/gcc/arm-hjimi-linux-gnueabi/7.3.0/libgcc.a(_aeabi_uldivmod.o)
                                                  output/tools/printf/vsnprintf.o
                                                  output/tools/FreeRTOS_CLI/imi_console.o
                                                  output/drivers/timers/timer_imi2280.o
__after_morecore_hook                             /home/tool/arm-hjimi-linux-gnueabi/arm-hjimi-linux-gnueabi/sysroot/lib/libc.so.6
__after_morecore_hook@@GLIBC_2.4                  /home/tool/arm-hjimi-linux-gnueabi/arm-hjimi-linux-gnueabi/sysroot/lib/libc.so.6
__after_morecore_hook@GLIBC_2.4                   /home/tool/arm-hjimi-linux-gnueabi/arm-hjimi-linux-gnueabi/sysroot/lib/libc.so.6
__bss_end                                         output/boards/2280_ddr/start/section.o
                                                  output/boards/2280_ddr/start/start.o
__bss_start                                       output/boards/2280_ddr/start/section.o
                                                  output/boards/2280_ddr/start/start.o
__compat_create_module                            /home/tool/arm-hjimi-linux-gnueabi/arm-hjimi-linux-gnueabi/sysroot/lib/libc.so.6
__compat_get_kernel_syms                          /home/tool/arm-hjimi-linux-gnueabi/arm-hjimi-linux-gnueabi/sysroot/lib/libc.so.6
__compat_query_module                             /home/tool/arm-hjimi-linux-gnueabi/arm-hjimi-linux-gnueabi/sysroot/lib/libc.so.6
__connect                                         /home/tool/arm-hjimi-linux-gnueabi/arm-hjimi-linux-gnueabi/sysroot/lib/libc.so.6
__connect@@GLIBC_2.4                              /home/tool/arm-hjimi-linux-gnueabi/arm-hjimi-linux-gnueabi/sysroot/lib/libc.so.6
__connect@GLIBC_2.4                               /home/tool/arm-hjimi-linux-gnueabi/arm-hjimi-linux-gnueabi/sysroot/lib/libc.so.6
__ctype_get_mb_cur_max                            /home/tool/arm-hjimi-linux-gnueabi/arm-hjimi-linux-gnueabi/sysroot/lib/libc.so.6
__ctype_get_mb_cur_max@@GLIBC_2.4                 /home/tool/arm-hjimi-linux-gnueabi/arm-hjimi-linux-gnueabi/sysroot/lib/libc.so.6
__ctype_get_mb_cur_max@GLIBC_2.4                  /home/tool/arm-hjimi-linux-gnueabi/arm-hjimi-linux-gnueabi/sysroot/lib/libc.so.6
__div0                                            output/boards/2280_ddr/start/section.o
                                                  output/boards/2280_ddr/start/lib1funcs.o
__div64_32                                        output/tools/printf/vsnprintf.o
__divsi3                                          output/boards/2280_ddr/start/lib1funcs.o
__fcntl                                           /home/tool/arm-hjimi-linux-gnueabi/arm-hjimi-linux-gnueabi/sysroot/lib/libc.so.6
__fcntl@@GLIBC_2.4                                /home/tool/arm-hjimi-linux-gnueabi/arm-hjimi-linux-gnueabi/sysroot/lib/libc.so.6
__fcntl@GLIBC_2.4                                 /home/tool/arm-hjimi-linux-gnueabi/arm-hjimi-linux-gnueabi/sysroot/lib/libc.so.6
__free_hook                                       /home/tool/arm-hjimi-linux-gnueabi/arm-hjimi-linux-gnueabi/sysroot/lib/libc.so.6
__free_hook@@GLIBC_2.4                            /home/tool/arm-hjimi-linux-gnueabi/arm-hjimi-linux-gnueabi/sysroot/lib/libc.so.6
__free_hook@GLIBC_2.4                             /home/tool/arm-hjimi-linux-gnueabi/arm-hjimi-linux-gnueabi/sysroot/lib/libc.so.6
__getdelim                                        /home/tool/arm-hjimi-linux-gnueabi/arm-hjimi-linux-gnueabi/sysroot/lib/libc.so.6
__getdelim@@GLIBC_2.4                             /home/tool/arm-hjimi-linux-gnueabi/arm-hjimi-linux-gnueabi/sysroot/lib/libc.so.6
__getdelim@GLIBC_2.4                              /home/tool/arm-hjimi-linux-gnueabi/arm-hjimi-linux-gnueabi/sysroot/lib/libc.so.6
__getrlimit                                       /home/tool/arm-hjimi-linux-gnueabi/arm-hjimi-linux-gnueabi/sysroot/lib/libc.so.6
__getrlimit@@GLIBC_PRIVATE                        /home/tool/arm-hjimi-linux-gnueabi/arm-hjimi-linux-gnueabi/sysroot/lib/libc.so.6
__getrlimit@GLIBC_PRIVATE                         /home/tool/arm-hjimi-linux-gnueabi/arm-hjimi-linux-gnueabi/sysroot/lib/libc.so.6
__i2c_dw_enable                                   output/drivers/i2c/i2c-designware-common.o
                                                  output/drivers/i2c/i2c-designware-slave.o
                                                  output/drivers/i2c/i2c-designware-master.o
__i2c_dw_enable_and_wait                          output/drivers/i2c/i2c-designware-common.o
                                                  output/drivers/i2c/i2c-designware-slave.o
                                                  output/drivers/i2c/i2c-designware-master.o
__isascii_l                                       /home/tool/arm-hjimi-linux-gnueabi/arm-hjimi-linux-gnueabi/sysroot/lib/libc.so.6
__isascii_l@@GLIBC_2.4                            /home/tool/arm-hjimi-linux-gnueabi/arm-hjimi-linux-gnueabi/sysroot/lib/libc.so.6
__isascii_l@GLIBC_2.4                             /home/tool/arm-hjimi-linux-gnueabi/arm-hjimi-linux-gnueabi/sysroot/lib/libc.so.6
__libc_secure_getenv                              /home/tool/arm-hjimi-linux-gnueabi/arm-hjimi-linux-gnueabi/sysroot/lib/libc.so.6
__libc_secure_getenv@@GLIBC_PRIVATE               /home/tool/arm-hjimi-linux-gnueabi/arm-hjimi-linux-gnueabi/sysroot/lib/libc.so.6
__libc_secure_getenv@GLIBC_PRIVATE                /home/tool/arm-hjimi-linux-gnueabi/arm-hjimi-linux-gnueabi/sysroot/lib/libc.so.6
__malloc_hook                                     /home/tool/arm-hjimi-linux-gnueabi/arm-hjimi-linux-gnueabi/sysroot/lib/libc.so.6
__malloc_hook@@GLIBC_2.4                          /home/tool/arm-hjimi-linux-gnueabi/arm-hjimi-linux-gnueabi/sysroot/lib/libc.so.6
__malloc_hook@GLIBC_2.4                           /home/tool/arm-hjimi-linux-gnueabi/arm-hjimi-linux-gnueabi/sysroot/lib/libc.so.6
__malloc_initialize_hook@GLIBC_2.4                /home/tool/arm-hjimi-linux-gnueabi/arm-hjimi-linux-gnueabi/sysroot/lib/libc.so.6
__memalign_hook                                   /home/tool/arm-hjimi-linux-gnueabi/arm-hjimi-linux-gnueabi/sysroot/lib/libc.so.6
__memalign_hook@@GLIBC_2.4                        /home/tool/arm-hjimi-linux-gnueabi/arm-hjimi-linux-gnueabi/sysroot/lib/libc.so.6
__memalign_hook@GLIBC_2.4                         /home/tool/arm-hjimi-linux-gnueabi/arm-hjimi-linux-gnueabi/sysroot/lib/libc.so.6
__modsi3                                          output/boards/2280_ddr/start/lib1funcs.o
__open                                            /home/tool/arm-hjimi-linux-gnueabi/arm-hjimi-linux-gnueabi/sysroot/lib/libc.so.6
__open64                                          /home/tool/arm-hjimi-linux-gnueabi/arm-hjimi-linux-gnueabi/sysroot/lib/libc.so.6
__open64@@GLIBC_2.4                               /home/tool/arm-hjimi-linux-gnueabi/arm-hjimi-linux-gnueabi/sysroot/lib/libc.so.6
__open64@GLIBC_2.4                                /home/tool/arm-hjimi-linux-gnueabi/arm-hjimi-linux-gnueabi/sysroot/lib/libc.so.6
__open@@GLIBC_2.4                                 /home/tool/arm-hjimi-linux-gnueabi/arm-hjimi-linux-gnueabi/sysroot/lib/libc.so.6
__open@GLIBC_2.4                                  /home/tool/arm-hjimi-linux-gnueabi/arm-hjimi-linux-gnueabi/sysroot/lib/libc.so.6
__pread64                                         /home/tool/arm-hjimi-linux-gnueabi/arm-hjimi-linux-gnueabi/sysroot/lib/libc.so.6
__pread64@@GLIBC_2.4                              /home/tool/arm-hjimi-linux-gnueabi/arm-hjimi-linux-gnueabi/sysroot/lib/libc.so.6
__pread64@GLIBC_2.4                               /home/tool/arm-hjimi-linux-gnueabi/arm-hjimi-linux-gnueabi/sysroot/lib/libc.so.6
__pwrite64                                        /home/tool/arm-hjimi-linux-gnueabi/arm-hjimi-linux-gnueabi/sysroot/lib/libc.so.6
__pwrite64@@GLIBC_2.4                             /home/tool/arm-hjimi-linux-gnueabi/arm-hjimi-linux-gnueabi/sysroot/lib/libc.so.6
__pwrite64@GLIBC_2.4                              /home/tool/arm-hjimi-linux-gnueabi/arm-hjimi-linux-gnueabi/sysroot/lib/libc.so.6
__realloc_hook                                    /home/tool/arm-hjimi-linux-gnueabi/arm-hjimi-linux-gnueabi/sysroot/lib/libc.so.6
__realloc_hook@@GLIBC_2.4                         /home/tool/arm-hjimi-linux-gnueabi/arm-hjimi-linux-gnueabi/sysroot/lib/libc.so.6
__realloc_hook@GLIBC_2.4                          /home/tool/arm-hjimi-linux-gnueabi/arm-hjimi-linux-gnueabi/sysroot/lib/libc.so.6
__recv                                            /home/tool/arm-hjimi-linux-gnueabi/arm-hjimi-linux-gnueabi/sysroot/lib/libc.so.6
__recv@@GLIBC_PRIVATE                             /home/tool/arm-hjimi-linux-gnueabi/arm-hjimi-linux-gnueabi/sysroot/lib/libc.so.6
__recv@GLIBC_PRIVATE                              /home/tool/arm-hjimi-linux-gnueabi/arm-hjimi-linux-gnueabi/sysroot/lib/libc.so.6
__secure_getenv@GLIBC_2.4                         /home/tool/arm-hjimi-linux-gnueabi/arm-hjimi-linux-gnueabi/sysroot/lib/libc.so.6
__sigaction                                       /home/tool/arm-hjimi-linux-gnueabi/arm-hjimi-linux-gnueabi/sysroot/lib/libc.so.6
__sigaction@@GLIBC_2.4                            /home/tool/arm-hjimi-linux-gnueabi/arm-hjimi-linux-gnueabi/sysroot/lib/libc.so.6
__sigaction@GLIBC_2.4                             /home/tool/arm-hjimi-linux-gnueabi/arm-hjimi-linux-gnueabi/sysroot/lib/libc.so.6
__start                                           output/boards/2280_ddr/start/start.o
                                                  output/drivers/irq/chip.o
__toascii_l                                       /home/tool/arm-hjimi-linux-gnueabi/arm-hjimi-linux-gnueabi/sysroot/lib/libc.so.6
__toascii_l@@GLIBC_2.4                            /home/tool/arm-hjimi-linux-gnueabi/arm-hjimi-linux-gnueabi/sysroot/lib/libc.so.6
__toascii_l@GLIBC_2.4                             /home/tool/arm-hjimi-linux-gnueabi/arm-hjimi-linux-gnueabi/sysroot/lib/libc.so.6
__udivmoddi4                                      /home/tool/arm-hjimi-linux-gnueabi/bin/../lib/gcc/arm-hjimi-linux-gnueabi/7.3.0/libgcc.a(_udivmoddi4.o)
                                                  /home/tool/arm-hjimi-linux-gnueabi/bin/../lib/gcc/arm-hjimi-linux-gnueabi/7.3.0/libgcc.a(_aeabi_uldivmod.o)
__udivsi3                                         output/boards/2280_ddr/start/lib1funcs.o
__umodsi3                                         output/boards/2280_ddr/start/lib1funcs.o
__vectors_end                                     output/drivers/irq/chip.o
__vsnprintf                                       /home/tool/arm-hjimi-linux-gnueabi/arm-hjimi-linux-gnueabi/sysroot/lib/libc.so.6
__vsnprintf@@GLIBC_2.4                            /home/tool/arm-hjimi-linux-gnueabi/arm-hjimi-linux-gnueabi/sysroot/lib/libc.so.6
__vsnprintf@GLIBC_2.4                             /home/tool/arm-hjimi-linux-gnueabi/arm-hjimi-linux-gnueabi/sysroot/lib/libc.so.6
__vsscanf                                         /home/tool/arm-hjimi-linux-gnueabi/arm-hjimi-linux-gnueabi/sysroot/lib/libc.so.6
__vsscanf@@GLIBC_2.4                              /home/tool/arm-hjimi-linux-gnueabi/arm-hjimi-linux-gnueabi/sysroot/lib/libc.so.6
__vsscanf@GLIBC_2.4                               /home/tool/arm-hjimi-linux-gnueabi/arm-hjimi-linux-gnueabi/sysroot/lib/libc.so.6
__wait                                            /home/tool/arm-hjimi-linux-gnueabi/arm-hjimi-linux-gnueabi/sysroot/lib/libc.so.6
__wait@@GLIBC_2.4                                 /home/tool/arm-hjimi-linux-gnueabi/arm-hjimi-linux-gnueabi/sysroot/lib/libc.so.6
__wait@GLIBC_2.4                                  /home/tool/arm-hjimi-linux-gnueabi/arm-hjimi-linux-gnueabi/sysroot/lib/libc.so.6
__write                                           /home/tool/arm-hjimi-linux-gnueabi/arm-hjimi-linux-gnueabi/sysroot/lib/libc.so.6
__write@@GLIBC_2.4                                /home/tool/arm-hjimi-linux-gnueabi/arm-hjimi-linux-gnueabi/sysroot/lib/libc.so.6
__write@GLIBC_2.4                                 /home/tool/arm-hjimi-linux-gnueabi/arm-hjimi-linux-gnueabi/sysroot/lib/libc.so.6
__xpg_sigpause                                    /home/tool/arm-hjimi-linux-gnueabi/arm-hjimi-linux-gnueabi/sysroot/lib/libc.so.6
__xpg_sigpause@@GLIBC_2.4                         /home/tool/arm-hjimi-linux-gnueabi/arm-hjimi-linux-gnueabi/sysroot/lib/libc.so.6
__xpg_sigpause@GLIBC_2.4                          /home/tool/arm-hjimi-linux-gnueabi/arm-hjimi-linux-gnueabi/sysroot/lib/libc.so.6
_ar_top                                           output/tools/FreeRTOS_CLI/imi_console.o
_arch_gpio_device_init                            output/drivers/gpio/gpio.o
_arch_imi_2280_i2c_controller_init                output/drivers/i2c/i2c-designware-platdrv.o
_arch_mailbox_dev_init                            output/drivers/mailbox/mailbox.o
_core_clock_dev_init                              output/drivers/clock/clock_2280.o
_core_imi2280_reset_probe                         output/drivers/reset/reset_imi2280.o
_core_imi_2280_clk_default                        output/drivers/clock/clock_2280.o
_core_irq_bootom_half_init                        output/drivers/base/imi_work.o
_core_timer32_init                                output/drivers/delay/delay.o
_core_vic_init                                    output/drivers/irq/vic_int.o
_ctype                                            output/tools/stdlib/ctype.o
                                                  output/tools/stdlib/string.o
                                                  output/tools/printf/vsnprintf.o
_dev_USB_init                                     output/drivers/usb/gadget/legacy/g_imi_usb.o
_dev_board_init                                   output/boards/2280_ddr/board_2280.o
_dev_dpu_2280_probe                               output/drivers/dpu_2280/dpu_dev.o
_dev_rvl_dev_init                                 output/drivers/rvl/rvl.o
_dev_ss_2280_probe                                output/drivers/trigger/sensor_sync_2280.o
_dl_starting_up                                   /home/tool/arm-hjimi-linux-gnueabi/arm-hjimi-linux-gnueabi/sysroot/lib/libc.so.6
_early_imi_elog_init                              output/tools/easylogger/port/elog_init.o
_early_uart1_init                                 output/drivers/uart/uart.o
_early_uart_init                                  output/drivers/uart/uart.o
_early_vector_addr_init                           output/drivers/irq/chip.o
_environ                                          /home/tool/arm-hjimi-linux-gnueabi/arm-hjimi-linux-gnueabi/sysroot/lib/libc.so.6
_environ@@GLIBC_2.4                               /home/tool/arm-hjimi-linux-gnueabi/arm-hjimi-linux-gnueabi/sysroot/lib/libc.so.6
_environ@GLIBC_2.4                                /home/tool/arm-hjimi-linux-gnueabi/arm-hjimi-linux-gnueabi/sysroot/lib/libc.so.6
_flushlbf                                         /home/tool/arm-hjimi-linux-gnueabi/arm-hjimi-linux-gnueabi/sysroot/lib/libc.so.6
_flushlbf@@GLIBC_2.4                              /home/tool/arm-hjimi-linux-gnueabi/arm-hjimi-linux-gnueabi/sysroot/lib/libc.so.6
_flushlbf@GLIBC_2.4                               /home/tool/arm-hjimi-linux-gnueabi/arm-hjimi-linux-gnueabi/sysroot/lib/libc.so.6
_longjmp                                          /home/tool/arm-hjimi-linux-gnueabi/arm-hjimi-linux-gnueabi/sysroot/lib/libc.so.6
_longjmp@@GLIBC_2.4                               /home/tool/arm-hjimi-linux-gnueabi/arm-hjimi-linux-gnueabi/sysroot/lib/libc.so.6
_longjmp@GLIBC_2.4                                /home/tool/arm-hjimi-linux-gnueabi/arm-hjimi-linux-gnueabi/sysroot/lib/libc.so.6
_post_core_ConfigSysTime                          output/drivers/timers/timer_imi2280.o
_post_core_pinmux_default                         output/drivers/pinmux/pinmux.o
_post_core_pl330_init                             output/drivers/dma/pl330.o
_subsys_csi_dev_init                              output/drivers/csi_rx/csi_rx_2280.o
_subsys_dma_engine_probe                          output/drivers/dma/dmaengine.o
_subsys_dpu_sys_init                              output/drivers/dpu_2280/dpu.o
_subsys_i2c_probe                                 output/drivers/i2c/i2c_core.o
_subsys_irrx_sys_init                             output/drivers/irrx/irrx.o
_subsys_msg_module_init                           output/app/dpu/msg_module.o
_subsys_reset_probe                               output/drivers/reset/reset.o
_subsys_trigger_sys_init                          output/drivers/trigger/trigger.o
_subsys_vcsel_sys_init                            output/drivers/vcsel_driver/vcsel.o
_subsys_vi_domain_probe                           output/drivers/csi_rx/vidomain_2280.o
_sys_exit                                         output/drivers/uart/uart.o
access                                            /home/tool/arm-hjimi-linux-gnueabi/arm-hjimi-linux-gnueabi/sysroot/lib/libc.so.6
access@@GLIBC_2.4                                 /home/tool/arm-hjimi-linux-gnueabi/arm-hjimi-linux-gnueabi/sysroot/lib/libc.so.6
access@GLIBC_2.4                                  /home/tool/arm-hjimi-linux-gnueabi/arm-hjimi-linux-gnueabi/sysroot/lib/libc.so.6
addmntent                                         /home/tool/arm-hjimi-linux-gnueabi/arm-hjimi-linux-gnueabi/sysroot/lib/libc.so.6
addmntent@@GLIBC_2.4                              /home/tool/arm-hjimi-linux-gnueabi/arm-hjimi-linux-gnueabi/sysroot/lib/libc.so.6
addmntent@GLIBC_2.4                               /home/tool/arm-hjimi-linux-gnueabi/arm-hjimi-linux-gnueabi/sysroot/lib/libc.so.6
addseverity                                       /home/tool/arm-hjimi-linux-gnueabi/arm-hjimi-linux-gnueabi/sysroot/lib/libc.so.6
addseverity@@GLIBC_2.4                            /home/tool/arm-hjimi-linux-gnueabi/arm-hjimi-linux-gnueabi/sysroot/lib/libc.so.6
addseverity@GLIBC_2.4                             /home/tool/arm-hjimi-linux-gnueabi/arm-hjimi-linux-gnueabi/sysroot/lib/libc.so.6
adjtime                                           /home/tool/arm-hjimi-linux-gnueabi/arm-hjimi-linux-gnueabi/sysroot/lib/libc.so.6
adjtime@@GLIBC_2.4                                /home/tool/arm-hjimi-linux-gnueabi/arm-hjimi-linux-gnueabi/sysroot/lib/libc.so.6
adjtime@GLIBC_2.4                                 /home/tool/arm-hjimi-linux-gnueabi/arm-hjimi-linux-gnueabi/sysroot/lib/libc.so.6
adjtimex                                          /home/tool/arm-hjimi-linux-gnueabi/arm-hjimi-linux-gnueabi/sysroot/lib/libc.so.6
adjtimex@@GLIBC_2.4                               /home/tool/arm-hjimi-linux-gnueabi/arm-hjimi-linux-gnueabi/sysroot/lib/libc.so.6
adjtimex@GLIBC_2.4                                /home/tool/arm-hjimi-linux-gnueabi/arm-hjimi-linux-gnueabi/sysroot/lib/libc.so.6
advance@GLIBC_2.4                                 /home/tool/arm-hjimi-linux-gnueabi/arm-hjimi-linux-gnueabi/sysroot/lib/libc.so.6
aligned_alloc                                     /home/tool/arm-hjimi-linux-gnueabi/arm-hjimi-linux-gnueabi/sysroot/lib/libc.so.6
aligned_alloc@@GLIBC_2.16                         /home/tool/arm-hjimi-linux-gnueabi/arm-hjimi-linux-gnueabi/sysroot/lib/libc.so.6
aligned_alloc@GLIBC_2.16                          /home/tool/arm-hjimi-linux-gnueabi/arm-hjimi-linux-gnueabi/sysroot/lib/libc.so.6
argp_error                                        /home/tool/arm-hjimi-linux-gnueabi/arm-hjimi-linux-gnueabi/sysroot/lib/libc.so.6
argp_error@@GLIBC_2.4                             /home/tool/arm-hjimi-linux-gnueabi/arm-hjimi-linux-gnueabi/sysroot/lib/libc.so.6
argp_error@GLIBC_2.4                              /home/tool/arm-hjimi-linux-gnueabi/arm-hjimi-linux-gnueabi/sysroot/lib/libc.so.6
argp_failure                                      /home/tool/arm-hjimi-linux-gnueabi/arm-hjimi-linux-gnueabi/sysroot/lib/libc.so.6
argp_failure@@GLIBC_2.4                           /home/tool/arm-hjimi-linux-gnueabi/arm-hjimi-linux-gnueabi/sysroot/lib/libc.so.6
argp_failure@GLIBC_2.4                            /home/tool/arm-hjimi-linux-gnueabi/arm-hjimi-linux-gnueabi/sysroot/lib/libc.so.6
argp_help                                         /home/tool/arm-hjimi-linux-gnueabi/arm-hjimi-linux-gnueabi/sysroot/lib/libc.so.6
argp_help@@GLIBC_2.4                              /home/tool/arm-hjimi-linux-gnueabi/arm-hjimi-linux-gnueabi/sysroot/lib/libc.so.6
argp_help@GLIBC_2.4                               /home/tool/arm-hjimi-linux-gnueabi/arm-hjimi-linux-gnueabi/sysroot/lib/libc.so.6
argp_parse                                        /home/tool/arm-hjimi-linux-gnueabi/arm-hjimi-linux-gnueabi/sysroot/lib/libc.so.6
argp_parse@@GLIBC_2.4                             /home/tool/arm-hjimi-linux-gnueabi/arm-hjimi-linux-gnueabi/sysroot/lib/libc.so.6
argp_parse@GLIBC_2.4                              /home/tool/arm-hjimi-linux-gnueabi/arm-hjimi-linux-gnueabi/sysroot/lib/libc.so.6
argp_state_help                                   /home/tool/arm-hjimi-linux-gnueabi/arm-hjimi-linux-gnueabi/sysroot/lib/libc.so.6
argp_state_help@@GLIBC_2.4                        /home/tool/arm-hjimi-linux-gnueabi/arm-hjimi-linux-gnueabi/sysroot/lib/libc.so.6
argp_state_help@GLIBC_2.4                         /home/tool/arm-hjimi-linux-gnueabi/arm-hjimi-linux-gnueabi/sysroot/lib/libc.so.6
argp_usage                                        /home/tool/arm-hjimi-linux-gnueabi/arm-hjimi-linux-gnueabi/sysroot/lib/libc.so.6
argp_usage@@GLIBC_2.4                             /home/tool/arm-hjimi-linux-gnueabi/arm-hjimi-linux-gnueabi/sysroot/lib/libc.so.6
argp_usage@GLIBC_2.4                              /home/tool/arm-hjimi-linux-gnueabi/arm-hjimi-linux-gnueabi/sysroot/lib/libc.so.6
argz_add                                          /home/tool/arm-hjimi-linux-gnueabi/arm-hjimi-linux-gnueabi/sysroot/lib/libc.so.6
argz_add@@GLIBC_2.4                               /home/tool/arm-hjimi-linux-gnueabi/arm-hjimi-linux-gnueabi/sysroot/lib/libc.so.6
argz_add@GLIBC_2.4                                /home/tool/arm-hjimi-linux-gnueabi/arm-hjimi-linux-gnueabi/sysroot/lib/libc.so.6
argz_add_sep                                      /home/tool/arm-hjimi-linux-gnueabi/arm-hjimi-linux-gnueabi/sysroot/lib/libc.so.6
argz_add_sep@@GLIBC_2.4                           /home/tool/arm-hjimi-linux-gnueabi/arm-hjimi-linux-gnueabi/sysroot/lib/libc.so.6
argz_add_sep@GLIBC_2.4                            /home/tool/arm-hjimi-linux-gnueabi/arm-hjimi-linux-gnueabi/sysroot/lib/libc.so.6
argz_append                                       /home/tool/arm-hjimi-linux-gnueabi/arm-hjimi-linux-gnueabi/sysroot/lib/libc.so.6
argz_append@@GLIBC_2.4                            /home/tool/arm-hjimi-linux-gnueabi/arm-hjimi-linux-gnueabi/sysroot/lib/libc.so.6
argz_append@GLIBC_2.4                             /home/tool/arm-hjimi-linux-gnueabi/arm-hjimi-linux-gnueabi/sysroot/lib/libc.so.6
argz_count                                        /home/tool/arm-hjimi-linux-gnueabi/arm-hjimi-linux-gnueabi/sysroot/lib/libc.so.6
argz_count@@GLIBC_2.4                             /home/tool/arm-hjimi-linux-gnueabi/arm-hjimi-linux-gnueabi/sysroot/lib/libc.so.6
argz_count@GLIBC_2.4                              /home/tool/arm-hjimi-linux-gnueabi/arm-hjimi-linux-gnueabi/sysroot/lib/libc.so.6
argz_create                                       /home/tool/arm-hjimi-linux-gnueabi/arm-hjimi-linux-gnueabi/sysroot/lib/libc.so.6
argz_create@@GLIBC_2.4                            /home/tool/arm-hjimi-linux-gnueabi/arm-hjimi-linux-gnueabi/sysroot/lib/libc.so.6
argz_create@GLIBC_2.4                             /home/tool/arm-hjimi-linux-gnueabi/arm-hjimi-linux-gnueabi/sysroot/lib/libc.so.6
argz_create_sep                                   /home/tool/arm-hjimi-linux-gnueabi/arm-hjimi-linux-gnueabi/sysroot/lib/libc.so.6
argz_create_sep@@GLIBC_2.4                        /home/tool/arm-hjimi-linux-gnueabi/arm-hjimi-linux-gnueabi/sysroot/lib/libc.so.6
argz_create_sep@GLIBC_2.4                         /home/tool/arm-hjimi-linux-gnueabi/arm-hjimi-linux-gnueabi/sysroot/lib/libc.so.6
argz_extract                                      /home/tool/arm-hjimi-linux-gnueabi/arm-hjimi-linux-gnueabi/sysroot/lib/libc.so.6
argz_extract@@GLIBC_2.4                           /home/tool/arm-hjimi-linux-gnueabi/arm-hjimi-linux-gnueabi/sysroot/lib/libc.so.6
argz_extract@GLIBC_2.4                            /home/tool/arm-hjimi-linux-gnueabi/arm-hjimi-linux-gnueabi/sysroot/lib/libc.so.6
argz_insert                                       /home/tool/arm-hjimi-linux-gnueabi/arm-hjimi-linux-gnueabi/sysroot/lib/libc.so.6
argz_insert@@GLIBC_2.4                            /home/tool/arm-hjimi-linux-gnueabi/arm-hjimi-linux-gnueabi/sysroot/lib/libc.so.6
argz_insert@GLIBC_2.4                             /home/tool/arm-hjimi-linux-gnueabi/arm-hjimi-linux-gnueabi/sysroot/lib/libc.so.6
argz_next                                         /home/tool/arm-hjimi-linux-gnueabi/arm-hjimi-linux-gnueabi/sysroot/lib/libc.so.6
argz_next@@GLIBC_2.4                              /home/tool/arm-hjimi-linux-gnueabi/arm-hjimi-linux-gnueabi/sysroot/lib/libc.so.6
argz_next@GLIBC_2.4                               /home/tool/arm-hjimi-linux-gnueabi/arm-hjimi-linux-gnueabi/sysroot/lib/libc.so.6
argz_replace                                      /home/tool/arm-hjimi-linux-gnueabi/arm-hjimi-linux-gnueabi/sysroot/lib/libc.so.6
argz_replace@@GLIBC_2.4                           /home/tool/arm-hjimi-linux-gnueabi/arm-hjimi-linux-gnueabi/sysroot/lib/libc.so.6
argz_replace@GLIBC_2.4                            /home/tool/arm-hjimi-linux-gnueabi/arm-hjimi-linux-gnueabi/sysroot/lib/libc.so.6
argz_stringify                                    /home/tool/arm-hjimi-linux-gnueabi/arm-hjimi-linux-gnueabi/sysroot/lib/libc.so.6
argz_stringify@@GLIBC_2.4                         /home/tool/arm-hjimi-linux-gnueabi/arm-hjimi-linux-gnueabi/sysroot/lib/libc.so.6
argz_stringify@GLIBC_2.4                          /home/tool/arm-hjimi-linux-gnueabi/arm-hjimi-linux-gnueabi/sysroot/lib/libc.so.6
asctime_r                                         /home/tool/arm-hjimi-linux-gnueabi/arm-hjimi-linux-gnueabi/sysroot/lib/libc.so.6
asctime_r@@GLIBC_2.4                              /home/tool/arm-hjimi-linux-gnueabi/arm-hjimi-linux-gnueabi/sysroot/lib/libc.so.6
asctime_r@GLIBC_2.4                               /home/tool/arm-hjimi-linux-gnueabi/arm-hjimi-linux-gnueabi/sysroot/lib/libc.so.6
asprintf                                          /home/tool/arm-hjimi-linux-gnueabi/arm-hjimi-linux-gnueabi/sysroot/lib/libc.so.6
asprintf@@GLIBC_2.4                               /home/tool/arm-hjimi-linux-gnueabi/arm-hjimi-linux-gnueabi/sysroot/lib/libc.so.6
asprintf@GLIBC_2.4                                /home/tool/arm-hjimi-linux-gnueabi/arm-hjimi-linux-gnueabi/sysroot/lib/libc.so.6
atoi                                              output/tools/stdlib/string.o
atoi@@GLIBC_2.4                                   /home/tool/arm-hjimi-linux-gnueabi/arm-hjimi-linux-gnueabi/sysroot/lib/libc.so.6
atoi@GLIBC_2.4                                    /home/tool/arm-hjimi-linux-gnueabi/arm-hjimi-linux-gnueabi/sysroot/lib/libc.so.6
backtrace                                         /home/tool/arm-hjimi-linux-gnueabi/arm-hjimi-linux-gnueabi/sysroot/lib/libc.so.6
backtrace@@GLIBC_2.4                              /home/tool/arm-hjimi-linux-gnueabi/arm-hjimi-linux-gnueabi/sysroot/lib/libc.so.6
backtrace@GLIBC_2.4                               /home/tool/arm-hjimi-linux-gnueabi/arm-hjimi-linux-gnueabi/sysroot/lib/libc.so.6
backtrace_symbols                                 /home/tool/arm-hjimi-linux-gnueabi/arm-hjimi-linux-gnueabi/sysroot/lib/libc.so.6
backtrace_symbols@@GLIBC_2.4                      /home/tool/arm-hjimi-linux-gnueabi/arm-hjimi-linux-gnueabi/sysroot/lib/libc.so.6
backtrace_symbols@GLIBC_2.4                       /home/tool/arm-hjimi-linux-gnueabi/arm-hjimi-linux-gnueabi/sysroot/lib/libc.so.6
backtrace_symbols_fd                              /home/tool/arm-hjimi-linux-gnueabi/arm-hjimi-linux-gnueabi/sysroot/lib/libc.so.6
backtrace_symbols_fd@@GLIBC_2.4                   /home/tool/arm-hjimi-linux-gnueabi/arm-hjimi-linux-gnueabi/sysroot/lib/libc.so.6
backtrace_symbols_fd@GLIBC_2.4                    /home/tool/arm-hjimi-linux-gnueabi/arm-hjimi-linux-gnueabi/sysroot/lib/libc.so.6
basename                                          /home/tool/arm-hjimi-linux-gnueabi/arm-hjimi-linux-gnueabi/sysroot/lib/libc.so.6
basename@@GLIBC_2.4                               /home/tool/arm-hjimi-linux-gnueabi/arm-hjimi-linux-gnueabi/sysroot/lib/libc.so.6
basename@GLIBC_2.4                                /home/tool/arm-hjimi-linux-gnueabi/arm-hjimi-linux-gnueabi/sysroot/lib/libc.so.6
bcmp                                              /home/tool/arm-hjimi-linux-gnueabi/arm-hjimi-linux-gnueabi/sysroot/lib/libc.so.6
bcmp@@GLIBC_2.4                                   /home/tool/arm-hjimi-linux-gnueabi/arm-hjimi-linux-gnueabi/sysroot/lib/libc.so.6
bcmp@GLIBC_2.4                                    /home/tool/arm-hjimi-linux-gnueabi/arm-hjimi-linux-gnueabi/sysroot/lib/libc.so.6
bind                                              /home/tool/arm-hjimi-linux-gnueabi/arm-hjimi-linux-gnueabi/sysroot/lib/libc.so.6
bind@@GLIBC_2.4                                   /home/tool/arm-hjimi-linux-gnueabi/arm-hjimi-linux-gnueabi/sysroot/lib/libc.so.6
bind@GLIBC_2.4                                    /home/tool/arm-hjimi-linux-gnueabi/arm-hjimi-linux-gnueabi/sysroot/lib/libc.so.6
bind_textdomain_codeset                           /home/tool/arm-hjimi-linux-gnueabi/arm-hjimi-linux-gnueabi/sysroot/lib/libc.so.6
bind_textdomain_codeset@@GLIBC_2.4                /home/tool/arm-hjimi-linux-gnueabi/arm-hjimi-linux-gnueabi/sysroot/lib/libc.so.6
bind_textdomain_codeset@GLIBC_2.4                 /home/tool/arm-hjimi-linux-gnueabi/arm-hjimi-linux-gnueabi/sysroot/lib/libc.so.6
bindtextdomain                                    /home/tool/arm-hjimi-linux-gnueabi/arm-hjimi-linux-gnueabi/sysroot/lib/libc.so.6
bindtextdomain@@GLIBC_2.4                         /home/tool/arm-hjimi-linux-gnueabi/arm-hjimi-linux-gnueabi/sysroot/lib/libc.so.6
bindtextdomain@GLIBC_2.4                          /home/tool/arm-hjimi-linux-gnueabi/arm-hjimi-linux-gnueabi/sysroot/lib/libc.so.6
bm_buf_addusers                                   output/drivers/buf_man/imi_bm.o
                                                  output/app/dpu/dputask.o
                                                  output/app/dpu/dpu_hal.o
bm_buf_get                                        output/drivers/buf_man/imi_bm.o
                                                  output/app/dpu/dputask.o
                                                  output/app/dpu/dpu_hal.o
bm_buf_put                                        output/drivers/buf_man/imi_bm.o
                                                  output/app/dpu/msg_module.o
                                                  output/app/dpu/dputask.o
                                                  output/app/dpu/dpu_hal.o
bm_bufman_init                                    output/drivers/buf_man/imi_bm.o
                                                  output/app/dpu/dputask.o
bm_bufpool_info_dump                              output/drivers/buf_man/imi_bm.o
bm_bufpool_init                                   output/drivers/buf_man/imi_bm.o
board_init                                        output/boards/2280_ddr/board_2280.o
brk                                               /home/tool/arm-hjimi-linux-gnueabi/arm-hjimi-linux-gnueabi/sysroot/lib/libc.so.6
brk@@GLIBC_2.4                                    /home/tool/arm-hjimi-linux-gnueabi/arm-hjimi-linux-gnueabi/sysroot/lib/libc.so.6
brk@GLIBC_2.4                                     /home/tool/arm-hjimi-linux-gnueabi/arm-hjimi-linux-gnueabi/sysroot/lib/libc.so.6
bsd_signal                                        /home/tool/arm-hjimi-linux-gnueabi/arm-hjimi-linux-gnueabi/sysroot/lib/libc.so.6
bsd_signal@@GLIBC_2.4                             /home/tool/arm-hjimi-linux-gnueabi/arm-hjimi-linux-gnueabi/sysroot/lib/libc.so.6
bsd_signal@GLIBC_2.4                              /home/tool/arm-hjimi-linux-gnueabi/arm-hjimi-linux-gnueabi/sysroot/lib/libc.so.6
btowc                                             /home/tool/arm-hjimi-linux-gnueabi/arm-hjimi-linux-gnueabi/sysroot/lib/libc.so.6
btowc@@GLIBC_2.4                                  /home/tool/arm-hjimi-linux-gnueabi/arm-hjimi-linux-gnueabi/sysroot/lib/libc.so.6
btowc@GLIBC_2.4                                   /home/tool/arm-hjimi-linux-gnueabi/arm-hjimi-linux-gnueabi/sysroot/lib/libc.so.6
bzero                                             /home/tool/arm-hjimi-linux-gnueabi/arm-hjimi-linux-gnueabi/sysroot/lib/libc.so.6
bzero@@GLIBC_2.4                                  /home/tool/arm-hjimi-linux-gnueabi/arm-hjimi-linux-gnueabi/sysroot/lib/libc.so.6
bzero@GLIBC_2.4                                   /home/tool/arm-hjimi-linux-gnueabi/arm-hjimi-linux-gnueabi/sysroot/lib/libc.so.6
c32rtomb                                          /home/tool/arm-hjimi-linux-gnueabi/arm-hjimi-linux-gnueabi/sysroot/lib/libc.so.6
c32rtomb@@GLIBC_2.16                              /home/tool/arm-hjimi-linux-gnueabi/arm-hjimi-linux-gnueabi/sysroot/lib/libc.so.6
c32rtomb@GLIBC_2.16                               /home/tool/arm-hjimi-linux-gnueabi/arm-hjimi-linux-gnueabi/sysroot/lib/libc.so.6
cadence_qspi_command_read                         output/drivers/qspi/candence_qspi.o
                                                  output/drivers/qspi/nor/spi_nor.o
                                                  output/drivers/qspi/nand/spi_nand.o
cadence_qspi_command_write                        output/drivers/qspi/candence_qspi.o
                                                  output/drivers/qspi/nor/spi_nor.o
                                                  output/drivers/qspi/nand/spi_nand.o
cadence_qspi_controller_init                      output/drivers/qspi/candence_qspi.o
cadence_qspi_indirect_read_execute                output/drivers/qspi/candence_qspi.o
                                                  output/drivers/qspi/nor/spi_nor.o
                                                  output/drivers/qspi/nand/spi_nand.o
cadence_qspi_indirect_read_setup                  output/drivers/qspi/candence_qspi.o
                                                  output/drivers/qspi/nor/spi_nor.o
                                                  output/drivers/qspi/nand/spi_nand.o
cadence_qspi_indirect_write_execute               output/drivers/qspi/candence_qspi.o
                                                  output/drivers/qspi/nor/spi_nor.o
                                                  output/drivers/qspi/nand/spi_nand.o
cadence_qspi_indirect_write_setup                 output/drivers/qspi/candence_qspi.o
                                                  output/drivers/qspi/nor/spi_nor.o
                                                  output/drivers/qspi/nand/spi_nand.o
cadence_qspi_setup_dma                            output/drivers/qspi/candence_qspi.o
                                                  output/drivers/qspi/nor/spi_nor.o
                                                  output/drivers/qspi/nand/spi_nand.o
calloc                                            /home/tool/arm-hjimi-linux-gnueabi/arm-hjimi-linux-gnueabi/sysroot/lib/libc.so.6
calloc@@GLIBC_2.4                                 /home/tool/arm-hjimi-linux-gnueabi/arm-hjimi-linux-gnueabi/sysroot/lib/libc.so.6
                                                  /home/tool/arm-hjimi-linux-gnueabi/arm-hjimi-linux-gnueabi/sysroot/lib/ld-linux.so.3
calloc@GLIBC_2.4                                  /home/tool/arm-hjimi-linux-gnueabi/arm-hjimi-linux-gnueabi/sysroot/lib/libc.so.6
candence_clk_delay_config                         output/drivers/qspi/candence_qspi.o
                                                  output/drivers/qspi/nand_test.o
                                                  output/drivers/qspi/nor_test.o
candence_qspi_controller_setup                    output/drivers/qspi/candence_qspi.o
                                                  output/drivers/qspi/nor/spi_nor.o
                                                  output/drivers/qspi/nand/spi_nand.o
candence_qspi_cs_close                            output/drivers/qspi/candence_qspi.o
                                                  output/drivers/qspi/nor/spi_nor.o
                                                  output/drivers/qspi/nand/spi_nand.o
candence_qspi_cs_open                             output/drivers/qspi/candence_qspi.o
                                                  output/drivers/qspi/nor/spi_nor.o
                                                  output/drivers/qspi/nand/spi_nand.o
canonicalize_file_name                            /home/tool/arm-hjimi-linux-gnueabi/arm-hjimi-linux-gnueabi/sysroot/lib/libc.so.6
canonicalize_file_name@@GLIBC_2.4                 /home/tool/arm-hjimi-linux-gnueabi/arm-hjimi-linux-gnueabi/sysroot/lib/libc.so.6
canonicalize_file_name@GLIBC_2.4                  /home/tool/arm-hjimi-linux-gnueabi/arm-hjimi-linux-gnueabi/sysroot/lib/libc.so.6
cfg_pll0                                          ./drivers/ddr/libddr_64.a(dcu.o)
cfg_pll1                                          ./drivers/ddr/libddr_64.a(dcu.o)
cfg_pll2                                          ./drivers/ddr/libddr_64.a(dcu.o)
chdir                                             /home/tool/arm-hjimi-linux-gnueabi/arm-hjimi-linux-gnueabi/sysroot/lib/libc.so.6
chdir@@GLIBC_2.4                                  /home/tool/arm-hjimi-linux-gnueabi/arm-hjimi-linux-gnueabi/sysroot/lib/libc.so.6
chdir@GLIBC_2.4                                   /home/tool/arm-hjimi-linux-gnueabi/arm-hjimi-linux-gnueabi/sysroot/lib/libc.so.6
chmod                                             /home/tool/arm-hjimi-linux-gnueabi/arm-hjimi-linux-gnueabi/sysroot/lib/libc.so.6
chmod@@GLIBC_2.4                                  /home/tool/arm-hjimi-linux-gnueabi/arm-hjimi-linux-gnueabi/sysroot/lib/libc.so.6
chmod@GLIBC_2.4                                   /home/tool/arm-hjimi-linux-gnueabi/arm-hjimi-linux-gnueabi/sysroot/lib/libc.so.6
chown                                             /home/tool/arm-hjimi-linux-gnueabi/arm-hjimi-linux-gnueabi/sysroot/lib/libc.so.6
chown@@GLIBC_2.4                                  /home/tool/arm-hjimi-linux-gnueabi/arm-hjimi-linux-gnueabi/sysroot/lib/libc.so.6
chown@GLIBC_2.4                                   /home/tool/arm-hjimi-linux-gnueabi/arm-hjimi-linux-gnueabi/sysroot/lib/libc.so.6
clearenv                                          /home/tool/arm-hjimi-linux-gnueabi/arm-hjimi-linux-gnueabi/sysroot/lib/libc.so.6
clearenv@@GLIBC_2.4                               /home/tool/arm-hjimi-linux-gnueabi/arm-hjimi-linux-gnueabi/sysroot/lib/libc.so.6
clearenv@GLIBC_2.4                                /home/tool/arm-hjimi-linux-gnueabi/arm-hjimi-linux-gnueabi/sysroot/lib/libc.so.6
cli_output                                        output/tools/FreeRTOS_CLI/imi_console.o
clock_dev_init                                    output/drivers/clock/clock_2280.o
                                                  output/main/main.o
clock_enable                                      output/drivers/clock/clock_2280.o
                                                  output/drivers/rvl/rvl.o
                                                  output/drivers/qspi/nor/spi_nor.o
                                                  output/drivers/qspi/nand/spi_nand.o
                                                  output/drivers/mailbox/mailbox.o
                                                  output/drivers/gpio/gpio.o
                                                  output/drivers/dma/pl330.o
                                                  output/drivers/dma/dmaengine.o
clock_getcpuclockid                               /home/tool/arm-hjimi-linux-gnueabi/arm-hjimi-linux-gnueabi/sysroot/lib/libc.so.6
clock_getcpuclockid@@GLIBC_2.17                   /home/tool/arm-hjimi-linux-gnueabi/arm-hjimi-linux-gnueabi/sysroot/lib/libc.so.6
clock_getcpuclockid@GLIBC_2.17                    /home/tool/arm-hjimi-linux-gnueabi/arm-hjimi-linux-gnueabi/sysroot/lib/libc.so.6
clock_getres                                      /home/tool/arm-hjimi-linux-gnueabi/arm-hjimi-linux-gnueabi/sysroot/lib/libc.so.6
clock_getres@@GLIBC_2.17                          /home/tool/arm-hjimi-linux-gnueabi/arm-hjimi-linux-gnueabi/sysroot/lib/libc.so.6
clock_getres@GLIBC_2.17                           /home/tool/arm-hjimi-linux-gnueabi/arm-hjimi-linux-gnueabi/sysroot/lib/libc.so.6
clock_gettime                                     /home/tool/arm-hjimi-linux-gnueabi/arm-hjimi-linux-gnueabi/sysroot/lib/libc.so.6
clock_gettime@@GLIBC_2.17                         /home/tool/arm-hjimi-linux-gnueabi/arm-hjimi-linux-gnueabi/sysroot/lib/libc.so.6
clock_gettime@GLIBC_2.17                          /home/tool/arm-hjimi-linux-gnueabi/arm-hjimi-linux-gnueabi/sysroot/lib/libc.so.6
clock_module_set                                  output/drivers/clock/clock_2280.o
clock_nanosleep                                   /home/tool/arm-hjimi-linux-gnueabi/arm-hjimi-linux-gnueabi/sysroot/lib/libc.so.6
clock_nanosleep@@GLIBC_2.17                       /home/tool/arm-hjimi-linux-gnueabi/arm-hjimi-linux-gnueabi/sysroot/lib/libc.so.6
clock_nanosleep@GLIBC_2.17                        /home/tool/arm-hjimi-linux-gnueabi/arm-hjimi-linux-gnueabi/sysroot/lib/libc.so.6
clock_set                                         output/drivers/clock/clock_2280.o
clock_settime                                     /home/tool/arm-hjimi-linux-gnueabi/arm-hjimi-linux-gnueabi/sysroot/lib/libc.so.6
clock_settime@@GLIBC_2.17                         /home/tool/arm-hjimi-linux-gnueabi/arm-hjimi-linux-gnueabi/sysroot/lib/libc.so.6
clock_settime@GLIBC_2.17                          /home/tool/arm-hjimi-linux-gnueabi/arm-hjimi-linux-gnueabi/sysroot/lib/libc.so.6
clone                                             /home/tool/arm-hjimi-linux-gnueabi/arm-hjimi-linux-gnueabi/sysroot/lib/libc.so.6
clone@@GLIBC_2.4                                  /home/tool/arm-hjimi-linux-gnueabi/arm-hjimi-linux-gnueabi/sysroot/lib/libc.so.6
clone@GLIBC_2.4                                   /home/tool/arm-hjimi-linux-gnueabi/arm-hjimi-linux-gnueabi/sysroot/lib/libc.so.6
close                                             /home/tool/arm-hjimi-linux-gnueabi/arm-hjimi-linux-gnueabi/sysroot/lib/libc.so.6
close@@GLIBC_2.4                                  /home/tool/arm-hjimi-linux-gnueabi/arm-hjimi-linux-gnueabi/sysroot/lib/libc.so.6
close@GLIBC_2.4                                   /home/tool/arm-hjimi-linux-gnueabi/arm-hjimi-linux-gnueabi/sysroot/lib/libc.so.6
closedir                                          /home/tool/arm-hjimi-linux-gnueabi/arm-hjimi-linux-gnueabi/sysroot/lib/libc.so.6
closedir@@GLIBC_2.4                               /home/tool/arm-hjimi-linux-gnueabi/arm-hjimi-linux-gnueabi/sysroot/lib/libc.so.6
closedir@GLIBC_2.4                                /home/tool/arm-hjimi-linux-gnueabi/arm-hjimi-linux-gnueabi/sysroot/lib/libc.so.6
composite_dev_cleanup                             output/drivers/usb/gadget/composite.o
composite_dev_prepare                             output/drivers/usb/gadget/composite.o
composite_disconnect                              output/drivers/usb/gadget/composite.o
composite_os_desc_req_prepare                     output/drivers/usb/gadget/composite.o
composite_resume                                  output/drivers/usb/gadget/composite.o
composite_setup                                   output/drivers/usb/gadget/composite.o
composite_suspend                                 output/drivers/usb/gadget/composite.o
config                                            ./drivers/ddr/libddr_64.a(dcu.o)
config_ep_by_speed                                output/drivers/usb/gadget/composite.o
                                                  output/drivers/usb/gadget/function/f_imi.o
connect                                           /home/tool/arm-hjimi-linux-gnueabi/arm-hjimi-linux-gnueabi/sysroot/lib/libc.so.6
connect@@GLIBC_2.4                                /home/tool/arm-hjimi-linux-gnueabi/arm-hjimi-linux-gnueabi/sysroot/lib/libc.so.6
connect@GLIBC_2.4                                 /home/tool/arm-hjimi-linux-gnueabi/arm-hjimi-linux-gnueabi/sysroot/lib/libc.so.6
cookie_qspi                                       output/drivers/qspi/candence_qspi.o
copysign                                          /home/tool/arm-hjimi-linux-gnueabi/arm-hjimi-linux-gnueabi/sysroot/lib/libc.so.6
copysign@@GLIBC_2.4                               /home/tool/arm-hjimi-linux-gnueabi/arm-hjimi-linux-gnueabi/sysroot/lib/libc.so.6
copysign@GLIBC_2.4                                /home/tool/arm-hjimi-linux-gnueabi/arm-hjimi-linux-gnueabi/sysroot/lib/libc.so.6
copysignf                                         /home/tool/arm-hjimi-linux-gnueabi/arm-hjimi-linux-gnueabi/sysroot/lib/libc.so.6
copysignf@@GLIBC_2.4                              /home/tool/arm-hjimi-linux-gnueabi/arm-hjimi-linux-gnueabi/sysroot/lib/libc.so.6
copysignf@GLIBC_2.4                               /home/tool/arm-hjimi-linux-gnueabi/arm-hjimi-linux-gnueabi/sysroot/lib/libc.so.6
copysignl                                         /home/tool/arm-hjimi-linux-gnueabi/arm-hjimi-linux-gnueabi/sysroot/lib/libc.so.6
copysignl@@GLIBC_2.4                              /home/tool/arm-hjimi-linux-gnueabi/arm-hjimi-linux-gnueabi/sysroot/lib/libc.so.6
copysignl@GLIBC_2.4                               /home/tool/arm-hjimi-linux-gnueabi/arm-hjimi-linux-gnueabi/sysroot/lib/libc.so.6
cpu_flag                                          output/drivers/irq/vic_int.o
cqspi_dma_tx_callback                             output/drivers/qspi/candence_qspi.o
creat                                             /home/tool/arm-hjimi-linux-gnueabi/arm-hjimi-linux-gnueabi/sysroot/lib/libc.so.6
creat64                                           /home/tool/arm-hjimi-linux-gnueabi/arm-hjimi-linux-gnueabi/sysroot/lib/libc.so.6
creat64@@GLIBC_2.4                                /home/tool/arm-hjimi-linux-gnueabi/arm-hjimi-linux-gnueabi/sysroot/lib/libc.so.6
creat64@GLIBC_2.4                                 /home/tool/arm-hjimi-linux-gnueabi/arm-hjimi-linux-gnueabi/sysroot/lib/libc.so.6
creat@@GLIBC_2.4                                  /home/tool/arm-hjimi-linux-gnueabi/arm-hjimi-linux-gnueabi/sysroot/lib/libc.so.6
creat@GLIBC_2.4                                   /home/tool/arm-hjimi-linux-gnueabi/arm-hjimi-linux-gnueabi/sysroot/lib/libc.so.6
csi2_remove                                       output/drivers/csi_rx/csi_rx_2280.o
csi_dev_init                                      output/drivers/csi_rx/csi_rx_2280.o
daylight                                          /home/tool/arm-hjimi-linux-gnueabi/arm-hjimi-linux-gnueabi/sysroot/lib/libc.so.6
daylight@@GLIBC_2.4                               /home/tool/arm-hjimi-linux-gnueabi/arm-hjimi-linux-gnueabi/sysroot/lib/libc.so.6
daylight@GLIBC_2.4                                /home/tool/arm-hjimi-linux-gnueabi/arm-hjimi-linux-gnueabi/sysroot/lib/libc.so.6
dbg_lvl                                           output/drivers/dpu_2280/dpu_dev.o
                                                  output/drivers/dpu_2280/debug.o
dcache_disable                                    output/drivers/soc/cache-cp15.o
dcache_enable                                     output/drivers/soc/cache-cp15.o
                                                  output/main/main.o
dcache_status                                     output/drivers/soc/cache-cp15.o
dcgettext                                         /home/tool/arm-hjimi-linux-gnueabi/arm-hjimi-linux-gnueabi/sysroot/lib/libc.so.6
dcgettext@@GLIBC_2.4                              /home/tool/arm-hjimi-linux-gnueabi/arm-hjimi-linux-gnueabi/sysroot/lib/libc.so.6
dcgettext@GLIBC_2.4                               /home/tool/arm-hjimi-linux-gnueabi/arm-hjimi-linux-gnueabi/sysroot/lib/libc.so.6
dcngettext                                        /home/tool/arm-hjimi-linux-gnueabi/arm-hjimi-linux-gnueabi/sysroot/lib/libc.so.6
dcngettext@@GLIBC_2.4                             /home/tool/arm-hjimi-linux-gnueabi/arm-hjimi-linux-gnueabi/sysroot/lib/libc.so.6
dcngettext@GLIBC_2.4                              /home/tool/arm-hjimi-linux-gnueabi/arm-hjimi-linux-gnueabi/sysroot/lib/libc.so.6
ddr_init                                          output/drivers/irq/chip.o
ddr_init_fpga                                     output/drivers/irq/chip.o
ddr_reset                                         ./drivers/ddr/libddr_64.a(dcu.o)
delay                                             ./drivers/ddr/libddr_64.a(dcu.o)
delay_ns                                          ./drivers/ddr/libddr_64.a(dcu.o)
delayms                                           output/drivers/delay/delay.o
delayus                                           output/drivers/delay/delay.o
                                                  output/drivers/qspi/nor/spi_nor.o
                                                  output/drivers/qspi/nand/spi_nand.o
depth_frame_dispatch                              output/app/dpu/dputask.o
depth_irq_process                                 output/drivers/dpu_2280/dpu_dev.o
dev_list                                          output/drivers/timers/timer_imi1680.o
                                                  output/drivers/rvl/rvl.o
                                                  output/drivers/mailbox/mailbox.o
                                                  output/drivers/mailbox/imi_mailbox.o
                                                  output/drivers/gpio/gpio.o
                                                  output/drivers/dma/pl330.o
                                                  output/drivers/dma/dmaengine.o
                                                  output/drivers/clock/clock_2280.o
dgettext                                          /home/tool/arm-hjimi-linux-gnueabi/arm-hjimi-linux-gnueabi/sysroot/lib/libc.so.6
dgettext@@GLIBC_2.4                               /home/tool/arm-hjimi-linux-gnueabi/arm-hjimi-linux-gnueabi/sysroot/lib/libc.so.6
dgettext@GLIBC_2.4                                /home/tool/arm-hjimi-linux-gnueabi/arm-hjimi-linux-gnueabi/sysroot/lib/libc.so.6
dl_iterate_phdr                                   /home/tool/arm-hjimi-linux-gnueabi/arm-hjimi-linux-gnueabi/sysroot/lib/libc.so.6
dl_iterate_phdr@@GLIBC_2.4                        /home/tool/arm-hjimi-linux-gnueabi/arm-hjimi-linux-gnueabi/sysroot/lib/libc.so.6
dl_iterate_phdr@GLIBC_2.4                         /home/tool/arm-hjimi-linux-gnueabi/arm-hjimi-linux-gnueabi/sysroot/lib/libc.so.6
dma_async_device_register                         output/drivers/dma/dmaengine.o
                                                  output/drivers/dma/pl330.o
dma_async_tx_descriptor_init                      output/drivers/dma/dmaengine.o
                                                  output/drivers/dma/pl330.o
dma_buf_alloc                                     output/drivers/soc/dma_buf.o
                                                  output/drivers/dma/pl330.o
dma_engine_probe                                  output/drivers/dma/dmaengine.o
dma_get_slave_caps                                output/drivers/dma/dmaengine.o
dma_get_slave_channel                             output/drivers/dma/dmaengine.o
                                                  output/drivers/qspi/candence_qspi.o
dma_issue_pending_all                             output/drivers/dma/dmaengine.o
dma_release_channel                               output/drivers/dma/dmaengine.o
                                                  output/drivers/qspi/candence_qspi.o
dma_request_chan                                  output/drivers/dma/dmaengine.o
                                                  output/drivers/qspi/candence_qspi.o
dma_sync_wait                                     output/drivers/dma/dmaengine.o
dma_wait_for_async_tx                             output/drivers/dma/dmaengine.o
dngettext                                         /home/tool/arm-hjimi-linux-gnueabi/arm-hjimi-linux-gnueabi/sysroot/lib/libc.so.6
dngettext@@GLIBC_2.4                              /home/tool/arm-hjimi-linux-gnueabi/arm-hjimi-linux-gnueabi/sysroot/lib/libc.so.6
dngettext@GLIBC_2.4                               /home/tool/arm-hjimi-linux-gnueabi/arm-hjimi-linux-gnueabi/sysroot/lib/libc.so.6
do_data_abort                                     output/drivers/irq/interrupt.o
                                                  output/boards/2280_ddr/start/start.o
do_fiq                                            output/drivers/irq/interrupt.o
                                                  output/boards/2280_ddr/start/start.o
do_irq                                            output/drivers/irq/interrupt.o
                                                  output/boards/2280_ddr/start/start.o
do_not_used                                       output/drivers/irq/interrupt.o
                                                  output/boards/2280_ddr/start/start.o
do_prefetch_abort                                 output/drivers/irq/interrupt.o
                                                  output/boards/2280_ddr/start/start.o
do_software_interrupt                             output/drivers/irq/interrupt.o
do_undefined_instruction                          output/drivers/irq/interrupt.o
                                                  output/boards/2280_ddr/start/start.o
dot_dev                                           output/drivers/vcsel_driver/lm3644.o
dot_driver_register                               output/drivers/vcsel_driver/lm3644.o
dpc                                               output/app/dpu/dputask.o
dpu_2280_ops                                      output/drivers/dpu_2280/dpu_dev.o
dpu_2280_probe                                    output/drivers/dpu_2280/dpu_dev.o
dpu_depth_isr_cb                                  output/app/dpu/dputask.o
dpu_dma_enable                                    output/drivers/dpu_2280/dpu.o
                                                  output/app/dpu/dputask.o
dpu_get_dma_buf                                   output/drivers/dpu_2280/dpu.o
                                                  output/app/dpu/dpu_hal.o
dpu_get_handle                                    output/drivers/dpu_2280/dpu.o
dpu_get_para                                      output/drivers/dpu_2280/dpu.o
dpu_get_reg                                       output/drivers/dpu_2280/dpu.o
dpu_hal_buffer_dequeue                            output/app/dpu/dpu_hal.o
dpu_hal_buffer_dispatch                           output/app/dpu/dpu_hal.o
dpu_hal_irrx_para                                 output/app/dpu/dpu_hal.o
dpu_hal_vcsel_para                                output/app/dpu/dpu_hal.o
dpu_hw_init                                       output/app/dpu/dputask.o
dpu_init_seq                                      output/app/dpu/dpu_hal.o
dpu_ir_isr_cb                                     output/app/dpu/dputask.o
dpu_op_cmd_parse                                  output/app/dpu/dpu_hal.o
                                                  output/app/dpu/dputask.o
dpu_parameter_parse                               output/app/dpu/dpu_hal.o
                                                  output/app/dpu/dputask.o
dpu_power                                         output/drivers/dpu_2280/dpu.o
                                                  output/app/dpu/dputask.o
dpu_ram_frame                                     output/app/dpu/dpu_hal.o
dpu_register                                      output/drivers/dpu_2280/dpu.o
                                                  output/drivers/dpu_2280/dpu_dev.o
dpu_register_depth                                output/drivers/dpu_2280/dpu.o
                                                  output/app/dpu/dputask.o
dpu_register_irrx                                 output/drivers/irrx/irrx.o
                                                  output/app/dpu/dputask.o
dpu_register_isr_cb                               output/drivers/dpu_2280/dpu.o
                                                  output/app/dpu/dputask.o
dpu_register_trigger                              output/drivers/trigger/trigger.o
                                                  output/app/dpu/dputask.o
dpu_register_vcsel                                output/drivers/vcsel_driver/vcsel.o
                                                  output/app/dpu/dputask.o
dpu_reset                                         output/drivers/dpu_2280/dpu.o
                                                  output/app/dpu/dputask.o
dpu_set_para                                      output/drivers/dpu_2280/dpu.o
                                                  output/app/dpu/dputask.o
dpu_set_reg                                       output/drivers/dpu_2280/dpu.o
dpu_start_sw_trigger                              output/app/dpu/dputask.o
dpu_sys_init                                      output/drivers/dpu_2280/dpu.o
dpu_tick_generator                                output/app/dpu/dputask.o
dpu_update_dma_buf                                output/drivers/dpu_2280/dpu.o
                                                  output/app/dpu/dpu_hal.o
dpu_update_dma_size                               output/drivers/dpu_2280/dpu.o
dputask                                           output/app/dpu/dputask.o
dputask_handle                                    output/app/dpu/dputask.o
dump_dpu_setting                                  output/drivers/dpu_2280/debug.o
                                                  output/drivers/dpu_2280/dpu_dev.o
dup                                               /home/tool/arm-hjimi-linux-gnueabi/arm-hjimi-linux-gnueabi/sysroot/lib/libc.so.6
dup2                                              /home/tool/arm-hjimi-linux-gnueabi/arm-hjimi-linux-gnueabi/sysroot/lib/libc.so.6
dup2@@GLIBC_2.4                                   /home/tool/arm-hjimi-linux-gnueabi/arm-hjimi-linux-gnueabi/sysroot/lib/libc.so.6
dup2@GLIBC_2.4                                    /home/tool/arm-hjimi-linux-gnueabi/arm-hjimi-linux-gnueabi/sysroot/lib/libc.so.6
dup3                                              /home/tool/arm-hjimi-linux-gnueabi/arm-hjimi-linux-gnueabi/sysroot/lib/libc.so.6
dup3@@GLIBC_2.9                                   /home/tool/arm-hjimi-linux-gnueabi/arm-hjimi-linux-gnueabi/sysroot/lib/libc.so.6
dup3@GLIBC_2.9                                    /home/tool/arm-hjimi-linux-gnueabi/arm-hjimi-linux-gnueabi/sysroot/lib/libc.so.6
dup@@GLIBC_2.4                                    /home/tool/arm-hjimi-linux-gnueabi/arm-hjimi-linux-gnueabi/sysroot/lib/libc.so.6
dup@GLIBC_2.4                                     /home/tool/arm-hjimi-linux-gnueabi/arm-hjimi-linux-gnueabi/sysroot/lib/libc.so.6
duplocale                                         /home/tool/arm-hjimi-linux-gnueabi/arm-hjimi-linux-gnueabi/sysroot/lib/libc.so.6
duplocale@@GLIBC_2.4                              /home/tool/arm-hjimi-linux-gnueabi/arm-hjimi-linux-gnueabi/sysroot/lib/libc.so.6
duplocale@GLIBC_2.4                               /home/tool/arm-hjimi-linux-gnueabi/arm-hjimi-linux-gnueabi/sysroot/lib/libc.so.6
dw_i2c_plat_probe                                 output/drivers/i2c/i2c-designware-platdrv.o
dw_i2c_plat_remove                                output/drivers/i2c/i2c-designware-platdrv.o
dw_readl                                          output/drivers/i2c/i2c-designware-common.o
                                                  output/drivers/i2c/i2c-designware-slave.o
                                                  output/drivers/i2c/i2c-designware-master.o
dw_writel                                         output/drivers/i2c/i2c-designware-common.o
                                                  output/drivers/i2c/i2c-designware-slave.o
                                                  output/drivers/i2c/i2c-designware-master.o
                                                  output/drivers/i2c/i2c-designware-dma.o
dwc_ddrphy_apb_wr                                 ./drivers/ddr/libddr_64.a(dcu.o)
dwc_ddrphy_phyinit_userCustom_E_setDfiClk         ./drivers/ddr/libddr_64.a(dcu.o)
dwc_ddrphy_phyinit_userCustom_H_readMsgBlock      ./drivers/ddr/libddr_64.a(dcu.o)
dwc_ddrphy_phyinit_userCustom_customPostTrain     ./drivers/ddr/libddr_64.a(dcu.o)
eTaskGetState                                     output/rtos/tasks.o
eaccess                                           /home/tool/arm-hjimi-linux-gnueabi/arm-hjimi-linux-gnueabi/sysroot/lib/libc.so.6
eaccess@@GLIBC_2.4                                /home/tool/arm-hjimi-linux-gnueabi/arm-hjimi-linux-gnueabi/sysroot/lib/libc.so.6
eaccess@GLIBC_2.4                                 /home/tool/arm-hjimi-linux-gnueabi/arm-hjimi-linux-gnueabi/sysroot/lib/libc.so.6
ecvt_r                                            /home/tool/arm-hjimi-linux-gnueabi/arm-hjimi-linux-gnueabi/sysroot/lib/libc.so.6
ecvt_r@@GLIBC_2.4                                 /home/tool/arm-hjimi-linux-gnueabi/arm-hjimi-linux-gnueabi/sysroot/lib/libc.so.6
ecvt_r@GLIBC_2.4                                  /home/tool/arm-hjimi-linux-gnueabi/arm-hjimi-linux-gnueabi/sysroot/lib/libc.so.6
elog_assert_hook                                  output/tools/easylogger/src/elog.o
                                                  output/tools/easylogger/src/elog_utils.o
elog_assert_set_hook                              output/tools/easylogger/src/elog.o
elog_cpyln                                        output/tools/easylogger/src/elog_utils.o
elog_find_lvl                                     output/tools/easylogger/src/elog.o
elog_find_tag                                     output/tools/easylogger/src/elog.o
elog_get_filter_tag_lvl                           output/tools/easylogger/src/elog.o
elog_get_output_enabled                           output/tools/easylogger/src/elog.o
elog_get_text_color_enabled                       output/tools/easylogger/src/elog.o
elog_hexdump                                      output/tools/easylogger/src/elog.o
elog_init                                         output/tools/easylogger/src/elog.o
                                                  output/tools/easylogger/port/elog_init.o
elog_memcpy                                       output/tools/easylogger/src/elog_utils.o
elog_output                                       output/tools/easylogger/src/elog.o
                                                  output/tools/easylogger/src/elog_utils.o
                                                  output/tools/easylogger/port/elog_init.o
                                                  output/boards/2280_ddr/board_2280.o
                                                  output/drivers/vcsel_driver/lm3644.o
                                                  output/drivers/vcsel_driver/lm36011.o
                                                  output/drivers/vcsel_driver/vcsel.o
                                                  output/drivers/trigger/trigger.o
                                                  output/drivers/trigger/sensor_sync_2280.o
                                                  output/drivers/rvl/rvl.o
                                                  output/drivers/reset/reset.o
                                                  output/drivers/reset/reset_imi2280.o
                                                  output/drivers/qspi/candence_qspi.o
                                                  output/drivers/qspi/nor/spi_nor.o
                                                  output/drivers/qspi/nand/spi_nand.o
                                                  output/drivers/mailbox/imi_mailbox.o
                                                  output/drivers/irrx/ov928x.o
                                                  output/drivers/irrx/irrx.o
                                                  output/drivers/irq/vic_int.o
                                                  output/drivers/ipc/imi_ipc.o
                                                  output/drivers/i2c/i2c-designware-slave.o
                                                  output/drivers/i2c/i2c-designware-platdrv.o
                                                  output/drivers/i2c/i2c-designware-master.o
                                                  output/drivers/i2c/i2c-designware-dma.o
                                                  output/drivers/i2c/i2c-designware-common.o
                                                  output/drivers/dpu_2280/dpu_dev.o
                                                  output/drivers/dpu_2280/dpu.o
                                                  output/drivers/csi_rx/csi_rx_2280.o
                                                  output/drivers/buf_man/imi_bm.o
                                                  output/app/imi_app/vendor/vendor_misc.o
                                                  output/app/imi_app/vendor/vendor_device.o
                                                  output/app/imi_app/vendor/cmd_hal.o
                                                  output/app/imi_app/subsystem/vendor_sub_system.o
                                                  output/app/imi_app/subsystem/usb/vendor_usb.o
                                                  output/app/dpu/msg_module.o
                                                  output/app/dpu/dputask.o
                                                  output/app/dpu/dpu_hal.o
elog_output_lock                                  output/tools/easylogger/src/elog.o
elog_output_lock_enabled                          output/tools/easylogger/src/elog.o
elog_output_unlock                                output/tools/easylogger/src/elog.o
elog_port_get_p_info                              output/tools/easylogger/port/elog_port.o
                                                  output/tools/easylogger/src/elog.o
elog_port_get_t_info                              output/tools/easylogger/port/elog_port.o
                                                  output/tools/easylogger/src/elog.o
elog_port_get_time                                output/tools/easylogger/port/elog_port.o
                                                  output/tools/easylogger/src/elog.o
elog_port_init                                    output/tools/easylogger/port/elog_port.o
                                                  output/tools/easylogger/src/elog.o
elog_port_output                                  output/tools/easylogger/port/elog_port.o
                                                  output/tools/easylogger/src/elog.o
elog_port_output_lock                             output/tools/easylogger/port/elog_port.o
                                                  output/tools/easylogger/src/elog.o
elog_port_output_unlock                           output/tools/easylogger/port/elog_port.o
                                                  output/tools/easylogger/src/elog.o
elog_raw                                          output/tools/easylogger/src/elog.o
elog_set_filter                                   output/tools/easylogger/src/elog.o
elog_set_filter_kw                                output/tools/easylogger/src/elog.o
elog_set_filter_lvl                               output/tools/easylogger/src/elog.o
elog_set_filter_tag                               output/tools/easylogger/src/elog.o
elog_set_filter_tag_lvl                           output/tools/easylogger/src/elog.o
elog_set_fmt                                      output/tools/easylogger/src/elog.o
                                                  output/tools/easylogger/port/elog_init.o
elog_set_output_enabled                           output/tools/easylogger/src/elog.o
elog_set_text_color_enabled                       output/tools/easylogger/src/elog.o
elog_start                                        output/tools/easylogger/src/elog.o
                                                  output/tools/easylogger/port/elog_init.o
elog_strcpy                                       output/tools/easylogger/src/elog_utils.o
                                                  output/tools/easylogger/src/elog.o
endmntent                                         /home/tool/arm-hjimi-linux-gnueabi/arm-hjimi-linux-gnueabi/sysroot/lib/libc.so.6
endmntent@@GLIBC_2.4                              /home/tool/arm-hjimi-linux-gnueabi/arm-hjimi-linux-gnueabi/sysroot/lib/libc.so.6
endmntent@GLIBC_2.4                               /home/tool/arm-hjimi-linux-gnueabi/arm-hjimi-linux-gnueabi/sysroot/lib/libc.so.6
endttyent                                         /home/tool/arm-hjimi-linux-gnueabi/arm-hjimi-linux-gnueabi/sysroot/lib/libc.so.6
endttyent@@GLIBC_2.4                              /home/tool/arm-hjimi-linux-gnueabi/arm-hjimi-linux-gnueabi/sysroot/lib/libc.so.6
endttyent@GLIBC_2.4                               /home/tool/arm-hjimi-linux-gnueabi/arm-hjimi-linux-gnueabi/sysroot/lib/libc.so.6
endutent                                          /home/tool/arm-hjimi-linux-gnueabi/arm-hjimi-linux-gnueabi/sysroot/lib/libc.so.6
endutent@@GLIBC_2.4                               /home/tool/arm-hjimi-linux-gnueabi/arm-hjimi-linux-gnueabi/sysroot/lib/libc.so.6
endutent@GLIBC_2.4                                /home/tool/arm-hjimi-linux-gnueabi/arm-hjimi-linux-gnueabi/sysroot/lib/libc.so.6
environ                                           /home/tool/arm-hjimi-linux-gnueabi/arm-hjimi-linux-gnueabi/sysroot/lib/libc.so.6
environ@@GLIBC_2.4                                /home/tool/arm-hjimi-linux-gnueabi/arm-hjimi-linux-gnueabi/sysroot/lib/libc.so.6
environ@GLIBC_2.4                                 /home/tool/arm-hjimi-linux-gnueabi/arm-hjimi-linux-gnueabi/sysroot/lib/libc.so.6
erand48_r                                         /home/tool/arm-hjimi-linux-gnueabi/arm-hjimi-linux-gnueabi/sysroot/lib/libc.so.6
erand48_r@@GLIBC_2.4                              /home/tool/arm-hjimi-linux-gnueabi/arm-hjimi-linux-gnueabi/sysroot/lib/libc.so.6
erand48_r@GLIBC_2.4                               /home/tool/arm-hjimi-linux-gnueabi/arm-hjimi-linux-gnueabi/sysroot/lib/libc.so.6
error                                             /home/tool/arm-hjimi-linux-gnueabi/arm-hjimi-linux-gnueabi/sysroot/lib/libc.so.6
error@@GLIBC_2.4                                  /home/tool/arm-hjimi-linux-gnueabi/arm-hjimi-linux-gnueabi/sysroot/lib/libc.so.6
error@GLIBC_2.4                                   /home/tool/arm-hjimi-linux-gnueabi/arm-hjimi-linux-gnueabi/sysroot/lib/libc.so.6
error_at_line                                     /home/tool/arm-hjimi-linux-gnueabi/arm-hjimi-linux-gnueabi/sysroot/lib/libc.so.6
error_at_line@@GLIBC_2.4                          /home/tool/arm-hjimi-linux-gnueabi/arm-hjimi-linux-gnueabi/sysroot/lib/libc.so.6
error_at_line@GLIBC_2.4                           /home/tool/arm-hjimi-linux-gnueabi/arm-hjimi-linux-gnueabi/sysroot/lib/libc.so.6
euidaccess                                        /home/tool/arm-hjimi-linux-gnueabi/arm-hjimi-linux-gnueabi/sysroot/lib/libc.so.6
euidaccess@@GLIBC_2.4                             /home/tool/arm-hjimi-linux-gnueabi/arm-hjimi-linux-gnueabi/sysroot/lib/libc.so.6
euidaccess@GLIBC_2.4                              /home/tool/arm-hjimi-linux-gnueabi/arm-hjimi-linux-gnueabi/sysroot/lib/libc.so.6
execve                                            /home/tool/arm-hjimi-linux-gnueabi/arm-hjimi-linux-gnueabi/sysroot/lib/libc.so.6
execve@@GLIBC_2.4                                 /home/tool/arm-hjimi-linux-gnueabi/arm-hjimi-linux-gnueabi/sysroot/lib/libc.so.6
execve@GLIBC_2.4                                  /home/tool/arm-hjimi-linux-gnueabi/arm-hjimi-linux-gnueabi/sysroot/lib/libc.so.6
execvpe                                           /home/tool/arm-hjimi-linux-gnueabi/arm-hjimi-linux-gnueabi/sysroot/lib/libc.so.6
execvpe@@GLIBC_2.11                               /home/tool/arm-hjimi-linux-gnueabi/arm-hjimi-linux-gnueabi/sysroot/lib/libc.so.6
execvpe@GLIBC_2.11                                /home/tool/arm-hjimi-linux-gnueabi/arm-hjimi-linux-gnueabi/sysroot/lib/libc.so.6
fchdir                                            /home/tool/arm-hjimi-linux-gnueabi/arm-hjimi-linux-gnueabi/sysroot/lib/libc.so.6
fchdir@@GLIBC_2.4                                 /home/tool/arm-hjimi-linux-gnueabi/arm-hjimi-linux-gnueabi/sysroot/lib/libc.so.6
fchdir@GLIBC_2.4                                  /home/tool/arm-hjimi-linux-gnueabi/arm-hjimi-linux-gnueabi/sysroot/lib/libc.so.6
fchmod                                            /home/tool/arm-hjimi-linux-gnueabi/arm-hjimi-linux-gnueabi/sysroot/lib/libc.so.6
fchmod@@GLIBC_2.4                                 /home/tool/arm-hjimi-linux-gnueabi/arm-hjimi-linux-gnueabi/sysroot/lib/libc.so.6
fchmod@GLIBC_2.4                                  /home/tool/arm-hjimi-linux-gnueabi/arm-hjimi-linux-gnueabi/sysroot/lib/libc.so.6
fchown                                            /home/tool/arm-hjimi-linux-gnueabi/arm-hjimi-linux-gnueabi/sysroot/lib/libc.so.6
fchown@@GLIBC_2.4                                 /home/tool/arm-hjimi-linux-gnueabi/arm-hjimi-linux-gnueabi/sysroot/lib/libc.so.6
fchown@GLIBC_2.4                                  /home/tool/arm-hjimi-linux-gnueabi/arm-hjimi-linux-gnueabi/sysroot/lib/libc.so.6
fcloseall                                         /home/tool/arm-hjimi-linux-gnueabi/arm-hjimi-linux-gnueabi/sysroot/lib/libc.so.6
fcloseall@@GLIBC_2.4                              /home/tool/arm-hjimi-linux-gnueabi/arm-hjimi-linux-gnueabi/sysroot/lib/libc.so.6
fcloseall@GLIBC_2.4                               /home/tool/arm-hjimi-linux-gnueabi/arm-hjimi-linux-gnueabi/sysroot/lib/libc.so.6
fcntl                                             /home/tool/arm-hjimi-linux-gnueabi/arm-hjimi-linux-gnueabi/sysroot/lib/libc.so.6
fcntl@@GLIBC_2.4                                  /home/tool/arm-hjimi-linux-gnueabi/arm-hjimi-linux-gnueabi/sysroot/lib/libc.so.6
fcntl@GLIBC_2.4                                   /home/tool/arm-hjimi-linux-gnueabi/arm-hjimi-linux-gnueabi/sysroot/lib/libc.so.6
fcvt_r                                            /home/tool/arm-hjimi-linux-gnueabi/arm-hjimi-linux-gnueabi/sysroot/lib/libc.so.6
fcvt_r@@GLIBC_2.4                                 /home/tool/arm-hjimi-linux-gnueabi/arm-hjimi-linux-gnueabi/sysroot/lib/libc.so.6
fcvt_r@GLIBC_2.4                                  /home/tool/arm-hjimi-linux-gnueabi/arm-hjimi-linux-gnueabi/sysroot/lib/libc.so.6
fdopendir                                         /home/tool/arm-hjimi-linux-gnueabi/arm-hjimi-linux-gnueabi/sysroot/lib/libc.so.6
fdopendir@@GLIBC_2.4                              /home/tool/arm-hjimi-linux-gnueabi/arm-hjimi-linux-gnueabi/sysroot/lib/libc.so.6
fdopendir@GLIBC_2.4                               /home/tool/arm-hjimi-linux-gnueabi/arm-hjimi-linux-gnueabi/sysroot/lib/libc.so.6
feof                                              /home/tool/arm-hjimi-linux-gnueabi/arm-hjimi-linux-gnueabi/sysroot/lib/libc.so.6
feof@@GLIBC_2.4                                   /home/tool/arm-hjimi-linux-gnueabi/arm-hjimi-linux-gnueabi/sysroot/lib/libc.so.6
feof@GLIBC_2.4                                    /home/tool/arm-hjimi-linux-gnueabi/arm-hjimi-linux-gnueabi/sysroot/lib/libc.so.6
ferror                                            /home/tool/arm-hjimi-linux-gnueabi/arm-hjimi-linux-gnueabi/sysroot/lib/libc.so.6
ferror@@GLIBC_2.4                                 /home/tool/arm-hjimi-linux-gnueabi/arm-hjimi-linux-gnueabi/sysroot/lib/libc.so.6
ferror@GLIBC_2.4                                  /home/tool/arm-hjimi-linux-gnueabi/arm-hjimi-linux-gnueabi/sysroot/lib/libc.so.6
fflush                                            /home/tool/arm-hjimi-linux-gnueabi/arm-hjimi-linux-gnueabi/sysroot/lib/libc.so.6
fflush@@GLIBC_2.4                                 /home/tool/arm-hjimi-linux-gnueabi/arm-hjimi-linux-gnueabi/sysroot/lib/libc.so.6
fflush@GLIBC_2.4                                  /home/tool/arm-hjimi-linux-gnueabi/arm-hjimi-linux-gnueabi/sysroot/lib/libc.so.6
fflush_unlocked                                   /home/tool/arm-hjimi-linux-gnueabi/arm-hjimi-linux-gnueabi/sysroot/lib/libc.so.6
fflush_unlocked@@GLIBC_2.4                        /home/tool/arm-hjimi-linux-gnueabi/arm-hjimi-linux-gnueabi/sysroot/lib/libc.so.6
fflush_unlocked@GLIBC_2.4                         /home/tool/arm-hjimi-linux-gnueabi/arm-hjimi-linux-gnueabi/sysroot/lib/libc.so.6
ffs                                               output/drivers/compat/linux_compat.o
                                                  output/drivers/usb/musb/musb_core.o
                                                  output/drivers/irq/vic_int.o
                                                  output/drivers/dma/pl330.o
ffs@@GLIBC_2.4                                    /home/tool/arm-hjimi-linux-gnueabi/arm-hjimi-linux-gnueabi/sysroot/lib/libc.so.6
ffs@GLIBC_2.4                                     /home/tool/arm-hjimi-linux-gnueabi/arm-hjimi-linux-gnueabi/sysroot/lib/libc.so.6
ffsl                                              /home/tool/arm-hjimi-linux-gnueabi/arm-hjimi-linux-gnueabi/sysroot/lib/libc.so.6
ffsl@@GLIBC_2.4                                   /home/tool/arm-hjimi-linux-gnueabi/arm-hjimi-linux-gnueabi/sysroot/lib/libc.so.6
ffsl@GLIBC_2.4                                    /home/tool/arm-hjimi-linux-gnueabi/arm-hjimi-linux-gnueabi/sysroot/lib/libc.so.6
fgetc                                             /home/tool/arm-hjimi-linux-gnueabi/arm-hjimi-linux-gnueabi/sysroot/lib/libc.so.6
fgetc@@GLIBC_2.4                                  /home/tool/arm-hjimi-linux-gnueabi/arm-hjimi-linux-gnueabi/sysroot/lib/libc.so.6
fgetc@GLIBC_2.4                                   /home/tool/arm-hjimi-linux-gnueabi/arm-hjimi-linux-gnueabi/sysroot/lib/libc.so.6
fgetc_unlocked                                    /home/tool/arm-hjimi-linux-gnueabi/arm-hjimi-linux-gnueabi/sysroot/lib/libc.so.6
fgetc_unlocked@@GLIBC_2.4                         /home/tool/arm-hjimi-linux-gnueabi/arm-hjimi-linux-gnueabi/sysroot/lib/libc.so.6
fgetc_unlocked@GLIBC_2.4                          /home/tool/arm-hjimi-linux-gnueabi/arm-hjimi-linux-gnueabi/sysroot/lib/libc.so.6
fgetgrent_r                                       /home/tool/arm-hjimi-linux-gnueabi/arm-hjimi-linux-gnueabi/sysroot/lib/libc.so.6
fgetgrent_r@@GLIBC_2.4                            /home/tool/arm-hjimi-linux-gnueabi/arm-hjimi-linux-gnueabi/sysroot/lib/libc.so.6
fgetgrent_r@GLIBC_2.4                             /home/tool/arm-hjimi-linux-gnueabi/arm-hjimi-linux-gnueabi/sysroot/lib/libc.so.6
fgetpwent_r                                       /home/tool/arm-hjimi-linux-gnueabi/arm-hjimi-linux-gnueabi/sysroot/lib/libc.so.6
fgetpwent_r@@GLIBC_2.4                            /home/tool/arm-hjimi-linux-gnueabi/arm-hjimi-linux-gnueabi/sysroot/lib/libc.so.6
fgetpwent_r@GLIBC_2.4                             /home/tool/arm-hjimi-linux-gnueabi/arm-hjimi-linux-gnueabi/sysroot/lib/libc.so.6
fgets                                             /home/tool/arm-hjimi-linux-gnueabi/arm-hjimi-linux-gnueabi/sysroot/lib/libc.so.6
fgets@@GLIBC_2.4                                  /home/tool/arm-hjimi-linux-gnueabi/arm-hjimi-linux-gnueabi/sysroot/lib/libc.so.6
fgets@GLIBC_2.4                                   /home/tool/arm-hjimi-linux-gnueabi/arm-hjimi-linux-gnueabi/sysroot/lib/libc.so.6
fgets_unlocked                                    /home/tool/arm-hjimi-linux-gnueabi/arm-hjimi-linux-gnueabi/sysroot/lib/libc.so.6
fgets_unlocked@@GLIBC_2.4                         /home/tool/arm-hjimi-linux-gnueabi/arm-hjimi-linux-gnueabi/sysroot/lib/libc.so.6
fgets_unlocked@GLIBC_2.4                          /home/tool/arm-hjimi-linux-gnueabi/arm-hjimi-linux-gnueabi/sysroot/lib/libc.so.6
fgetsgent_r                                       /home/tool/arm-hjimi-linux-gnueabi/arm-hjimi-linux-gnueabi/sysroot/lib/libc.so.6
fgetsgent_r@@GLIBC_2.10                           /home/tool/arm-hjimi-linux-gnueabi/arm-hjimi-linux-gnueabi/sysroot/lib/libc.so.6
fgetsgent_r@GLIBC_2.10                            /home/tool/arm-hjimi-linux-gnueabi/arm-hjimi-linux-gnueabi/sysroot/lib/libc.so.6
fgetspent_r                                       /home/tool/arm-hjimi-linux-gnueabi/arm-hjimi-linux-gnueabi/sysroot/lib/libc.so.6
fgetspent_r@@GLIBC_2.4                            /home/tool/arm-hjimi-linux-gnueabi/arm-hjimi-linux-gnueabi/sysroot/lib/libc.so.6
fgetspent_r@GLIBC_2.4                             /home/tool/arm-hjimi-linux-gnueabi/arm-hjimi-linux-gnueabi/sysroot/lib/libc.so.6
fgetwc                                            /home/tool/arm-hjimi-linux-gnueabi/arm-hjimi-linux-gnueabi/sysroot/lib/libc.so.6
fgetwc@@GLIBC_2.4                                 /home/tool/arm-hjimi-linux-gnueabi/arm-hjimi-linux-gnueabi/sysroot/lib/libc.so.6
fgetwc@GLIBC_2.4                                  /home/tool/arm-hjimi-linux-gnueabi/arm-hjimi-linux-gnueabi/sysroot/lib/libc.so.6
fgetwc_unlocked                                   /home/tool/arm-hjimi-linux-gnueabi/arm-hjimi-linux-gnueabi/sysroot/lib/libc.so.6
fgetwc_unlocked@@GLIBC_2.4                        /home/tool/arm-hjimi-linux-gnueabi/arm-hjimi-linux-gnueabi/sysroot/lib/libc.so.6
fgetwc_unlocked@GLIBC_2.4                         /home/tool/arm-hjimi-linux-gnueabi/arm-hjimi-linux-gnueabi/sysroot/lib/libc.so.6
fileno                                            /home/tool/arm-hjimi-linux-gnueabi/arm-hjimi-linux-gnueabi/sysroot/lib/libc.so.6
fileno@@GLIBC_2.4                                 /home/tool/arm-hjimi-linux-gnueabi/arm-hjimi-linux-gnueabi/sysroot/lib/libc.so.6
fileno@GLIBC_2.4                                  /home/tool/arm-hjimi-linux-gnueabi/arm-hjimi-linux-gnueabi/sysroot/lib/libc.so.6
fileno_unlocked                                   /home/tool/arm-hjimi-linux-gnueabi/arm-hjimi-linux-gnueabi/sysroot/lib/libc.so.6
fileno_unlocked@@GLIBC_2.4                        /home/tool/arm-hjimi-linux-gnueabi/arm-hjimi-linux-gnueabi/sysroot/lib/libc.so.6
fileno_unlocked@GLIBC_2.4                         /home/tool/arm-hjimi-linux-gnueabi/arm-hjimi-linux-gnueabi/sysroot/lib/libc.so.6
find_nand_clk_delay                               output/drivers/qspi/nand_test.o
finite                                            /home/tool/arm-hjimi-linux-gnueabi/arm-hjimi-linux-gnueabi/sysroot/lib/libc.so.6
finite@@GLIBC_2.4                                 /home/tool/arm-hjimi-linux-gnueabi/arm-hjimi-linux-gnueabi/sysroot/lib/libc.so.6
finite@GLIBC_2.4                                  /home/tool/arm-hjimi-linux-gnueabi/arm-hjimi-linux-gnueabi/sysroot/lib/libc.so.6
finitef                                           /home/tool/arm-hjimi-linux-gnueabi/arm-hjimi-linux-gnueabi/sysroot/lib/libc.so.6
finitef@@GLIBC_2.4                                /home/tool/arm-hjimi-linux-gnueabi/arm-hjimi-linux-gnueabi/sysroot/lib/libc.so.6
finitef@GLIBC_2.4                                 /home/tool/arm-hjimi-linux-gnueabi/arm-hjimi-linux-gnueabi/sysroot/lib/libc.so.6
finitel                                           /home/tool/arm-hjimi-linux-gnueabi/arm-hjimi-linux-gnueabi/sysroot/lib/libc.so.6
finitel@@GLIBC_2.4                                /home/tool/arm-hjimi-linux-gnueabi/arm-hjimi-linux-gnueabi/sysroot/lib/libc.so.6
finitel@GLIBC_2.4                                 /home/tool/arm-hjimi-linux-gnueabi/arm-hjimi-linux-gnueabi/sysroot/lib/libc.so.6
flash_erase                                       output/boards/2280_ddr/board_2280.o
flash_read                                        output/boards/2280_ddr/board_2280.o
flash_write                                       output/boards/2280_ddr/board_2280.o
flock                                             /home/tool/arm-hjimi-linux-gnueabi/arm-hjimi-linux-gnueabi/sysroot/lib/libc.so.6
flock@@GLIBC_2.4                                  /home/tool/arm-hjimi-linux-gnueabi/arm-hjimi-linux-gnueabi/sysroot/lib/libc.so.6
flock@GLIBC_2.4                                   /home/tool/arm-hjimi-linux-gnueabi/arm-hjimi-linux-gnueabi/sysroot/lib/libc.so.6
flockfile                                         /home/tool/arm-hjimi-linux-gnueabi/arm-hjimi-linux-gnueabi/sysroot/lib/libc.so.6
flockfile@@GLIBC_2.4                              /home/tool/arm-hjimi-linux-gnueabi/arm-hjimi-linux-gnueabi/sysroot/lib/libc.so.6
flockfile@GLIBC_2.4                               /home/tool/arm-hjimi-linux-gnueabi/arm-hjimi-linux-gnueabi/sysroot/lib/libc.so.6
flood_dev                                         output/drivers/vcsel_driver/lm36011.o
flood_driver_register                             output/drivers/vcsel_driver/lm36011.o
fopen64                                           /home/tool/arm-hjimi-linux-gnueabi/arm-hjimi-linux-gnueabi/sysroot/lib/libc.so.6
fopen64@@GLIBC_2.4                                /home/tool/arm-hjimi-linux-gnueabi/arm-hjimi-linux-gnueabi/sysroot/lib/libc.so.6
fopen64@GLIBC_2.4                                 /home/tool/arm-hjimi-linux-gnueabi/arm-hjimi-linux-gnueabi/sysroot/lib/libc.so.6
fork                                              /home/tool/arm-hjimi-linux-gnueabi/arm-hjimi-linux-gnueabi/sysroot/lib/libc.so.6
fork@@GLIBC_2.4                                   /home/tool/arm-hjimi-linux-gnueabi/arm-hjimi-linux-gnueabi/sysroot/lib/libc.so.6
fork@GLIBC_2.4                                    /home/tool/arm-hjimi-linux-gnueabi/arm-hjimi-linux-gnueabi/sysroot/lib/libc.so.6
fpathconf                                         /home/tool/arm-hjimi-linux-gnueabi/arm-hjimi-linux-gnueabi/sysroot/lib/libc.so.6
fpathconf@@GLIBC_2.4                              /home/tool/arm-hjimi-linux-gnueabi/arm-hjimi-linux-gnueabi/sysroot/lib/libc.so.6
fpathconf@GLIBC_2.4                               /home/tool/arm-hjimi-linux-gnueabi/arm-hjimi-linux-gnueabi/sysroot/lib/libc.so.6
fpp0_config                                       output/drivers/dpu_2280/dpu_dev.o
fpp0_onoff                                        output/drivers/dpu_2280/dpu_dev.o
fputs                                             /home/tool/arm-hjimi-linux-gnueabi/arm-hjimi-linux-gnueabi/sysroot/lib/libc.so.6
fputs@@GLIBC_2.4                                  /home/tool/arm-hjimi-linux-gnueabi/arm-hjimi-linux-gnueabi/sysroot/lib/libc.so.6
fputs@GLIBC_2.4                                   /home/tool/arm-hjimi-linux-gnueabi/arm-hjimi-linux-gnueabi/sysroot/lib/libc.so.6
fputs_unlocked                                    /home/tool/arm-hjimi-linux-gnueabi/arm-hjimi-linux-gnueabi/sysroot/lib/libc.so.6
fputs_unlocked@@GLIBC_2.4                         /home/tool/arm-hjimi-linux-gnueabi/arm-hjimi-linux-gnueabi/sysroot/lib/libc.so.6
fputs_unlocked@GLIBC_2.4                          /home/tool/arm-hjimi-linux-gnueabi/arm-hjimi-linux-gnueabi/sysroot/lib/libc.so.6
fread                                             /home/tool/arm-hjimi-linux-gnueabi/arm-hjimi-linux-gnueabi/sysroot/lib/libc.so.6
fread@@GLIBC_2.4                                  /home/tool/arm-hjimi-linux-gnueabi/arm-hjimi-linux-gnueabi/sysroot/lib/libc.so.6
fread@GLIBC_2.4                                   /home/tool/arm-hjimi-linux-gnueabi/arm-hjimi-linux-gnueabi/sysroot/lib/libc.so.6
fread_unlocked                                    /home/tool/arm-hjimi-linux-gnueabi/arm-hjimi-linux-gnueabi/sysroot/lib/libc.so.6
fread_unlocked@@GLIBC_2.4                         /home/tool/arm-hjimi-linux-gnueabi/arm-hjimi-linux-gnueabi/sysroot/lib/libc.so.6
fread_unlocked@GLIBC_2.4                          /home/tool/arm-hjimi-linux-gnueabi/arm-hjimi-linux-gnueabi/sysroot/lib/libc.so.6
freeifaddrs                                       /home/tool/arm-hjimi-linux-gnueabi/arm-hjimi-linux-gnueabi/sysroot/lib/libc.so.6
freeifaddrs@@GLIBC_2.4                            /home/tool/arm-hjimi-linux-gnueabi/arm-hjimi-linux-gnueabi/sysroot/lib/libc.so.6
freeifaddrs@GLIBC_2.4                             /home/tool/arm-hjimi-linux-gnueabi/arm-hjimi-linux-gnueabi/sysroot/lib/libc.so.6
freelocale                                        /home/tool/arm-hjimi-linux-gnueabi/arm-hjimi-linux-gnueabi/sysroot/lib/libc.so.6
freelocale@@GLIBC_2.4                             /home/tool/arm-hjimi-linux-gnueabi/arm-hjimi-linux-gnueabi/sysroot/lib/libc.so.6
freelocale@GLIBC_2.4                              /home/tool/arm-hjimi-linux-gnueabi/arm-hjimi-linux-gnueabi/sysroot/lib/libc.so.6
frexp                                             /home/tool/arm-hjimi-linux-gnueabi/arm-hjimi-linux-gnueabi/sysroot/lib/libc.so.6
frexp@@GLIBC_2.4                                  /home/tool/arm-hjimi-linux-gnueabi/arm-hjimi-linux-gnueabi/sysroot/lib/libc.so.6
frexp@GLIBC_2.4                                   /home/tool/arm-hjimi-linux-gnueabi/arm-hjimi-linux-gnueabi/sysroot/lib/libc.so.6
frexpf                                            /home/tool/arm-hjimi-linux-gnueabi/arm-hjimi-linux-gnueabi/sysroot/lib/libc.so.6
frexpf@@GLIBC_2.4                                 /home/tool/arm-hjimi-linux-gnueabi/arm-hjimi-linux-gnueabi/sysroot/lib/libc.so.6
frexpf@GLIBC_2.4                                  /home/tool/arm-hjimi-linux-gnueabi/arm-hjimi-linux-gnueabi/sysroot/lib/libc.so.6
frexpl                                            /home/tool/arm-hjimi-linux-gnueabi/arm-hjimi-linux-gnueabi/sysroot/lib/libc.so.6
frexpl@@GLIBC_2.4                                 /home/tool/arm-hjimi-linux-gnueabi/arm-hjimi-linux-gnueabi/sysroot/lib/libc.so.6
frexpl@GLIBC_2.4                                  /home/tool/arm-hjimi-linux-gnueabi/arm-hjimi-linux-gnueabi/sysroot/lib/libc.so.6
fstatfs                                           /home/tool/arm-hjimi-linux-gnueabi/arm-hjimi-linux-gnueabi/sysroot/lib/libc.so.6
fstatfs64                                         /home/tool/arm-hjimi-linux-gnueabi/arm-hjimi-linux-gnueabi/sysroot/lib/libc.so.6
fstatfs64@@GLIBC_2.4                              /home/tool/arm-hjimi-linux-gnueabi/arm-hjimi-linux-gnueabi/sysroot/lib/libc.so.6
fstatfs64@GLIBC_2.4                               /home/tool/arm-hjimi-linux-gnueabi/arm-hjimi-linux-gnueabi/sysroot/lib/libc.so.6
fstatfs@@GLIBC_2.4                                /home/tool/arm-hjimi-linux-gnueabi/arm-hjimi-linux-gnueabi/sysroot/lib/libc.so.6
fstatfs@GLIBC_2.4                                 /home/tool/arm-hjimi-linux-gnueabi/arm-hjimi-linux-gnueabi/sysroot/lib/libc.so.6
fstatvfs                                          /home/tool/arm-hjimi-linux-gnueabi/arm-hjimi-linux-gnueabi/sysroot/lib/libc.so.6
fstatvfs64                                        /home/tool/arm-hjimi-linux-gnueabi/arm-hjimi-linux-gnueabi/sysroot/lib/libc.so.6
fstatvfs64@@GLIBC_2.4                             /home/tool/arm-hjimi-linux-gnueabi/arm-hjimi-linux-gnueabi/sysroot/lib/libc.so.6
fstatvfs64@GLIBC_2.4                              /home/tool/arm-hjimi-linux-gnueabi/arm-hjimi-linux-gnueabi/sysroot/lib/libc.so.6
fstatvfs@@GLIBC_2.4                               /home/tool/arm-hjimi-linux-gnueabi/arm-hjimi-linux-gnueabi/sysroot/lib/libc.so.6
fstatvfs@GLIBC_2.4                                /home/tool/arm-hjimi-linux-gnueabi/arm-hjimi-linux-gnueabi/sysroot/lib/libc.so.6
ftell                                             /home/tool/arm-hjimi-linux-gnueabi/arm-hjimi-linux-gnueabi/sysroot/lib/libc.so.6
ftell@@GLIBC_2.4                                  /home/tool/arm-hjimi-linux-gnueabi/arm-hjimi-linux-gnueabi/sysroot/lib/libc.so.6
ftell@GLIBC_2.4                                   /home/tool/arm-hjimi-linux-gnueabi/arm-hjimi-linux-gnueabi/sysroot/lib/libc.so.6
ftello                                            /home/tool/arm-hjimi-linux-gnueabi/arm-hjimi-linux-gnueabi/sysroot/lib/libc.so.6
ftello@@GLIBC_2.4                                 /home/tool/arm-hjimi-linux-gnueabi/arm-hjimi-linux-gnueabi/sysroot/lib/libc.so.6
ftello@GLIBC_2.4                                  /home/tool/arm-hjimi-linux-gnueabi/arm-hjimi-linux-gnueabi/sysroot/lib/libc.so.6
ftruncate                                         /home/tool/arm-hjimi-linux-gnueabi/arm-hjimi-linux-gnueabi/sysroot/lib/libc.so.6
ftruncate64                                       /home/tool/arm-hjimi-linux-gnueabi/arm-hjimi-linux-gnueabi/sysroot/lib/libc.so.6
ftruncate64@@GLIBC_2.4                            /home/tool/arm-hjimi-linux-gnueabi/arm-hjimi-linux-gnueabi/sysroot/lib/libc.so.6
ftruncate64@GLIBC_2.4                             /home/tool/arm-hjimi-linux-gnueabi/arm-hjimi-linux-gnueabi/sysroot/lib/libc.so.6
ftruncate@@GLIBC_2.4                              /home/tool/arm-hjimi-linux-gnueabi/arm-hjimi-linux-gnueabi/sysroot/lib/libc.so.6
ftruncate@GLIBC_2.4                               /home/tool/arm-hjimi-linux-gnueabi/arm-hjimi-linux-gnueabi/sysroot/lib/libc.so.6
ftrylockfile                                      /home/tool/arm-hjimi-linux-gnueabi/arm-hjimi-linux-gnueabi/sysroot/lib/libc.so.6
ftrylockfile@@GLIBC_2.4                           /home/tool/arm-hjimi-linux-gnueabi/arm-hjimi-linux-gnueabi/sysroot/lib/libc.so.6
ftrylockfile@GLIBC_2.4                            /home/tool/arm-hjimi-linux-gnueabi/arm-hjimi-linux-gnueabi/sysroot/lib/libc.so.6
func_end                                          output/main/driver_init.o
func_start                                        output/main/driver_init.o
funlockfile                                       /home/tool/arm-hjimi-linux-gnueabi/arm-hjimi-linux-gnueabi/sysroot/lib/libc.so.6
funlockfile@@GLIBC_2.4                            /home/tool/arm-hjimi-linux-gnueabi/arm-hjimi-linux-gnueabi/sysroot/lib/libc.so.6
funlockfile@GLIBC_2.4                             /home/tool/arm-hjimi-linux-gnueabi/arm-hjimi-linux-gnueabi/sysroot/lib/libc.so.6
futimes                                           /home/tool/arm-hjimi-linux-gnueabi/arm-hjimi-linux-gnueabi/sysroot/lib/libc.so.6
futimes@@GLIBC_2.4                                /home/tool/arm-hjimi-linux-gnueabi/arm-hjimi-linux-gnueabi/sysroot/lib/libc.so.6
futimes@GLIBC_2.4                                 /home/tool/arm-hjimi-linux-gnueabi/arm-hjimi-linux-gnueabi/sysroot/lib/libc.so.6
fwprintf                                          /home/tool/arm-hjimi-linux-gnueabi/arm-hjimi-linux-gnueabi/sysroot/lib/libc.so.6
fwprintf@@GLIBC_2.4                               /home/tool/arm-hjimi-linux-gnueabi/arm-hjimi-linux-gnueabi/sysroot/lib/libc.so.6
fwprintf@GLIBC_2.4                                /home/tool/arm-hjimi-linux-gnueabi/arm-hjimi-linux-gnueabi/sysroot/lib/libc.so.6
fwrite                                            /home/tool/arm-hjimi-linux-gnueabi/arm-hjimi-linux-gnueabi/sysroot/lib/libc.so.6
fwrite@@GLIBC_2.4                                 /home/tool/arm-hjimi-linux-gnueabi/arm-hjimi-linux-gnueabi/sysroot/lib/libc.so.6
fwrite@GLIBC_2.4                                  /home/tool/arm-hjimi-linux-gnueabi/arm-hjimi-linux-gnueabi/sysroot/lib/libc.so.6
g_frame_id                                        output/drivers/usb/gadget/function/u_imi.o
g_imi_usb_register                                output/drivers/usb/gadget/legacy/g_imi_usb.o
g_imi_usb_set_serialnumber                        output/drivers/usb/gadget/legacy/g_imi_usb.o
g_imi_video                                       output/drivers/usb/gadget/function/u_imi.o
gadget_find_ep_by_name                            output/drivers/usb/gadget/core.o
get_avphys_pages                                  /home/tool/arm-hjimi-linux-gnueabi/arm-hjimi-linux-gnueabi/sysroot/lib/libc.so.6
get_avphys_pages@@GLIBC_2.4                       /home/tool/arm-hjimi-linux-gnueabi/arm-hjimi-linux-gnueabi/sysroot/lib/libc.so.6
get_avphys_pages@GLIBC_2.4                        /home/tool/arm-hjimi-linux-gnueabi/arm-hjimi-linux-gnueabi/sysroot/lib/libc.so.6
get_bootmode                                      output/boards/2280_ddr/board_2280.o
                                                  output/drivers/qspi/candence_qspi.o
                                                  output/main/main.o
get_chip_id                                       output/drivers/irrx/ov928x.o
get_nprocs                                        /home/tool/arm-hjimi-linux-gnueabi/arm-hjimi-linux-gnueabi/sysroot/lib/libc.so.6
get_nprocs@@GLIBC_2.4                             /home/tool/arm-hjimi-linux-gnueabi/arm-hjimi-linux-gnueabi/sysroot/lib/libc.so.6
get_nprocs@GLIBC_2.4                              /home/tool/arm-hjimi-linux-gnueabi/arm-hjimi-linux-gnueabi/sysroot/lib/libc.so.6
get_nprocs_conf                                   /home/tool/arm-hjimi-linux-gnueabi/arm-hjimi-linux-gnueabi/sysroot/lib/libc.so.6
get_nprocs_conf@@GLIBC_2.4                        /home/tool/arm-hjimi-linux-gnueabi/arm-hjimi-linux-gnueabi/sysroot/lib/libc.so.6
get_nprocs_conf@GLIBC_2.4                         /home/tool/arm-hjimi-linux-gnueabi/arm-hjimi-linux-gnueabi/sysroot/lib/libc.so.6
get_phys_pages                                    /home/tool/arm-hjimi-linux-gnueabi/arm-hjimi-linux-gnueabi/sysroot/lib/libc.so.6
get_phys_pages@@GLIBC_2.4                         /home/tool/arm-hjimi-linux-gnueabi/arm-hjimi-linux-gnueabi/sysroot/lib/libc.so.6
get_phys_pages@GLIBC_2.4                          /home/tool/arm-hjimi-linux-gnueabi/arm-hjimi-linux-gnueabi/sysroot/lib/libc.so.6
get_secboot_flag                                  output/boards/2280_ddr/board_2280.o
get_streaming_message                             ./drivers/ddr/libddr_64.a(dcu.o)
getauxval                                         /home/tool/arm-hjimi-linux-gnueabi/arm-hjimi-linux-gnueabi/sysroot/lib/libc.so.6
getauxval@@GLIBC_2.16                             /home/tool/arm-hjimi-linux-gnueabi/arm-hjimi-linux-gnueabi/sysroot/lib/libc.so.6
getauxval@GLIBC_2.16                              /home/tool/arm-hjimi-linux-gnueabi/arm-hjimi-linux-gnueabi/sysroot/lib/libc.so.6
getc                                              /home/tool/arm-hjimi-linux-gnueabi/arm-hjimi-linux-gnueabi/sysroot/lib/libc.so.6
getc@@GLIBC_2.4                                   /home/tool/arm-hjimi-linux-gnueabi/arm-hjimi-linux-gnueabi/sysroot/lib/libc.so.6
getc@GLIBC_2.4                                    /home/tool/arm-hjimi-linux-gnueabi/arm-hjimi-linux-gnueabi/sysroot/lib/libc.so.6
getc_unlocked                                     /home/tool/arm-hjimi-linux-gnueabi/arm-hjimi-linux-gnueabi/sysroot/lib/libc.so.6
getc_unlocked@@GLIBC_2.4                          /home/tool/arm-hjimi-linux-gnueabi/arm-hjimi-linux-gnueabi/sysroot/lib/libc.so.6
getc_unlocked@GLIBC_2.4                           /home/tool/arm-hjimi-linux-gnueabi/arm-hjimi-linux-gnueabi/sysroot/lib/libc.so.6
getcontext                                        /home/tool/arm-hjimi-linux-gnueabi/arm-hjimi-linux-gnueabi/sysroot/lib/libc.so.6
getcontext@@GLIBC_2.4                             /home/tool/arm-hjimi-linux-gnueabi/arm-hjimi-linux-gnueabi/sysroot/lib/libc.so.6
getcontext@GLIBC_2.4                              /home/tool/arm-hjimi-linux-gnueabi/arm-hjimi-linux-gnueabi/sysroot/lib/libc.so.6
getcwd                                            /home/tool/arm-hjimi-linux-gnueabi/arm-hjimi-linux-gnueabi/sysroot/lib/libc.so.6
getcwd@@GLIBC_2.4                                 /home/tool/arm-hjimi-linux-gnueabi/arm-hjimi-linux-gnueabi/sysroot/lib/libc.so.6
getcwd@GLIBC_2.4                                  /home/tool/arm-hjimi-linux-gnueabi/arm-hjimi-linux-gnueabi/sysroot/lib/libc.so.6
getdate_r                                         /home/tool/arm-hjimi-linux-gnueabi/arm-hjimi-linux-gnueabi/sysroot/lib/libc.so.6
getdate_r@@GLIBC_2.4                              /home/tool/arm-hjimi-linux-gnueabi/arm-hjimi-linux-gnueabi/sysroot/lib/libc.so.6
getdate_r@GLIBC_2.4                               /home/tool/arm-hjimi-linux-gnueabi/arm-hjimi-linux-gnueabi/sysroot/lib/libc.so.6
getdelim                                          /home/tool/arm-hjimi-linux-gnueabi/arm-hjimi-linux-gnueabi/sysroot/lib/libc.so.6
getdelim@@GLIBC_2.4                               /home/tool/arm-hjimi-linux-gnueabi/arm-hjimi-linux-gnueabi/sysroot/lib/libc.so.6
getdelim@GLIBC_2.4                                /home/tool/arm-hjimi-linux-gnueabi/arm-hjimi-linux-gnueabi/sysroot/lib/libc.so.6
getdtablesize                                     /home/tool/arm-hjimi-linux-gnueabi/arm-hjimi-linux-gnueabi/sysroot/lib/libc.so.6
getdtablesize@@GLIBC_2.4                          /home/tool/arm-hjimi-linux-gnueabi/arm-hjimi-linux-gnueabi/sysroot/lib/libc.so.6
getdtablesize@GLIBC_2.4                           /home/tool/arm-hjimi-linux-gnueabi/arm-hjimi-linux-gnueabi/sysroot/lib/libc.so.6
getegid                                           /home/tool/arm-hjimi-linux-gnueabi/arm-hjimi-linux-gnueabi/sysroot/lib/libc.so.6
getegid@@GLIBC_2.4                                /home/tool/arm-hjimi-linux-gnueabi/arm-hjimi-linux-gnueabi/sysroot/lib/libc.so.6
getegid@GLIBC_2.4                                 /home/tool/arm-hjimi-linux-gnueabi/arm-hjimi-linux-gnueabi/sysroot/lib/libc.so.6
geteuid                                           /home/tool/arm-hjimi-linux-gnueabi/arm-hjimi-linux-gnueabi/sysroot/lib/libc.so.6
geteuid@@GLIBC_2.4                                /home/tool/arm-hjimi-linux-gnueabi/arm-hjimi-linux-gnueabi/sysroot/lib/libc.so.6
geteuid@GLIBC_2.4                                 /home/tool/arm-hjimi-linux-gnueabi/arm-hjimi-linux-gnueabi/sysroot/lib/libc.so.6
getgid                                            /home/tool/arm-hjimi-linux-gnueabi/arm-hjimi-linux-gnueabi/sysroot/lib/libc.so.6
getgid@@GLIBC_2.4                                 /home/tool/arm-hjimi-linux-gnueabi/arm-hjimi-linux-gnueabi/sysroot/lib/libc.so.6
getgid@GLIBC_2.4                                  /home/tool/arm-hjimi-linux-gnueabi/arm-hjimi-linux-gnueabi/sysroot/lib/libc.so.6
getgroups                                         /home/tool/arm-hjimi-linux-gnueabi/arm-hjimi-linux-gnueabi/sysroot/lib/libc.so.6
getgroups@@GLIBC_2.4                              /home/tool/arm-hjimi-linux-gnueabi/arm-hjimi-linux-gnueabi/sysroot/lib/libc.so.6
getgroups@GLIBC_2.4                               /home/tool/arm-hjimi-linux-gnueabi/arm-hjimi-linux-gnueabi/sysroot/lib/libc.so.6
gethostname                                       /home/tool/arm-hjimi-linux-gnueabi/arm-hjimi-linux-gnueabi/sysroot/lib/libc.so.6
gethostname@@GLIBC_2.4                            /home/tool/arm-hjimi-linux-gnueabi/arm-hjimi-linux-gnueabi/sysroot/lib/libc.so.6
gethostname@GLIBC_2.4                             /home/tool/arm-hjimi-linux-gnueabi/arm-hjimi-linux-gnueabi/sysroot/lib/libc.so.6
getifaddrs                                        /home/tool/arm-hjimi-linux-gnueabi/arm-hjimi-linux-gnueabi/sysroot/lib/libc.so.6
getifaddrs@@GLIBC_2.4                             /home/tool/arm-hjimi-linux-gnueabi/arm-hjimi-linux-gnueabi/sysroot/lib/libc.so.6
getifaddrs@GLIBC_2.4                              /home/tool/arm-hjimi-linux-gnueabi/arm-hjimi-linux-gnueabi/sysroot/lib/libc.so.6
getitimer                                         /home/tool/arm-hjimi-linux-gnueabi/arm-hjimi-linux-gnueabi/sysroot/lib/libc.so.6
getitimer@@GLIBC_2.4                              /home/tool/arm-hjimi-linux-gnueabi/arm-hjimi-linux-gnueabi/sysroot/lib/libc.so.6
getitimer@GLIBC_2.4                               /home/tool/arm-hjimi-linux-gnueabi/arm-hjimi-linux-gnueabi/sysroot/lib/libc.so.6
getline                                           /home/tool/arm-hjimi-linux-gnueabi/arm-hjimi-linux-gnueabi/sysroot/lib/libc.so.6
getline@@GLIBC_2.4                                /home/tool/arm-hjimi-linux-gnueabi/arm-hjimi-linux-gnueabi/sysroot/lib/libc.so.6
getline@GLIBC_2.4                                 /home/tool/arm-hjimi-linux-gnueabi/arm-hjimi-linux-gnueabi/sysroot/lib/libc.so.6
getlogin_r                                        /home/tool/arm-hjimi-linux-gnueabi/arm-hjimi-linux-gnueabi/sysroot/lib/libc.so.6
getlogin_r@@GLIBC_2.4                             /home/tool/arm-hjimi-linux-gnueabi/arm-hjimi-linux-gnueabi/sysroot/lib/libc.so.6
getlogin_r@GLIBC_2.4                              /home/tool/arm-hjimi-linux-gnueabi/arm-hjimi-linux-gnueabi/sysroot/lib/libc.so.6
getmntent_r                                       /home/tool/arm-hjimi-linux-gnueabi/arm-hjimi-linux-gnueabi/sysroot/lib/libc.so.6
getmntent_r@@GLIBC_2.4                            /home/tool/arm-hjimi-linux-gnueabi/arm-hjimi-linux-gnueabi/sysroot/lib/libc.so.6
getmntent_r@GLIBC_2.4                             /home/tool/arm-hjimi-linux-gnueabi/arm-hjimi-linux-gnueabi/sysroot/lib/libc.so.6
getnetgrent_r                                     /home/tool/arm-hjimi-linux-gnueabi/arm-hjimi-linux-gnueabi/sysroot/lib/libc.so.6
getnetgrent_r@@GLIBC_2.4                          /home/tool/arm-hjimi-linux-gnueabi/arm-hjimi-linux-gnueabi/sysroot/lib/libc.so.6
getnetgrent_r@GLIBC_2.4                           /home/tool/arm-hjimi-linux-gnueabi/arm-hjimi-linux-gnueabi/sysroot/lib/libc.so.6
getpagesize                                       /home/tool/arm-hjimi-linux-gnueabi/arm-hjimi-linux-gnueabi/sysroot/lib/libc.so.6
getpagesize@@GLIBC_2.4                            /home/tool/arm-hjimi-linux-gnueabi/arm-hjimi-linux-gnueabi/sysroot/lib/libc.so.6
getpagesize@GLIBC_2.4                             /home/tool/arm-hjimi-linux-gnueabi/arm-hjimi-linux-gnueabi/sysroot/lib/libc.so.6
getpeername                                       /home/tool/arm-hjimi-linux-gnueabi/arm-hjimi-linux-gnueabi/sysroot/lib/libc.so.6
getpeername@@GLIBC_2.4                            /home/tool/arm-hjimi-linux-gnueabi/arm-hjimi-linux-gnueabi/sysroot/lib/libc.so.6
getpeername@GLIBC_2.4                             /home/tool/arm-hjimi-linux-gnueabi/arm-hjimi-linux-gnueabi/sysroot/lib/libc.so.6
getpgid                                           /home/tool/arm-hjimi-linux-gnueabi/arm-hjimi-linux-gnueabi/sysroot/lib/libc.so.6
getpgid@@GLIBC_2.4                                /home/tool/arm-hjimi-linux-gnueabi/arm-hjimi-linux-gnueabi/sysroot/lib/libc.so.6
getpgid@GLIBC_2.4                                 /home/tool/arm-hjimi-linux-gnueabi/arm-hjimi-linux-gnueabi/sysroot/lib/libc.so.6
getpid                                            /home/tool/arm-hjimi-linux-gnueabi/arm-hjimi-linux-gnueabi/sysroot/lib/libc.so.6
getpid@@GLIBC_2.4                                 /home/tool/arm-hjimi-linux-gnueabi/arm-hjimi-linux-gnueabi/sysroot/lib/libc.so.6
getpid@GLIBC_2.4                                  /home/tool/arm-hjimi-linux-gnueabi/arm-hjimi-linux-gnueabi/sysroot/lib/libc.so.6
getppid                                           /home/tool/arm-hjimi-linux-gnueabi/arm-hjimi-linux-gnueabi/sysroot/lib/libc.so.6
getppid@@GLIBC_2.4                                /home/tool/arm-hjimi-linux-gnueabi/arm-hjimi-linux-gnueabi/sysroot/lib/libc.so.6
getppid@GLIBC_2.4                                 /home/tool/arm-hjimi-linux-gnueabi/arm-hjimi-linux-gnueabi/sysroot/lib/libc.so.6
getpriority                                       /home/tool/arm-hjimi-linux-gnueabi/arm-hjimi-linux-gnueabi/sysroot/lib/libc.so.6
getpriority@@GLIBC_2.4                            /home/tool/arm-hjimi-linux-gnueabi/arm-hjimi-linux-gnueabi/sysroot/lib/libc.so.6
getpriority@GLIBC_2.4                             /home/tool/arm-hjimi-linux-gnueabi/arm-hjimi-linux-gnueabi/sysroot/lib/libc.so.6
getpt                                             /home/tool/arm-hjimi-linux-gnueabi/arm-hjimi-linux-gnueabi/sysroot/lib/libc.so.6
getpt@@GLIBC_2.4                                  /home/tool/arm-hjimi-linux-gnueabi/arm-hjimi-linux-gnueabi/sysroot/lib/libc.so.6
getpt@GLIBC_2.4                                   /home/tool/arm-hjimi-linux-gnueabi/arm-hjimi-linux-gnueabi/sysroot/lib/libc.so.6
getpw                                             /home/tool/arm-hjimi-linux-gnueabi/arm-hjimi-linux-gnueabi/sysroot/lib/libc.so.6
getpw@@GLIBC_2.4                                  /home/tool/arm-hjimi-linux-gnueabi/arm-hjimi-linux-gnueabi/sysroot/lib/libc.so.6
getpw@GLIBC_2.4                                   /home/tool/arm-hjimi-linux-gnueabi/arm-hjimi-linux-gnueabi/sysroot/lib/libc.so.6
getresgid                                         /home/tool/arm-hjimi-linux-gnueabi/arm-hjimi-linux-gnueabi/sysroot/lib/libc.so.6
getresgid@@GLIBC_2.4                              /home/tool/arm-hjimi-linux-gnueabi/arm-hjimi-linux-gnueabi/sysroot/lib/libc.so.6
getresgid@GLIBC_2.4                               /home/tool/arm-hjimi-linux-gnueabi/arm-hjimi-linux-gnueabi/sysroot/lib/libc.so.6
getresuid                                         /home/tool/arm-hjimi-linux-gnueabi/arm-hjimi-linux-gnueabi/sysroot/lib/libc.so.6
getresuid@@GLIBC_2.4                              /home/tool/arm-hjimi-linux-gnueabi/arm-hjimi-linux-gnueabi/sysroot/lib/libc.so.6
getresuid@GLIBC_2.4                               /home/tool/arm-hjimi-linux-gnueabi/arm-hjimi-linux-gnueabi/sysroot/lib/libc.so.6
getrlimit                                         /home/tool/arm-hjimi-linux-gnueabi/arm-hjimi-linux-gnueabi/sysroot/lib/libc.so.6
getrlimit64                                       /home/tool/arm-hjimi-linux-gnueabi/arm-hjimi-linux-gnueabi/sysroot/lib/libc.so.6
getrlimit64@@GLIBC_2.4                            /home/tool/arm-hjimi-linux-gnueabi/arm-hjimi-linux-gnueabi/sysroot/lib/libc.so.6
getrlimit64@GLIBC_2.4                             /home/tool/arm-hjimi-linux-gnueabi/arm-hjimi-linux-gnueabi/sysroot/lib/libc.so.6
getrlimit@@GLIBC_2.4                              /home/tool/arm-hjimi-linux-gnueabi/arm-hjimi-linux-gnueabi/sysroot/lib/libc.so.6
getrlimit@GLIBC_2.4                               /home/tool/arm-hjimi-linux-gnueabi/arm-hjimi-linux-gnueabi/sysroot/lib/libc.so.6
getrusage                                         /home/tool/arm-hjimi-linux-gnueabi/arm-hjimi-linux-gnueabi/sysroot/lib/libc.so.6
getrusage@@GLIBC_2.4                              /home/tool/arm-hjimi-linux-gnueabi/arm-hjimi-linux-gnueabi/sysroot/lib/libc.so.6
getrusage@GLIBC_2.4                               /home/tool/arm-hjimi-linux-gnueabi/arm-hjimi-linux-gnueabi/sysroot/lib/libc.so.6
gets                                              /home/tool/arm-hjimi-linux-gnueabi/arm-hjimi-linux-gnueabi/sysroot/lib/libc.so.6
gets@@GLIBC_2.4                                   /home/tool/arm-hjimi-linux-gnueabi/arm-hjimi-linux-gnueabi/sysroot/lib/libc.so.6
gets@GLIBC_2.4                                    /home/tool/arm-hjimi-linux-gnueabi/arm-hjimi-linux-gnueabi/sysroot/lib/libc.so.6
getsockname                                       /home/tool/arm-hjimi-linux-gnueabi/arm-hjimi-linux-gnueabi/sysroot/lib/libc.so.6
getsockname@@GLIBC_2.4                            /home/tool/arm-hjimi-linux-gnueabi/arm-hjimi-linux-gnueabi/sysroot/lib/libc.so.6
getsockname@GLIBC_2.4                             /home/tool/arm-hjimi-linux-gnueabi/arm-hjimi-linux-gnueabi/sysroot/lib/libc.so.6
getsockopt                                        /home/tool/arm-hjimi-linux-gnueabi/arm-hjimi-linux-gnueabi/sysroot/lib/libc.so.6
getsockopt@@GLIBC_2.4                             /home/tool/arm-hjimi-linux-gnueabi/arm-hjimi-linux-gnueabi/sysroot/lib/libc.so.6
getsockopt@GLIBC_2.4                              /home/tool/arm-hjimi-linux-gnueabi/arm-hjimi-linux-gnueabi/sysroot/lib/libc.so.6
gettext                                           /home/tool/arm-hjimi-linux-gnueabi/arm-hjimi-linux-gnueabi/sysroot/lib/libc.so.6
gettext@@GLIBC_2.4                                /home/tool/arm-hjimi-linux-gnueabi/arm-hjimi-linux-gnueabi/sysroot/lib/libc.so.6
gettext@GLIBC_2.4                                 /home/tool/arm-hjimi-linux-gnueabi/arm-hjimi-linux-gnueabi/sysroot/lib/libc.so.6
gettimeofday                                      /home/tool/arm-hjimi-linux-gnueabi/arm-hjimi-linux-gnueabi/sysroot/lib/libc.so.6
gettimeofday@@GLIBC_2.4                           /home/tool/arm-hjimi-linux-gnueabi/arm-hjimi-linux-gnueabi/sysroot/lib/libc.so.6
gettimeofday@GLIBC_2.4                            /home/tool/arm-hjimi-linux-gnueabi/arm-hjimi-linux-gnueabi/sysroot/lib/libc.so.6
getttyent                                         /home/tool/arm-hjimi-linux-gnueabi/arm-hjimi-linux-gnueabi/sysroot/lib/libc.so.6
getttyent@@GLIBC_2.4                              /home/tool/arm-hjimi-linux-gnueabi/arm-hjimi-linux-gnueabi/sysroot/lib/libc.so.6
getttyent@GLIBC_2.4                               /home/tool/arm-hjimi-linux-gnueabi/arm-hjimi-linux-gnueabi/sysroot/lib/libc.so.6
getttynam                                         /home/tool/arm-hjimi-linux-gnueabi/arm-hjimi-linux-gnueabi/sysroot/lib/libc.so.6
getttynam@@GLIBC_2.4                              /home/tool/arm-hjimi-linux-gnueabi/arm-hjimi-linux-gnueabi/sysroot/lib/libc.so.6
getttynam@GLIBC_2.4                               /home/tool/arm-hjimi-linux-gnueabi/arm-hjimi-linux-gnueabi/sysroot/lib/libc.so.6
getuid                                            /home/tool/arm-hjimi-linux-gnueabi/arm-hjimi-linux-gnueabi/sysroot/lib/libc.so.6
getuid@@GLIBC_2.4                                 /home/tool/arm-hjimi-linux-gnueabi/arm-hjimi-linux-gnueabi/sysroot/lib/libc.so.6
getuid@GLIBC_2.4                                  /home/tool/arm-hjimi-linux-gnueabi/arm-hjimi-linux-gnueabi/sysroot/lib/libc.so.6
getutent                                          /home/tool/arm-hjimi-linux-gnueabi/arm-hjimi-linux-gnueabi/sysroot/lib/libc.so.6
getutent@@GLIBC_2.4                               /home/tool/arm-hjimi-linux-gnueabi/arm-hjimi-linux-gnueabi/sysroot/lib/libc.so.6
getutent@GLIBC_2.4                                /home/tool/arm-hjimi-linux-gnueabi/arm-hjimi-linux-gnueabi/sysroot/lib/libc.so.6
getutent_r                                        /home/tool/arm-hjimi-linux-gnueabi/arm-hjimi-linux-gnueabi/sysroot/lib/libc.so.6
getutent_r@@GLIBC_2.4                             /home/tool/arm-hjimi-linux-gnueabi/arm-hjimi-linux-gnueabi/sysroot/lib/libc.so.6
getutent_r@GLIBC_2.4                              /home/tool/arm-hjimi-linux-gnueabi/arm-hjimi-linux-gnueabi/sysroot/lib/libc.so.6
getutid                                           /home/tool/arm-hjimi-linux-gnueabi/arm-hjimi-linux-gnueabi/sysroot/lib/libc.so.6
getutid@@GLIBC_2.4                                /home/tool/arm-hjimi-linux-gnueabi/arm-hjimi-linux-gnueabi/sysroot/lib/libc.so.6
getutid@GLIBC_2.4                                 /home/tool/arm-hjimi-linux-gnueabi/arm-hjimi-linux-gnueabi/sysroot/lib/libc.so.6
getutid_r                                         /home/tool/arm-hjimi-linux-gnueabi/arm-hjimi-linux-gnueabi/sysroot/lib/libc.so.6
getutid_r@@GLIBC_2.4                              /home/tool/arm-hjimi-linux-gnueabi/arm-hjimi-linux-gnueabi/sysroot/lib/libc.so.6
getutid_r@GLIBC_2.4                               /home/tool/arm-hjimi-linux-gnueabi/arm-hjimi-linux-gnueabi/sysroot/lib/libc.so.6
getutline                                         /home/tool/arm-hjimi-linux-gnueabi/arm-hjimi-linux-gnueabi/sysroot/lib/libc.so.6
getutline@@GLIBC_2.4                              /home/tool/arm-hjimi-linux-gnueabi/arm-hjimi-linux-gnueabi/sysroot/lib/libc.so.6
getutline@GLIBC_2.4                               /home/tool/arm-hjimi-linux-gnueabi/arm-hjimi-linux-gnueabi/sysroot/lib/libc.so.6
getutline_r                                       /home/tool/arm-hjimi-linux-gnueabi/arm-hjimi-linux-gnueabi/sysroot/lib/libc.so.6
getutline_r@@GLIBC_2.4                            /home/tool/arm-hjimi-linux-gnueabi/arm-hjimi-linux-gnueabi/sysroot/lib/libc.so.6
getutline_r@GLIBC_2.4                             /home/tool/arm-hjimi-linux-gnueabi/arm-hjimi-linux-gnueabi/sysroot/lib/libc.so.6
getwc                                             /home/tool/arm-hjimi-linux-gnueabi/arm-hjimi-linux-gnueabi/sysroot/lib/libc.so.6
getwc@@GLIBC_2.4                                  /home/tool/arm-hjimi-linux-gnueabi/arm-hjimi-linux-gnueabi/sysroot/lib/libc.so.6
getwc@GLIBC_2.4                                   /home/tool/arm-hjimi-linux-gnueabi/arm-hjimi-linux-gnueabi/sysroot/lib/libc.so.6
getwc_unlocked                                    /home/tool/arm-hjimi-linux-gnueabi/arm-hjimi-linux-gnueabi/sysroot/lib/libc.so.6
getwc_unlocked@@GLIBC_2.4                         /home/tool/arm-hjimi-linux-gnueabi/arm-hjimi-linux-gnueabi/sysroot/lib/libc.so.6
getwc_unlocked@GLIBC_2.4                          /home/tool/arm-hjimi-linux-gnueabi/arm-hjimi-linux-gnueabi/sysroot/lib/libc.so.6
glob_pattern_p                                    /home/tool/arm-hjimi-linux-gnueabi/arm-hjimi-linux-gnueabi/sysroot/lib/libc.so.6
glob_pattern_p@@GLIBC_2.4                         /home/tool/arm-hjimi-linux-gnueabi/arm-hjimi-linux-gnueabi/sysroot/lib/libc.so.6
glob_pattern_p@GLIBC_2.4                          /home/tool/arm-hjimi-linux-gnueabi/arm-hjimi-linux-gnueabi/sysroot/lib/libc.so.6
gmtime_r                                          /home/tool/arm-hjimi-linux-gnueabi/arm-hjimi-linux-gnueabi/sysroot/lib/libc.so.6
gmtime_r@@GLIBC_2.4                               /home/tool/arm-hjimi-linux-gnueabi/arm-hjimi-linux-gnueabi/sysroot/lib/libc.so.6
gmtime_r@GLIBC_2.4                                /home/tool/arm-hjimi-linux-gnueabi/arm-hjimi-linux-gnueabi/sysroot/lib/libc.so.6
gnu_get_libc_release                              /home/tool/arm-hjimi-linux-gnueabi/arm-hjimi-linux-gnueabi/sysroot/lib/libc.so.6
gnu_get_libc_release@@GLIBC_2.4                   /home/tool/arm-hjimi-linux-gnueabi/arm-hjimi-linux-gnueabi/sysroot/lib/libc.so.6
gnu_get_libc_release@GLIBC_2.4                    /home/tool/arm-hjimi-linux-gnueabi/arm-hjimi-linux-gnueabi/sysroot/lib/libc.so.6
gnu_get_libc_version                              /home/tool/arm-hjimi-linux-gnueabi/arm-hjimi-linux-gnueabi/sysroot/lib/libc.so.6
gnu_get_libc_version@@GLIBC_2.4                   /home/tool/arm-hjimi-linux-gnueabi/arm-hjimi-linux-gnueabi/sysroot/lib/libc.so.6
gnu_get_libc_version@GLIBC_2.4                    /home/tool/arm-hjimi-linux-gnueabi/arm-hjimi-linux-gnueabi/sysroot/lib/libc.so.6
gpad_request_one                                  output/drivers/gpio/gpio.o
gpio_device_init                                  output/drivers/gpio/gpio.o
gpio_direction_input                              output/drivers/gpio/gpio.o
gpio_direction_output                             output/drivers/gpio/gpio.o
gpio_get_direction                                output/drivers/gpio/gpio.o
gpio_get_value                                    output/drivers/gpio/gpio.o
gpio_handler1                                     output/drivers/gpio/gpio.o
gpio_irq_mask                                     output/drivers/gpio/gpio.o
gpio_irq_set_type                                 output/drivers/gpio/gpio.o
gpio_irq_unmask                                   output/drivers/gpio/gpio.o
gpio_is_valid                                     output/drivers/gpio/gpio.o
                                                  output/drivers/vcsel_driver/lm3644.o
gpio_module_init                                  output/drivers/gpio/gpio.o
gpio_print_irq_statistics                         output/drivers/gpio/gpio.o
                                                  output/drivers/irq/vic_int.o
gpio_request_irq                                  output/drivers/gpio/gpio.o
                                                  output/drivers/irq/vic_int.o
gpio_request_one                                  output/drivers/gpio/gpio.o
                                                  output/drivers/vcsel_driver/lm3644.o
gpio_set_debounce                                 output/drivers/gpio/gpio.o
gpio_set_value                                    output/drivers/gpio/gpio.o
                                                  output/drivers/vcsel_driver/lm3644.o
                                                  output/drivers/trigger/sensor_sync_2280.o
                                                  output/drivers/irrx/ov928x.o
group_member                                      /home/tool/arm-hjimi-linux-gnueabi/arm-hjimi-linux-gnueabi/sysroot/lib/libc.so.6
group_member@@GLIBC_2.4                           /home/tool/arm-hjimi-linux-gnueabi/arm-hjimi-linux-gnueabi/sysroot/lib/libc.so.6
group_member@GLIBC_2.4                            /home/tool/arm-hjimi-linux-gnueabi/arm-hjimi-linux-gnueabi/sysroot/lib/libc.so.6
gsignal                                           /home/tool/arm-hjimi-linux-gnueabi/arm-hjimi-linux-gnueabi/sysroot/lib/libc.so.6
gsignal@@GLIBC_2.4                                /home/tool/arm-hjimi-linux-gnueabi/arm-hjimi-linux-gnueabi/sysroot/lib/libc.so.6
gsignal@GLIBC_2.4                                 /home/tool/arm-hjimi-linux-gnueabi/arm-hjimi-linux-gnueabi/sysroot/lib/libc.so.6
handle_one_vic                                    output/drivers/irq/vic_int.o
hang                                              output/boards/2280_ddr/start/section.o
hasmntopt                                         /home/tool/arm-hjimi-linux-gnueabi/arm-hjimi-linux-gnueabi/sysroot/lib/libc.so.6
hasmntopt@@GLIBC_2.4                              /home/tool/arm-hjimi-linux-gnueabi/arm-hjimi-linux-gnueabi/sysroot/lib/libc.so.6
hasmntopt@GLIBC_2.4                               /home/tool/arm-hjimi-linux-gnueabi/arm-hjimi-linux-gnueabi/sysroot/lib/libc.so.6
hcreate_r                                         /home/tool/arm-hjimi-linux-gnueabi/arm-hjimi-linux-gnueabi/sysroot/lib/libc.so.6
hcreate_r@@GLIBC_2.4                              /home/tool/arm-hjimi-linux-gnueabi/arm-hjimi-linux-gnueabi/sysroot/lib/libc.so.6
hcreate_r@GLIBC_2.4                               /home/tool/arm-hjimi-linux-gnueabi/arm-hjimi-linux-gnueabi/sysroot/lib/libc.so.6
hdestroy                                          /home/tool/arm-hjimi-linux-gnueabi/arm-hjimi-linux-gnueabi/sysroot/lib/libc.so.6
hdestroy@@GLIBC_2.4                               /home/tool/arm-hjimi-linux-gnueabi/arm-hjimi-linux-gnueabi/sysroot/lib/libc.so.6
hdestroy@GLIBC_2.4                                /home/tool/arm-hjimi-linux-gnueabi/arm-hjimi-linux-gnueabi/sysroot/lib/libc.so.6
hdestroy_r                                        /home/tool/arm-hjimi-linux-gnueabi/arm-hjimi-linux-gnueabi/sysroot/lib/libc.so.6
hdestroy_r@@GLIBC_2.4                             /home/tool/arm-hjimi-linux-gnueabi/arm-hjimi-linux-gnueabi/sysroot/lib/libc.so.6
hdestroy_r@GLIBC_2.4                              /home/tool/arm-hjimi-linux-gnueabi/arm-hjimi-linux-gnueabi/sysroot/lib/libc.so.6
hsearch_r                                         /home/tool/arm-hjimi-linux-gnueabi/arm-hjimi-linux-gnueabi/sysroot/lib/libc.so.6
hsearch_r@@GLIBC_2.4                              /home/tool/arm-hjimi-linux-gnueabi/arm-hjimi-linux-gnueabi/sysroot/lib/libc.so.6
hsearch_r@GLIBC_2.4                               /home/tool/arm-hjimi-linux-gnueabi/arm-hjimi-linux-gnueabi/sysroot/lib/libc.so.6
hw_info                                           output/drivers/irrx/ov928x.o
i2c_add_adapter                                   output/drivers/i2c/i2c_core.o
i2c_add_numbered_adapter                          output/drivers/i2c/i2c_core.o
                                                  output/drivers/i2c/i2c-designware-slave.o
                                                  output/drivers/i2c/i2c-designware-master.o
i2c_check_7bit_addr_validity_strict               output/drivers/i2c/i2c_core.o
i2c_del_adapter                                   output/drivers/i2c/i2c_core.o
                                                  output/drivers/i2c/i2c-designware-platdrv.o
i2c_dw_acquire_lock                               output/drivers/i2c/i2c-designware-common.o
                                                  output/drivers/i2c/i2c-designware-slave.o
                                                  output/drivers/i2c/i2c-designware-master.o
i2c_dw_clk_rate                                   output/drivers/i2c/i2c-designware-common.o
                                                  output/drivers/i2c/i2c-designware-slave.o
                                                  output/drivers/i2c/i2c-designware-master.o
i2c_dw_disable                                    output/drivers/i2c/i2c-designware-common.o
                                                  output/drivers/i2c/i2c-designware-slave.o
                                                  output/drivers/i2c/i2c-designware-master.o
i2c_dw_disable_int                                output/drivers/i2c/i2c-designware-common.o
                                                  output/drivers/i2c/i2c-designware-slave.o
                                                  output/drivers/i2c/i2c-designware-master.o
i2c_dw_dma_en                                     output/drivers/i2c/i2c-designware-dma.o
i2c_dw_func                                       output/drivers/i2c/i2c-designware-common.o
                                                  output/drivers/i2c/i2c-designware-slave.o
                                                  output/drivers/i2c/i2c-designware-master.o
i2c_dw_handle_tx_abort                            output/drivers/i2c/i2c-designware-common.o
                                                  output/drivers/i2c/i2c-designware-master.o
i2c_dw_probe                                      output/drivers/i2c/i2c-designware-master.o
                                                  output/drivers/i2c/i2c-designware-platdrv.o
i2c_dw_probe_slave                                output/drivers/i2c/i2c-designware-slave.o
                                                  output/drivers/i2c/i2c-designware-platdrv.o
i2c_dw_read_comp_param                            output/drivers/i2c/i2c-designware-common.o
                                                  output/drivers/i2c/i2c-designware-platdrv.o
                                                  output/drivers/i2c/i2c-designware-dma.o
i2c_dw_release_lock                               output/drivers/i2c/i2c-designware-common.o
                                                  output/drivers/i2c/i2c-designware-slave.o
                                                  output/drivers/i2c/i2c-designware-master.o
i2c_dw_scl_hcnt                                   output/drivers/i2c/i2c-designware-common.o
                                                  output/drivers/i2c/i2c-designware-slave.o
                                                  output/drivers/i2c/i2c-designware-master.o
i2c_dw_scl_lcnt                                   output/drivers/i2c/i2c-designware-common.o
                                                  output/drivers/i2c/i2c-designware-slave.o
                                                  output/drivers/i2c/i2c-designware-master.o
i2c_dw_wait_bus_not_busy                          output/drivers/i2c/i2c-designware-common.o
                                                  output/drivers/i2c/i2c-designware-master.o
i2c_get_adapter                                   output/drivers/i2c/i2c_core.o
                                                  output/drivers/vcsel_driver/lm3644.o
                                                  output/drivers/vcsel_driver/lm36011.o
                                                  output/drivers/irrx/ov928x.o
i2c_master_recv                                   output/drivers/i2c/i2c_core.o
                                                  output/drivers/vcsel_driver/lm3644.o
                                                  output/drivers/vcsel_driver/lm36011.o
                                                  output/drivers/irrx/ov928x.o
i2c_master_send                                   output/drivers/i2c/i2c_core.o
                                                  output/drivers/vcsel_driver/lm3644.o
                                                  output/drivers/vcsel_driver/lm36011.o
                                                  output/drivers/irrx/ov928x.o
i2c_new_device                                    output/drivers/i2c/i2c_core.o
                                                  output/drivers/vcsel_driver/lm3644.o
                                                  output/drivers/vcsel_driver/lm36011.o
                                                  output/drivers/irrx/ov928x.o
i2c_probe                                         output/drivers/i2c/i2c_core.o
i2c_slave_register                                output/drivers/i2c/i2c_core.o
i2c_slave_unregister                              output/drivers/i2c/i2c_core.o
i2c_transfer                                      output/drivers/i2c/i2c_core.o
i2c_unregister_device                             output/drivers/i2c/i2c_core.o
ibpl                                              output/drivers/buf_man/imi_bm.o
icache_disable                                    output/drivers/soc/cache-cp15.o
icache_enable                                     output/drivers/soc/cache-cp15.o
                                                  output/main/main.o
icache_status                                     output/drivers/soc/cache-cp15.o
idle_handle                                       output/app/dpu/dputask.o
idletask                                          output/app/dpu/dputask.o
if_freenameindex                                  /home/tool/arm-hjimi-linux-gnueabi/arm-hjimi-linux-gnueabi/sysroot/lib/libc.so.6
if_freenameindex@@GLIBC_2.4                       /home/tool/arm-hjimi-linux-gnueabi/arm-hjimi-linux-gnueabi/sysroot/lib/libc.so.6
if_freenameindex@GLIBC_2.4                        /home/tool/arm-hjimi-linux-gnueabi/arm-hjimi-linux-gnueabi/sysroot/lib/libc.so.6
if_indextoname                                    /home/tool/arm-hjimi-linux-gnueabi/arm-hjimi-linux-gnueabi/sysroot/lib/libc.so.6
if_indextoname@@GLIBC_2.4                         /home/tool/arm-hjimi-linux-gnueabi/arm-hjimi-linux-gnueabi/sysroot/lib/libc.so.6
if_indextoname@GLIBC_2.4                          /home/tool/arm-hjimi-linux-gnueabi/arm-hjimi-linux-gnueabi/sysroot/lib/libc.so.6
if_nameindex                                      /home/tool/arm-hjimi-linux-gnueabi/arm-hjimi-linux-gnueabi/sysroot/lib/libc.so.6
if_nameindex@@GLIBC_2.4                           /home/tool/arm-hjimi-linux-gnueabi/arm-hjimi-linux-gnueabi/sysroot/lib/libc.so.6
if_nameindex@GLIBC_2.4                            /home/tool/arm-hjimi-linux-gnueabi/arm-hjimi-linux-gnueabi/sysroot/lib/libc.so.6
if_nametoindex                                    /home/tool/arm-hjimi-linux-gnueabi/arm-hjimi-linux-gnueabi/sysroot/lib/libc.so.6
if_nametoindex@@GLIBC_2.4                         /home/tool/arm-hjimi-linux-gnueabi/arm-hjimi-linux-gnueabi/sysroot/lib/libc.so.6
if_nametoindex@GLIBC_2.4                          /home/tool/arm-hjimi-linux-gnueabi/arm-hjimi-linux-gnueabi/sysroot/lib/libc.so.6
imaxabs                                           /home/tool/arm-hjimi-linux-gnueabi/arm-hjimi-linux-gnueabi/sysroot/lib/libc.so.6
imaxabs@@GLIBC_2.4                                /home/tool/arm-hjimi-linux-gnueabi/arm-hjimi-linux-gnueabi/sysroot/lib/libc.so.6
imaxabs@GLIBC_2.4                                 /home/tool/arm-hjimi-linux-gnueabi/arm-hjimi-linux-gnueabi/sysroot/lib/libc.so.6
imaxdiv                                           /home/tool/arm-hjimi-linux-gnueabi/arm-hjimi-linux-gnueabi/sysroot/lib/libc.so.6
imaxdiv@@GLIBC_2.4                                /home/tool/arm-hjimi-linux-gnueabi/arm-hjimi-linux-gnueabi/sysroot/lib/libc.so.6
imaxdiv@GLIBC_2.4                                 /home/tool/arm-hjimi-linux-gnueabi/arm-hjimi-linux-gnueabi/sysroot/lib/libc.so.6
imi1680_a2b_clear                                 output/drivers/mailbox/imi_mailbox.o
                                                  output/drivers/mailbox/mailbox.o
imi1680_a2b_enable                                output/drivers/mailbox/imi_mailbox.o
imi1680_a2b_status                                output/drivers/mailbox/imi_mailbox.o
imi1680_a2b_trigger                               output/drivers/mailbox/imi_mailbox.o
imi1680_b2a_clear                                 output/drivers/mailbox/imi_mailbox.o
                                                  output/drivers/mailbox/mailbox.o
imi1680_b2a_enable                                output/drivers/mailbox/imi_mailbox.o
imi1680_b2a_status                                output/drivers/mailbox/imi_mailbox.o
imi1680_b2a_trigger                               output/drivers/mailbox/imi_mailbox.o
imi2280_reset_probe                               output/drivers/reset/reset_imi2280.o
imi_1680_usb                                      output/drivers/usb/gadget/function/f_imi.o
                                                  output/drivers/usb/gadget/legacy/g_imi_usb.o
imi_2280_clk_default                              output/drivers/clock/clock_2280.o
imi_2280_i2c_controller_init                      output/drivers/i2c/i2c-designware-platdrv.o
imi_CLIRegisterCommand                            output/tools/FreeRTOS_CLI/imi_console.o
                                                  output/main/uart_task.o
imi_IsQueueEmpty                                  output/rtos/queue.o
imi_add_to_wait                                   output/drivers/base/imi_dev.o
                                                  output/drivers/usb/gadget/function/f_imi.o
imi_alloc_transfer_buf                            output/drivers/usb/gadget/function/u_imi.o
imi_bm_handler                                    output/app/dpu/dputask.o
imi_bufpool_base                                  output/drivers/buf_man/imi_bm.o
imi_close                                         output/drivers/base/imi_dev.o
                                                  output/app/imi_app/subsystem/usb/vendor_usb.o
imi_cmd_dev_deinit                                output/drivers/usb/gadget/function/imi_vendor_cmd.o
                                                  output/drivers/usb/gadget/function/f_imi.o
imi_cmd_dev_init                                  output/drivers/usb/gadget/function/imi_vendor_cmd.o
                                                  output/drivers/usb/gadget/function/f_imi.o
imi_cmd_dev_req_match                             output/drivers/usb/gadget/function/imi_vendor_cmd.o
                                                  output/drivers/usb/gadget/function/f_imi.o
imi_cmd_dev_setup                                 output/drivers/usb/gadget/function/imi_vendor_cmd.o
                                                  output/drivers/usb/gadget/function/f_imi.o
imi_cmd_hal                                       output/app/imi_app/vendor/cmd_hal.o
imi_cmd_hal_deinit                                output/app/imi_app/vendor/cmd_hal.o
                                                  output/app/imi_app/vendor/vendor_device.o
imi_cmd_hal_init                                  output/app/imi_app/vendor/cmd_hal.o
                                                  output/app/imi_app/vendor/vendor_device.o
imi_csi2_dhpy_calib_check                         output/drivers/csi_rx/csi_rx_2280.o
                                                  output/drivers/csi_rx/vidomain_2280.o
imi_csi2_dhpy_reset                               output/drivers/csi_rx/csi_rx_2280.o
                                                  output/drivers/csi_rx/vidomain_2280.o
imi_csi2_start                                    output/drivers/csi_rx/csi_rx_2280.o
                                                  output/drivers/csi_rx/vidomain_2280.o
imi_csi2_start_reset                              output/drivers/csi_rx/csi_rx_2280.o
                                                  output/drivers/csi_rx/vidomain_2280.o
imi_csi2_stop                                     output/drivers/csi_rx/csi_rx_2280.o
                                                  output/drivers/csi_rx/vidomain_2280.o
imi_csi_calc_freq                                 output/drivers/csi_rx/csi_rx_2280.o
                                                  output/drivers/csi_rx/vidomain_2280.o
imi_delay                                         output/drivers/delay/delay.o
imi_deregister_dev                                output/drivers/base/imi_dev.o
                                                  output/drivers/usb/gadget/function/imi_vendor_cmd.o
                                                  output/drivers/usb/gadget/function/f_imi.o
imi_dma_device                                    output/drivers/dma/dmaengine.o
imi_dpu_rvl                                       output/drivers/rvl/rvl.o
imi_dpu_rvl_out_data                              output/drivers/rvl/rvl.o
imi_elog_init                                     output/tools/easylogger/port/elog_init.o
imi_evt_grps                                      output/drivers/ipc/imi_ipc.o
                                                  output/app/dpu/msg_module.o
                                                  output/app/dpu/dputask.o
imi_finish_wait                                   output/drivers/base/imi_dev.o
                                                  output/drivers/usb/gadget/function/imi_vendor_cmd.o
                                                  output/drivers/usb/gadget/function/f_imi.o
imi_get_csi                                       output/drivers/csi_rx/csi_rx_2280.o
                                                  output/drivers/csi_rx/vidomain_2280.o
imi_get_cur_time                                  output/drivers/timers/timer_imi2280.o
                                                  output/tools/printf/printf.o
imi_ioctl                                         output/drivers/base/imi_dev.o
                                                  output/app/imi_app/vendor/cmd_hal.o
                                                  output/app/imi_app/subsystem/usb/vendor_usb.o
imi_ipc_dump_msg                                  output/drivers/ipc/imi_ipc.o
                                                  output/app/dpu/dpu_hal.o
imi_ipc_init                                      output/drivers/ipc/imi_ipc.o
                                                  output/app/dpu/dputask.o
imi_mail_desc                                     output/drivers/mailbox/mailbox.o
                                                  output/drivers/mailbox/imi_mailbox.o
imi_mailbox_driver                                output/drivers/mailbox/mailbox.o
imi_open                                          output/drivers/base/imi_dev.o
                                                  output/app/imi_app/vendor/cmd_hal.o
                                                  output/app/imi_app/subsystem/usb/vendor_usb.o
imi_poll                                          output/drivers/base/imi_dev.o
                                                  output/app/imi_app/subsystem/usb/vendor_usb.o
imi_prepare_to_wait                               output/drivers/base/imi_dev.o
                                                  output/drivers/usb/gadget/function/imi_vendor_cmd.o
                                                  output/drivers/usb/gadget/function/f_imi.o
imi_printf                                        output/tools/printf/printf.o
                                                  output/tools/FreeRTOS_CLI/imi_console.o
                                                  output/tools/FreeRTOS_CLI/FreeRTOS_CLI.o
                                                  output/drivers/vcsel_driver/lm3644.o
                                                  output/drivers/vcsel_driver/lm36011.o
                                                  output/drivers/usb/musb/musbhsdma.o
                                                  output/drivers/usb/musb/musb_rtos.o
                                                  output/drivers/usb/musb/musb_gadget_ep0.o
                                                  output/drivers/usb/musb/musb_core.o
                                                  output/drivers/usb/gadget/legacy/g_imi_usb.o
                                                  output/drivers/usb/gadget/function/u_imi.o
                                                  output/drivers/usb/gadget/function/imi_vendor_cmd.o
                                                  output/drivers/usb/gadget/function/f_imi.o
                                                  output/drivers/usb/gadget/core.o
                                                  output/drivers/usb/gadget/composite.o
                                                  output/drivers/trigger/sensor_sync_2280.o
                                                  output/drivers/soc/dma_buf.o
                                                  output/drivers/reset/reset.o
                                                  output/drivers/reset/reset_imi2280.o
                                                  output/drivers/qspi/nand_test.o
                                                  output/drivers/qspi/nor_test.o
                                                  output/drivers/pinmux/pinmux.o
                                                  output/drivers/irrx/ov928x.o
                                                  output/drivers/irq/interrupt.o
                                                  output/drivers/irq/vic_int.o
                                                  output/drivers/irq/chip.o
                                                  output/drivers/i2c/i2c_core.o
                                                  output/drivers/i2c/i2c-designware-slave.o
                                                  output/drivers/i2c/i2c-designware-platdrv.o
                                                  output/drivers/i2c/i2c-designware-master.o
                                                  output/drivers/i2c/i2c-designware-common.o
                                                  output/drivers/gpio/gpio.o
                                                  output/drivers/dpu_2280/dpu_dev.o
                                                  output/drivers/dpu_2280/debug.o
                                                  output/drivers/dma/pl330.o
                                                  output/drivers/dma/dmaengine.o
                                                  output/drivers/csi_rx/vidomain_2280.o
                                                  output/drivers/csi_rx/csi_rx_2280.o
                                                  output/drivers/buf_man/imi_bm.o
                                                  output/drivers/base/imi_dev.o
                                                  output/app/dpu/msg_module.o
                                                  output/app/dpu/dputask.o
                                                  output/main/main.o
                                                  output/main/uart_task.o
                                                  output/rtos/timers.o
                                                  output/rtos/tasks.o
                                                  output/rtos/stream_buffer.o
                                                  output/rtos/queue.o
                                                  output/rtos/portable/MemMang/heap_4.o
                                                  output/rtos/event_groups.o
imi_read                                          output/drivers/base/imi_dev.o
                                                  output/app/imi_app/vendor/cmd_hal.o
imi_register_dev                                  output/drivers/base/imi_dev.o
                                                  output/drivers/usb/gadget/function/imi_vendor_cmd.o
                                                  output/drivers/usb/gadget/function/f_imi.o
imi_release_vi_domain                             output/drivers/csi_rx/vidomain_2280.o
imi_request_vi_domain                             output/drivers/csi_rx/vidomain_2280.o
imi_ring_buf_count                                output/drivers/ipc/imi_ipc.o
imi_ring_buf_deinit                               output/drivers/ipc/imi_ipc.o
imi_ring_buf_init                                 output/drivers/ipc/imi_ipc.o
imi_ring_buf_is_empty                             output/drivers/ipc/imi_ipc.o
imi_ring_buf_is_full                              output/drivers/ipc/imi_ipc.o
imi_ring_buf_read                                 output/drivers/ipc/imi_ipc.o
                                                  output/app/dpu/dputask.o
imi_ring_buf_reset                                output/drivers/ipc/imi_ipc.o
imi_ring_buf_write                                output/drivers/ipc/imi_ipc.o
                                                  output/app/dpu/msg_module.o
imi_rvl                                           output/drivers/rvl/rvl.o
imi_rvl_driver                                    output/drivers/rvl/rvl.o
imi_rvl_out_data                                  output/drivers/rvl/rvl.o
imi_send_buffer                                   output/app/dpu/msg_module.o
                                                  output/app/dpu/dpu_hal.o
imi_send_event                                    output/app/dpu/msg_module.o
imi_send_event_isr                                output/app/dpu/msg_module.o
                                                  output/app/dpu/dputask.o
imi_sub_system_usb                                output/app/imi_app/subsystem/usb/vendor_usb.o
                                                  output/app/imi_app/subsystem/vendor_sub_system.o
imi_task_init                                     output/app/dpu/dputask.o
imi_timer_disable                                 output/drivers/timers/timer_imi2280.o
imi_timer_en                                      output/drivers/timers/timer_imi2280.o
                                                  output/drivers/delay/delay.o
imi_timer_get_val                                 output/drivers/timers/timer_imi2280.o
                                                  output/drivers/delay/delay.o
imi_timer_int_clr                                 output/drivers/timers/timer_imi2280.o
imi_upload_init                                   output/drivers/usb/gadget/function/u_imi.o
                                                  output/drivers/usb/gadget/function/f_imi.o
imi_vendor_device_deinit                          output/app/imi_app/vendor/vendor_device.o
imi_vendor_device_init                            output/app/imi_app/vendor/vendor_device.o
                                                  output/main/main.o
imi_video_enable                                  output/drivers/usb/gadget/function/u_imi.o
                                                  output/drivers/usb/gadget/function/f_imi.o
imi_video_init                                    output/drivers/usb/gadget/function/u_imi.o
                                                  output/drivers/usb/gadget/function/f_imi.o
imi_video_pump                                    output/drivers/usb/gadget/function/u_imi.o
                                                  output/drivers/usb/gadget/function/f_imi.o
imi_video_sub_dev_stream_on                       output/drivers/usb/gadget/function/u_imi.o
                                                  output/drivers/usb/gadget/function/f_imi.o
imi_vsnprintf                                     output/tools/printf/vsnprintf.o
                                                  output/tools/printf/printf.o
                                                  output/tools/easylogger/src/elog.o
imi_wait_evt                                      output/drivers/base/imi_dev.o
                                                  output/drivers/usb/gadget/function/imi_vendor_cmd.o
                                                  output/drivers/usb/gadget/function/f_imi.o
imi_wakeup_all                                    output/drivers/base/imi_dev.o
                                                  output/drivers/usb/gadget/function/u_imi.o
                                                  output/drivers/usb/gadget/function/imi_vendor_cmd.o
                                                  output/drivers/usb/gadget/function/f_imi.o
imi_wakeup_one                                    output/drivers/base/imi_dev.o
                                                  output/drivers/usb/gadget/function/imi_vendor_cmd.o
                                                  output/drivers/usb/gadget/function/f_imi.o
imi_write                                         output/drivers/base/imi_dev.o
                                                  output/app/imi_app/vendor/cmd_hal.o
in6addr_any                                       /home/tool/arm-hjimi-linux-gnueabi/arm-hjimi-linux-gnueabi/sysroot/lib/libc.so.6
in6addr_any@@GLIBC_2.4                            /home/tool/arm-hjimi-linux-gnueabi/arm-hjimi-linux-gnueabi/sysroot/lib/libc.so.6
in6addr_any@GLIBC_2.4                             /home/tool/arm-hjimi-linux-gnueabi/arm-hjimi-linux-gnueabi/sysroot/lib/libc.so.6
in6addr_loopback                                  /home/tool/arm-hjimi-linux-gnueabi/arm-hjimi-linux-gnueabi/sysroot/lib/libc.so.6
in6addr_loopback@@GLIBC_2.4                       /home/tool/arm-hjimi-linux-gnueabi/arm-hjimi-linux-gnueabi/sysroot/lib/libc.so.6
in6addr_loopback@GLIBC_2.4                        /home/tool/arm-hjimi-linux-gnueabi/arm-hjimi-linux-gnueabi/sysroot/lib/libc.so.6
inb                                               /home/tool/arm-hjimi-linux-gnueabi/arm-hjimi-linux-gnueabi/sysroot/lib/libc.so.6
inb@@GLIBC_2.4                                    /home/tool/arm-hjimi-linux-gnueabi/arm-hjimi-linux-gnueabi/sysroot/lib/libc.so.6
inb@GLIBC_2.4                                     /home/tool/arm-hjimi-linux-gnueabi/arm-hjimi-linux-gnueabi/sysroot/lib/libc.so.6
index                                             /home/tool/arm-hjimi-linux-gnueabi/arm-hjimi-linux-gnueabi/sysroot/lib/libc.so.6
index@@GLIBC_2.4                                  /home/tool/arm-hjimi-linux-gnueabi/arm-hjimi-linux-gnueabi/sysroot/lib/libc.so.6
index@GLIBC_2.4                                   /home/tool/arm-hjimi-linux-gnueabi/arm-hjimi-linux-gnueabi/sysroot/lib/libc.so.6
inet_addr                                         /home/tool/arm-hjimi-linux-gnueabi/arm-hjimi-linux-gnueabi/sysroot/lib/libc.so.6
inet_addr@@GLIBC_2.4                              /home/tool/arm-hjimi-linux-gnueabi/arm-hjimi-linux-gnueabi/sysroot/lib/libc.so.6
inet_addr@GLIBC_2.4                               /home/tool/arm-hjimi-linux-gnueabi/arm-hjimi-linux-gnueabi/sysroot/lib/libc.so.6
inet_aton                                         /home/tool/arm-hjimi-linux-gnueabi/arm-hjimi-linux-gnueabi/sysroot/lib/libc.so.6
inet_aton@@GLIBC_2.4                              /home/tool/arm-hjimi-linux-gnueabi/arm-hjimi-linux-gnueabi/sysroot/lib/libc.so.6
inet_aton@GLIBC_2.4                               /home/tool/arm-hjimi-linux-gnueabi/arm-hjimi-linux-gnueabi/sysroot/lib/libc.so.6
inet_makeaddr                                     /home/tool/arm-hjimi-linux-gnueabi/arm-hjimi-linux-gnueabi/sysroot/lib/libc.so.6
inet_makeaddr@@GLIBC_2.4                          /home/tool/arm-hjimi-linux-gnueabi/arm-hjimi-linux-gnueabi/sysroot/lib/libc.so.6
inet_makeaddr@GLIBC_2.4                           /home/tool/arm-hjimi-linux-gnueabi/arm-hjimi-linux-gnueabi/sysroot/lib/libc.so.6
inet_pton                                         /home/tool/arm-hjimi-linux-gnueabi/arm-hjimi-linux-gnueabi/sysroot/lib/libc.so.6
inet_pton@@GLIBC_2.4                              /home/tool/arm-hjimi-linux-gnueabi/arm-hjimi-linux-gnueabi/sysroot/lib/libc.so.6
inet_pton@GLIBC_2.4                               /home/tool/arm-hjimi-linux-gnueabi/arm-hjimi-linux-gnueabi/sysroot/lib/libc.so.6
init_chip_ddr                                     ./drivers/ddr/libddr_64.a(dcu.o)
                                                  output/drivers/irq/chip.o
init_mipi_itf_ir                                  output/drivers/csi_rx/vidomain_2280.o
                                                  output/drivers/irrx/irrx.o
init_work                                         output/drivers/base/imi_work.o
initstate                                         /home/tool/arm-hjimi-linux-gnueabi/arm-hjimi-linux-gnueabi/sysroot/lib/libc.so.6
initstate@@GLIBC_2.4                              /home/tool/arm-hjimi-linux-gnueabi/arm-hjimi-linux-gnueabi/sysroot/lib/libc.so.6
initstate@GLIBC_2.4                               /home/tool/arm-hjimi-linux-gnueabi/arm-hjimi-linux-gnueabi/sysroot/lib/libc.so.6
initstate_r                                       /home/tool/arm-hjimi-linux-gnueabi/arm-hjimi-linux-gnueabi/sysroot/lib/libc.so.6
initstate_r@@GLIBC_2.4                            /home/tool/arm-hjimi-linux-gnueabi/arm-hjimi-linux-gnueabi/sysroot/lib/libc.so.6
initstate_r@GLIBC_2.4                             /home/tool/arm-hjimi-linux-gnueabi/arm-hjimi-linux-gnueabi/sysroot/lib/libc.so.6
inl                                               /home/tool/arm-hjimi-linux-gnueabi/arm-hjimi-linux-gnueabi/sysroot/lib/libc.so.6
inl@@GLIBC_2.4                                    /home/tool/arm-hjimi-linux-gnueabi/arm-hjimi-linux-gnueabi/sysroot/lib/libc.so.6
inl@GLIBC_2.4                                     /home/tool/arm-hjimi-linux-gnueabi/arm-hjimi-linux-gnueabi/sysroot/lib/libc.so.6
interrupt_flg                                     output/drivers/irq/interrupt.o
                                                  output/rtos/portable/GCC/port.o
inw                                               /home/tool/arm-hjimi-linux-gnueabi/arm-hjimi-linux-gnueabi/sysroot/lib/libc.so.6
inw@@GLIBC_2.4                                    /home/tool/arm-hjimi-linux-gnueabi/arm-hjimi-linux-gnueabi/sysroot/lib/libc.so.6
inw@GLIBC_2.4                                     /home/tool/arm-hjimi-linux-gnueabi/arm-hjimi-linux-gnueabi/sysroot/lib/libc.so.6
ioctl                                             /home/tool/arm-hjimi-linux-gnueabi/arm-hjimi-linux-gnueabi/sysroot/lib/libc.so.6
ioctl@@GLIBC_2.4                                  /home/tool/arm-hjimi-linux-gnueabi/arm-hjimi-linux-gnueabi/sysroot/lib/libc.so.6
ioctl@GLIBC_2.4                                   /home/tool/arm-hjimi-linux-gnueabi/arm-hjimi-linux-gnueabi/sysroot/lib/libc.so.6
ioperm                                            /home/tool/arm-hjimi-linux-gnueabi/arm-hjimi-linux-gnueabi/sysroot/lib/libc.so.6
ioperm@@GLIBC_2.4                                 /home/tool/arm-hjimi-linux-gnueabi/arm-hjimi-linux-gnueabi/sysroot/lib/libc.so.6
ioperm@GLIBC_2.4                                  /home/tool/arm-hjimi-linux-gnueabi/arm-hjimi-linux-gnueabi/sysroot/lib/libc.so.6
iopl                                              /home/tool/arm-hjimi-linux-gnueabi/arm-hjimi-linux-gnueabi/sysroot/lib/libc.so.6
iopl@@GLIBC_2.4                                   /home/tool/arm-hjimi-linux-gnueabi/arm-hjimi-linux-gnueabi/sysroot/lib/libc.so.6
iopl@GLIBC_2.4                                    /home/tool/arm-hjimi-linux-gnueabi/arm-hjimi-linux-gnueabi/sysroot/lib/libc.so.6
ir_frame_dispatch                                 output/app/dpu/dputask.o
ir_irq_process                                    output/drivers/dpu_2280/dpu_dev.o
irq_desc                                          output/drivers/irq/vic_int.o
irq_enable                                        output/drivers/irq/vic_int.o
irq_to_desc                                       output/drivers/irq/vic_int.o
irrx_get_handle                                   output/drivers/irrx/irrx.o
irrx_get_id                                       output/drivers/irrx/irrx.o
                                                  output/app/dpu/dputask.o
                                                  output/app/dpu/dpu_hal.o
irrx_get_maxwin                                   output/drivers/irrx/irrx.o
                                                  output/app/dpu/dputask.o
                                                  output/app/dpu/dpu_hal.o
irrx_get_reg                                      output/drivers/irrx/irrx.o
                                                  output/app/dpu/dpu_hal.o
irrx_get_timing                                   output/drivers/irrx/irrx.o
irrx_init                                         output/drivers/irrx/irrx.o
                                                  output/app/dpu/dputask.o
irrx_power                                        output/drivers/irrx/irrx.o
                                                  output/app/dpu/dputask.o
                                                  output/app/dpu/dpu_hal.o
irrx_register                                     output/drivers/irrx/irrx.o
                                                  output/drivers/irrx/ov928x.o
irrx_reset                                        output/drivers/irrx/irrx.o
                                                  output/app/dpu/dpu_hal.o
irrx_set_ag                                       output/drivers/irrx/irrx.o
                                                  output/app/dpu/dputask.o
                                                  output/app/dpu/dpu_hal.o
irrx_set_dbg                                      output/drivers/irrx/irrx.o
                                                  output/app/dpu/dpu_hal.o
irrx_set_dg                                       output/drivers/irrx/irrx.o
                                                  output/app/dpu/dputask.o
                                                  output/app/dpu/dpu_hal.o
irrx_set_exp                                      output/drivers/irrx/irrx.o
                                                  output/app/dpu/dputask.o
                                                  output/app/dpu/dpu_hal.o
irrx_set_hts                                      output/drivers/irrx/irrx.o
                                                  output/app/dpu/dputask.o
                                                  output/app/dpu/dpu_hal.o
irrx_set_mirrorflip                               output/drivers/irrx/irrx.o
                                                  output/app/dpu/dputask.o
                                                  output/app/dpu/dpu_hal.o
irrx_set_reg                                      output/drivers/irrx/irrx.o
                                                  output/app/dpu/dpu_hal.o
irrx_set_stream                                   output/drivers/irrx/irrx.o
                                                  output/app/dpu/dpu_hal.o
irrx_set_timing                                   output/drivers/irrx/irrx.o
                                                  output/app/dpu/dputask.o
irrx_set_vts                                      output/drivers/irrx/irrx.o
                                                  output/app/dpu/dputask.o
                                                  output/app/dpu/dpu_hal.o
irrx_set_window                                   output/drivers/irrx/irrx.o
                                                  output/app/dpu/dpu_hal.o
irrx_sys_init                                     output/drivers/irrx/irrx.o
isalnum_l                                         /home/tool/arm-hjimi-linux-gnueabi/arm-hjimi-linux-gnueabi/sysroot/lib/libc.so.6
isalnum_l@@GLIBC_2.4                              /home/tool/arm-hjimi-linux-gnueabi/arm-hjimi-linux-gnueabi/sysroot/lib/libc.so.6
isalnum_l@GLIBC_2.4                               /home/tool/arm-hjimi-linux-gnueabi/arm-hjimi-linux-gnueabi/sysroot/lib/libc.so.6
isalpha_l                                         /home/tool/arm-hjimi-linux-gnueabi/arm-hjimi-linux-gnueabi/sysroot/lib/libc.so.6
isalpha_l@@GLIBC_2.4                              /home/tool/arm-hjimi-linux-gnueabi/arm-hjimi-linux-gnueabi/sysroot/lib/libc.so.6
isalpha_l@GLIBC_2.4                               /home/tool/arm-hjimi-linux-gnueabi/arm-hjimi-linux-gnueabi/sysroot/lib/libc.so.6
isatty                                            /home/tool/arm-hjimi-linux-gnueabi/arm-hjimi-linux-gnueabi/sysroot/lib/libc.so.6
isatty@@GLIBC_2.4                                 /home/tool/arm-hjimi-linux-gnueabi/arm-hjimi-linux-gnueabi/sysroot/lib/libc.so.6
isatty@GLIBC_2.4                                  /home/tool/arm-hjimi-linux-gnueabi/arm-hjimi-linux-gnueabi/sysroot/lib/libc.so.6
isblank_l                                         /home/tool/arm-hjimi-linux-gnueabi/arm-hjimi-linux-gnueabi/sysroot/lib/libc.so.6
isblank_l@@GLIBC_2.4                              /home/tool/arm-hjimi-linux-gnueabi/arm-hjimi-linux-gnueabi/sysroot/lib/libc.so.6
isblank_l@GLIBC_2.4                               /home/tool/arm-hjimi-linux-gnueabi/arm-hjimi-linux-gnueabi/sysroot/lib/libc.so.6
iscntrl_l                                         /home/tool/arm-hjimi-linux-gnueabi/arm-hjimi-linux-gnueabi/sysroot/lib/libc.so.6
iscntrl_l@@GLIBC_2.4                              /home/tool/arm-hjimi-linux-gnueabi/arm-hjimi-linux-gnueabi/sysroot/lib/libc.so.6
iscntrl_l@GLIBC_2.4                               /home/tool/arm-hjimi-linux-gnueabi/arm-hjimi-linux-gnueabi/sysroot/lib/libc.so.6
isctype                                           /home/tool/arm-hjimi-linux-gnueabi/arm-hjimi-linux-gnueabi/sysroot/lib/libc.so.6
isctype@@GLIBC_2.4                                /home/tool/arm-hjimi-linux-gnueabi/arm-hjimi-linux-gnueabi/sysroot/lib/libc.so.6
isctype@GLIBC_2.4                                 /home/tool/arm-hjimi-linux-gnueabi/arm-hjimi-linux-gnueabi/sysroot/lib/libc.so.6
isdigit_l                                         /home/tool/arm-hjimi-linux-gnueabi/arm-hjimi-linux-gnueabi/sysroot/lib/libc.so.6
isdigit_l@@GLIBC_2.4                              /home/tool/arm-hjimi-linux-gnueabi/arm-hjimi-linux-gnueabi/sysroot/lib/libc.so.6
isdigit_l@GLIBC_2.4                               /home/tool/arm-hjimi-linux-gnueabi/arm-hjimi-linux-gnueabi/sysroot/lib/libc.so.6
isgraph_l                                         /home/tool/arm-hjimi-linux-gnueabi/arm-hjimi-linux-gnueabi/sysroot/lib/libc.so.6
isgraph_l@@GLIBC_2.4                              /home/tool/arm-hjimi-linux-gnueabi/arm-hjimi-linux-gnueabi/sysroot/lib/libc.so.6
isgraph_l@GLIBC_2.4                               /home/tool/arm-hjimi-linux-gnueabi/arm-hjimi-linux-gnueabi/sysroot/lib/libc.so.6
isinf                                             /home/tool/arm-hjimi-linux-gnueabi/arm-hjimi-linux-gnueabi/sysroot/lib/libc.so.6
isinf@@GLIBC_2.4                                  /home/tool/arm-hjimi-linux-gnueabi/arm-hjimi-linux-gnueabi/sysroot/lib/libc.so.6
isinf@GLIBC_2.4                                   /home/tool/arm-hjimi-linux-gnueabi/arm-hjimi-linux-gnueabi/sysroot/lib/libc.so.6
isinff                                            /home/tool/arm-hjimi-linux-gnueabi/arm-hjimi-linux-gnueabi/sysroot/lib/libc.so.6
isinff@@GLIBC_2.4                                 /home/tool/arm-hjimi-linux-gnueabi/arm-hjimi-linux-gnueabi/sysroot/lib/libc.so.6
isinff@GLIBC_2.4                                  /home/tool/arm-hjimi-linux-gnueabi/arm-hjimi-linux-gnueabi/sysroot/lib/libc.so.6
isinfl                                            /home/tool/arm-hjimi-linux-gnueabi/arm-hjimi-linux-gnueabi/sysroot/lib/libc.so.6
isinfl@@GLIBC_2.4                                 /home/tool/arm-hjimi-linux-gnueabi/arm-hjimi-linux-gnueabi/sysroot/lib/libc.so.6
isinfl@GLIBC_2.4                                  /home/tool/arm-hjimi-linux-gnueabi/arm-hjimi-linux-gnueabi/sysroot/lib/libc.so.6
islower_l                                         /home/tool/arm-hjimi-linux-gnueabi/arm-hjimi-linux-gnueabi/sysroot/lib/libc.so.6
islower_l@@GLIBC_2.4                              /home/tool/arm-hjimi-linux-gnueabi/arm-hjimi-linux-gnueabi/sysroot/lib/libc.so.6
islower_l@GLIBC_2.4                               /home/tool/arm-hjimi-linux-gnueabi/arm-hjimi-linux-gnueabi/sysroot/lib/libc.so.6
isnan                                             /home/tool/arm-hjimi-linux-gnueabi/arm-hjimi-linux-gnueabi/sysroot/lib/libc.so.6
isnan@@GLIBC_2.4                                  /home/tool/arm-hjimi-linux-gnueabi/arm-hjimi-linux-gnueabi/sysroot/lib/libc.so.6
isnan@GLIBC_2.4                                   /home/tool/arm-hjimi-linux-gnueabi/arm-hjimi-linux-gnueabi/sysroot/lib/libc.so.6
isnanf                                            /home/tool/arm-hjimi-linux-gnueabi/arm-hjimi-linux-gnueabi/sysroot/lib/libc.so.6
isnanf@@GLIBC_2.4                                 /home/tool/arm-hjimi-linux-gnueabi/arm-hjimi-linux-gnueabi/sysroot/lib/libc.so.6
isnanf@GLIBC_2.4                                  /home/tool/arm-hjimi-linux-gnueabi/arm-hjimi-linux-gnueabi/sysroot/lib/libc.so.6
isnanl                                            /home/tool/arm-hjimi-linux-gnueabi/arm-hjimi-linux-gnueabi/sysroot/lib/libc.so.6
isnanl@@GLIBC_2.4                                 /home/tool/arm-hjimi-linux-gnueabi/arm-hjimi-linux-gnueabi/sysroot/lib/libc.so.6
isnanl@GLIBC_2.4                                  /home/tool/arm-hjimi-linux-gnueabi/arm-hjimi-linux-gnueabi/sysroot/lib/libc.so.6
isprint_l                                         /home/tool/arm-hjimi-linux-gnueabi/arm-hjimi-linux-gnueabi/sysroot/lib/libc.so.6
isprint_l@@GLIBC_2.4                              /home/tool/arm-hjimi-linux-gnueabi/arm-hjimi-linux-gnueabi/sysroot/lib/libc.so.6
isprint_l@GLIBC_2.4                               /home/tool/arm-hjimi-linux-gnueabi/arm-hjimi-linux-gnueabi/sysroot/lib/libc.so.6
ispunct_l                                         /home/tool/arm-hjimi-linux-gnueabi/arm-hjimi-linux-gnueabi/sysroot/lib/libc.so.6
ispunct_l@@GLIBC_2.4                              /home/tool/arm-hjimi-linux-gnueabi/arm-hjimi-linux-gnueabi/sysroot/lib/libc.so.6
ispunct_l@GLIBC_2.4                               /home/tool/arm-hjimi-linux-gnueabi/arm-hjimi-linux-gnueabi/sysroot/lib/libc.so.6
isspace_l                                         /home/tool/arm-hjimi-linux-gnueabi/arm-hjimi-linux-gnueabi/sysroot/lib/libc.so.6
isspace_l@@GLIBC_2.4                              /home/tool/arm-hjimi-linux-gnueabi/arm-hjimi-linux-gnueabi/sysroot/lib/libc.so.6
isspace_l@GLIBC_2.4                               /home/tool/arm-hjimi-linux-gnueabi/arm-hjimi-linux-gnueabi/sysroot/lib/libc.so.6
isupper_l                                         /home/tool/arm-hjimi-linux-gnueabi/arm-hjimi-linux-gnueabi/sysroot/lib/libc.so.6
isupper_l@@GLIBC_2.4                              /home/tool/arm-hjimi-linux-gnueabi/arm-hjimi-linux-gnueabi/sysroot/lib/libc.so.6
isupper_l@GLIBC_2.4                               /home/tool/arm-hjimi-linux-gnueabi/arm-hjimi-linux-gnueabi/sysroot/lib/libc.so.6
iswalnum                                          /home/tool/arm-hjimi-linux-gnueabi/arm-hjimi-linux-gnueabi/sysroot/lib/libc.so.6
iswalnum@@GLIBC_2.4                               /home/tool/arm-hjimi-linux-gnueabi/arm-hjimi-linux-gnueabi/sysroot/lib/libc.so.6
iswalnum@GLIBC_2.4                                /home/tool/arm-hjimi-linux-gnueabi/arm-hjimi-linux-gnueabi/sysroot/lib/libc.so.6
iswalnum_l                                        /home/tool/arm-hjimi-linux-gnueabi/arm-hjimi-linux-gnueabi/sysroot/lib/libc.so.6
iswalnum_l@@GLIBC_2.4                             /home/tool/arm-hjimi-linux-gnueabi/arm-hjimi-linux-gnueabi/sysroot/lib/libc.so.6
iswalnum_l@GLIBC_2.4                              /home/tool/arm-hjimi-linux-gnueabi/arm-hjimi-linux-gnueabi/sysroot/lib/libc.so.6
iswalpha                                          /home/tool/arm-hjimi-linux-gnueabi/arm-hjimi-linux-gnueabi/sysroot/lib/libc.so.6
iswalpha@@GLIBC_2.4                               /home/tool/arm-hjimi-linux-gnueabi/arm-hjimi-linux-gnueabi/sysroot/lib/libc.so.6
iswalpha@GLIBC_2.4                                /home/tool/arm-hjimi-linux-gnueabi/arm-hjimi-linux-gnueabi/sysroot/lib/libc.so.6
iswalpha_l                                        /home/tool/arm-hjimi-linux-gnueabi/arm-hjimi-linux-gnueabi/sysroot/lib/libc.so.6
iswalpha_l@@GLIBC_2.4                             /home/tool/arm-hjimi-linux-gnueabi/arm-hjimi-linux-gnueabi/sysroot/lib/libc.so.6
iswalpha_l@GLIBC_2.4                              /home/tool/arm-hjimi-linux-gnueabi/arm-hjimi-linux-gnueabi/sysroot/lib/libc.so.6
iswblank                                          /home/tool/arm-hjimi-linux-gnueabi/arm-hjimi-linux-gnueabi/sysroot/lib/libc.so.6
iswblank@@GLIBC_2.4                               /home/tool/arm-hjimi-linux-gnueabi/arm-hjimi-linux-gnueabi/sysroot/lib/libc.so.6
iswblank@GLIBC_2.4                                /home/tool/arm-hjimi-linux-gnueabi/arm-hjimi-linux-gnueabi/sysroot/lib/libc.so.6
iswblank_l                                        /home/tool/arm-hjimi-linux-gnueabi/arm-hjimi-linux-gnueabi/sysroot/lib/libc.so.6
iswblank_l@@GLIBC_2.4                             /home/tool/arm-hjimi-linux-gnueabi/arm-hjimi-linux-gnueabi/sysroot/lib/libc.so.6
iswblank_l@GLIBC_2.4                              /home/tool/arm-hjimi-linux-gnueabi/arm-hjimi-linux-gnueabi/sysroot/lib/libc.so.6
iswcntrl                                          /home/tool/arm-hjimi-linux-gnueabi/arm-hjimi-linux-gnueabi/sysroot/lib/libc.so.6
iswcntrl@@GLIBC_2.4                               /home/tool/arm-hjimi-linux-gnueabi/arm-hjimi-linux-gnueabi/sysroot/lib/libc.so.6
iswcntrl@GLIBC_2.4                                /home/tool/arm-hjimi-linux-gnueabi/arm-hjimi-linux-gnueabi/sysroot/lib/libc.so.6
iswcntrl_l                                        /home/tool/arm-hjimi-linux-gnueabi/arm-hjimi-linux-gnueabi/sysroot/lib/libc.so.6
iswcntrl_l@@GLIBC_2.4                             /home/tool/arm-hjimi-linux-gnueabi/arm-hjimi-linux-gnueabi/sysroot/lib/libc.so.6
iswcntrl_l@GLIBC_2.4                              /home/tool/arm-hjimi-linux-gnueabi/arm-hjimi-linux-gnueabi/sysroot/lib/libc.so.6
iswctype                                          /home/tool/arm-hjimi-linux-gnueabi/arm-hjimi-linux-gnueabi/sysroot/lib/libc.so.6
iswctype@@GLIBC_2.4                               /home/tool/arm-hjimi-linux-gnueabi/arm-hjimi-linux-gnueabi/sysroot/lib/libc.so.6
iswctype@GLIBC_2.4                                /home/tool/arm-hjimi-linux-gnueabi/arm-hjimi-linux-gnueabi/sysroot/lib/libc.so.6
iswctype_l                                        /home/tool/arm-hjimi-linux-gnueabi/arm-hjimi-linux-gnueabi/sysroot/lib/libc.so.6
iswctype_l@@GLIBC_2.4                             /home/tool/arm-hjimi-linux-gnueabi/arm-hjimi-linux-gnueabi/sysroot/lib/libc.so.6
iswctype_l@GLIBC_2.4                              /home/tool/arm-hjimi-linux-gnueabi/arm-hjimi-linux-gnueabi/sysroot/lib/libc.so.6
iswdigit                                          /home/tool/arm-hjimi-linux-gnueabi/arm-hjimi-linux-gnueabi/sysroot/lib/libc.so.6
iswdigit@@GLIBC_2.4                               /home/tool/arm-hjimi-linux-gnueabi/arm-hjimi-linux-gnueabi/sysroot/lib/libc.so.6
iswdigit@GLIBC_2.4                                /home/tool/arm-hjimi-linux-gnueabi/arm-hjimi-linux-gnueabi/sysroot/lib/libc.so.6
iswdigit_l                                        /home/tool/arm-hjimi-linux-gnueabi/arm-hjimi-linux-gnueabi/sysroot/lib/libc.so.6
iswdigit_l@@GLIBC_2.4                             /home/tool/arm-hjimi-linux-gnueabi/arm-hjimi-linux-gnueabi/sysroot/lib/libc.so.6
iswdigit_l@GLIBC_2.4                              /home/tool/arm-hjimi-linux-gnueabi/arm-hjimi-linux-gnueabi/sysroot/lib/libc.so.6
iswgraph                                          /home/tool/arm-hjimi-linux-gnueabi/arm-hjimi-linux-gnueabi/sysroot/lib/libc.so.6
iswgraph@@GLIBC_2.4                               /home/tool/arm-hjimi-linux-gnueabi/arm-hjimi-linux-gnueabi/sysroot/lib/libc.so.6
iswgraph@GLIBC_2.4                                /home/tool/arm-hjimi-linux-gnueabi/arm-hjimi-linux-gnueabi/sysroot/lib/libc.so.6
iswgraph_l                                        /home/tool/arm-hjimi-linux-gnueabi/arm-hjimi-linux-gnueabi/sysroot/lib/libc.so.6
iswgraph_l@@GLIBC_2.4                             /home/tool/arm-hjimi-linux-gnueabi/arm-hjimi-linux-gnueabi/sysroot/lib/libc.so.6
iswgraph_l@GLIBC_2.4                              /home/tool/arm-hjimi-linux-gnueabi/arm-hjimi-linux-gnueabi/sysroot/lib/libc.so.6
iswlower                                          /home/tool/arm-hjimi-linux-gnueabi/arm-hjimi-linux-gnueabi/sysroot/lib/libc.so.6
iswlower@@GLIBC_2.4                               /home/tool/arm-hjimi-linux-gnueabi/arm-hjimi-linux-gnueabi/sysroot/lib/libc.so.6
iswlower@GLIBC_2.4                                /home/tool/arm-hjimi-linux-gnueabi/arm-hjimi-linux-gnueabi/sysroot/lib/libc.so.6
iswlower_l                                        /home/tool/arm-hjimi-linux-gnueabi/arm-hjimi-linux-gnueabi/sysroot/lib/libc.so.6
iswlower_l@@GLIBC_2.4                             /home/tool/arm-hjimi-linux-gnueabi/arm-hjimi-linux-gnueabi/sysroot/lib/libc.so.6
iswlower_l@GLIBC_2.4                              /home/tool/arm-hjimi-linux-gnueabi/arm-hjimi-linux-gnueabi/sysroot/lib/libc.so.6
iswprint                                          /home/tool/arm-hjimi-linux-gnueabi/arm-hjimi-linux-gnueabi/sysroot/lib/libc.so.6
iswprint@@GLIBC_2.4                               /home/tool/arm-hjimi-linux-gnueabi/arm-hjimi-linux-gnueabi/sysroot/lib/libc.so.6
iswprint@GLIBC_2.4                                /home/tool/arm-hjimi-linux-gnueabi/arm-hjimi-linux-gnueabi/sysroot/lib/libc.so.6
iswprint_l                                        /home/tool/arm-hjimi-linux-gnueabi/arm-hjimi-linux-gnueabi/sysroot/lib/libc.so.6
iswprint_l@@GLIBC_2.4                             /home/tool/arm-hjimi-linux-gnueabi/arm-hjimi-linux-gnueabi/sysroot/lib/libc.so.6
iswprint_l@GLIBC_2.4                              /home/tool/arm-hjimi-linux-gnueabi/arm-hjimi-linux-gnueabi/sysroot/lib/libc.so.6
iswpunct                                          /home/tool/arm-hjimi-linux-gnueabi/arm-hjimi-linux-gnueabi/sysroot/lib/libc.so.6
iswpunct@@GLIBC_2.4                               /home/tool/arm-hjimi-linux-gnueabi/arm-hjimi-linux-gnueabi/sysroot/lib/libc.so.6
iswpunct@GLIBC_2.4                                /home/tool/arm-hjimi-linux-gnueabi/arm-hjimi-linux-gnueabi/sysroot/lib/libc.so.6
iswpunct_l                                        /home/tool/arm-hjimi-linux-gnueabi/arm-hjimi-linux-gnueabi/sysroot/lib/libc.so.6
iswpunct_l@@GLIBC_2.4                             /home/tool/arm-hjimi-linux-gnueabi/arm-hjimi-linux-gnueabi/sysroot/lib/libc.so.6
iswpunct_l@GLIBC_2.4                              /home/tool/arm-hjimi-linux-gnueabi/arm-hjimi-linux-gnueabi/sysroot/lib/libc.so.6
iswspace                                          /home/tool/arm-hjimi-linux-gnueabi/arm-hjimi-linux-gnueabi/sysroot/lib/libc.so.6
iswspace@@GLIBC_2.4                               /home/tool/arm-hjimi-linux-gnueabi/arm-hjimi-linux-gnueabi/sysroot/lib/libc.so.6
iswspace@GLIBC_2.4                                /home/tool/arm-hjimi-linux-gnueabi/arm-hjimi-linux-gnueabi/sysroot/lib/libc.so.6
iswspace_l                                        /home/tool/arm-hjimi-linux-gnueabi/arm-hjimi-linux-gnueabi/sysroot/lib/libc.so.6
iswspace_l@@GLIBC_2.4                             /home/tool/arm-hjimi-linux-gnueabi/arm-hjimi-linux-gnueabi/sysroot/lib/libc.so.6
iswspace_l@GLIBC_2.4                              /home/tool/arm-hjimi-linux-gnueabi/arm-hjimi-linux-gnueabi/sysroot/lib/libc.so.6
iswupper                                          /home/tool/arm-hjimi-linux-gnueabi/arm-hjimi-linux-gnueabi/sysroot/lib/libc.so.6
iswupper@@GLIBC_2.4                               /home/tool/arm-hjimi-linux-gnueabi/arm-hjimi-linux-gnueabi/sysroot/lib/libc.so.6
iswupper@GLIBC_2.4                                /home/tool/arm-hjimi-linux-gnueabi/arm-hjimi-linux-gnueabi/sysroot/lib/libc.so.6
iswupper_l                                        /home/tool/arm-hjimi-linux-gnueabi/arm-hjimi-linux-gnueabi/sysroot/lib/libc.so.6
iswupper_l@@GLIBC_2.4                             /home/tool/arm-hjimi-linux-gnueabi/arm-hjimi-linux-gnueabi/sysroot/lib/libc.so.6
iswupper_l@GLIBC_2.4                              /home/tool/arm-hjimi-linux-gnueabi/arm-hjimi-linux-gnueabi/sysroot/lib/libc.so.6
iswxdigit                                         /home/tool/arm-hjimi-linux-gnueabi/arm-hjimi-linux-gnueabi/sysroot/lib/libc.so.6
iswxdigit@@GLIBC_2.4                              /home/tool/arm-hjimi-linux-gnueabi/arm-hjimi-linux-gnueabi/sysroot/lib/libc.so.6
iswxdigit@GLIBC_2.4                               /home/tool/arm-hjimi-linux-gnueabi/arm-hjimi-linux-gnueabi/sysroot/lib/libc.so.6
iswxdigit_l                                       /home/tool/arm-hjimi-linux-gnueabi/arm-hjimi-linux-gnueabi/sysroot/lib/libc.so.6
iswxdigit_l@@GLIBC_2.4                            /home/tool/arm-hjimi-linux-gnueabi/arm-hjimi-linux-gnueabi/sysroot/lib/libc.so.6
iswxdigit_l@GLIBC_2.4                             /home/tool/arm-hjimi-linux-gnueabi/arm-hjimi-linux-gnueabi/sysroot/lib/libc.so.6
isxdigit_l                                        /home/tool/arm-hjimi-linux-gnueabi/arm-hjimi-linux-gnueabi/sysroot/lib/libc.so.6
isxdigit_l@@GLIBC_2.4                             /home/tool/arm-hjimi-linux-gnueabi/arm-hjimi-linux-gnueabi/sysroot/lib/libc.so.6
isxdigit_l@GLIBC_2.4                              /home/tool/arm-hjimi-linux-gnueabi/arm-hjimi-linux-gnueabi/sysroot/lib/libc.so.6
jrand48_r                                         /home/tool/arm-hjimi-linux-gnueabi/arm-hjimi-linux-gnueabi/sysroot/lib/libc.so.6
jrand48_r@@GLIBC_2.4                              /home/tool/arm-hjimi-linux-gnueabi/arm-hjimi-linux-gnueabi/sysroot/lib/libc.so.6
jrand48_r@GLIBC_2.4                               /home/tool/arm-hjimi-linux-gnueabi/arm-hjimi-linux-gnueabi/sysroot/lib/libc.so.6
kill                                              /home/tool/arm-hjimi-linux-gnueabi/arm-hjimi-linux-gnueabi/sysroot/lib/libc.so.6
kill@@GLIBC_2.4                                   /home/tool/arm-hjimi-linux-gnueabi/arm-hjimi-linux-gnueabi/sysroot/lib/libc.so.6
kill@GLIBC_2.4                                    /home/tool/arm-hjimi-linux-gnueabi/arm-hjimi-linux-gnueabi/sysroot/lib/libc.so.6
lchown                                            /home/tool/arm-hjimi-linux-gnueabi/arm-hjimi-linux-gnueabi/sysroot/lib/libc.so.6
lchown@@GLIBC_2.4                                 /home/tool/arm-hjimi-linux-gnueabi/arm-hjimi-linux-gnueabi/sysroot/lib/libc.so.6
lchown@GLIBC_2.4                                  /home/tool/arm-hjimi-linux-gnueabi/arm-hjimi-linux-gnueabi/sysroot/lib/libc.so.6
lckpwdf                                           /home/tool/arm-hjimi-linux-gnueabi/arm-hjimi-linux-gnueabi/sysroot/lib/libc.so.6
lckpwdf@@GLIBC_2.4                                /home/tool/arm-hjimi-linux-gnueabi/arm-hjimi-linux-gnueabi/sysroot/lib/libc.so.6
lckpwdf@GLIBC_2.4                                 /home/tool/arm-hjimi-linux-gnueabi/arm-hjimi-linux-gnueabi/sysroot/lib/libc.so.6
lcong48_r                                         /home/tool/arm-hjimi-linux-gnueabi/arm-hjimi-linux-gnueabi/sysroot/lib/libc.so.6
lcong48_r@@GLIBC_2.4                              /home/tool/arm-hjimi-linux-gnueabi/arm-hjimi-linux-gnueabi/sysroot/lib/libc.so.6
lcong48_r@GLIBC_2.4                               /home/tool/arm-hjimi-linux-gnueabi/arm-hjimi-linux-gnueabi/sysroot/lib/libc.so.6
ldexp                                             /home/tool/arm-hjimi-linux-gnueabi/arm-hjimi-linux-gnueabi/sysroot/lib/libc.so.6
ldexp@@GLIBC_2.4                                  /home/tool/arm-hjimi-linux-gnueabi/arm-hjimi-linux-gnueabi/sysroot/lib/libc.so.6
ldexp@GLIBC_2.4                                   /home/tool/arm-hjimi-linux-gnueabi/arm-hjimi-linux-gnueabi/sysroot/lib/libc.so.6
ldexpf                                            /home/tool/arm-hjimi-linux-gnueabi/arm-hjimi-linux-gnueabi/sysroot/lib/libc.so.6
ldexpf@@GLIBC_2.4                                 /home/tool/arm-hjimi-linux-gnueabi/arm-hjimi-linux-gnueabi/sysroot/lib/libc.so.6
ldexpf@GLIBC_2.4                                  /home/tool/arm-hjimi-linux-gnueabi/arm-hjimi-linux-gnueabi/sysroot/lib/libc.so.6
ldexpl                                            /home/tool/arm-hjimi-linux-gnueabi/arm-hjimi-linux-gnueabi/sysroot/lib/libc.so.6
ldexpl@@GLIBC_2.4                                 /home/tool/arm-hjimi-linux-gnueabi/arm-hjimi-linux-gnueabi/sysroot/lib/libc.so.6
ldexpl@GLIBC_2.4                                  /home/tool/arm-hjimi-linux-gnueabi/arm-hjimi-linux-gnueabi/sysroot/lib/libc.so.6
link                                              /home/tool/arm-hjimi-linux-gnueabi/arm-hjimi-linux-gnueabi/sysroot/lib/libc.so.6
link@@GLIBC_2.4                                   /home/tool/arm-hjimi-linux-gnueabi/arm-hjimi-linux-gnueabi/sysroot/lib/libc.so.6
link@GLIBC_2.4                                    /home/tool/arm-hjimi-linux-gnueabi/arm-hjimi-linux-gnueabi/sysroot/lib/libc.so.6
listen                                            /home/tool/arm-hjimi-linux-gnueabi/arm-hjimi-linux-gnueabi/sysroot/lib/libc.so.6
listen@@GLIBC_2.4                                 /home/tool/arm-hjimi-linux-gnueabi/arm-hjimi-linux-gnueabi/sysroot/lib/libc.so.6
listen@GLIBC_2.4                                  /home/tool/arm-hjimi-linux-gnueabi/arm-hjimi-linux-gnueabi/sysroot/lib/libc.so.6
llseek                                            /home/tool/arm-hjimi-linux-gnueabi/arm-hjimi-linux-gnueabi/sysroot/lib/libc.so.6
llseek@@GLIBC_2.4                                 /home/tool/arm-hjimi-linux-gnueabi/arm-hjimi-linux-gnueabi/sysroot/lib/libc.so.6
llseek@GLIBC_2.4                                  /home/tool/arm-hjimi-linux-gnueabi/arm-hjimi-linux-gnueabi/sysroot/lib/libc.so.6
lm36011_set_current                               output/drivers/vcsel_driver/lm36011.o
lm36011_vcsel_ops                                 output/drivers/vcsel_driver/lm36011.o
lm3644_set_current                                output/drivers/vcsel_driver/lm3644.o
lm3644_vcsel_ops                                  output/drivers/vcsel_driver/lm3644.o
load_Imem                                         ./drivers/ddr/libddr_64.a(dcu.o)
load_dmem                                         ./drivers/ddr/libddr_64.a(dcu.o)
load_image                                        ./drivers/ddr/libddr_64.a(dcu.o)
local_irq_restore                                 output/drivers/compat/linux_compat.o
                                                  output/drivers/usb/musb/musbhsdma.o
                                                  output/drivers/usb/musb/musb_gadget_ep0.o
                                                  output/drivers/usb/musb/musb_gadget.o
                                                  output/drivers/usb/musb/musb_core.o
                                                  output/drivers/usb/gadget/function/u_imi.o
                                                  output/drivers/usb/gadget/function/f_imi.o
                                                  output/drivers/usb/gadget/composite.o
                                                  output/drivers/timers/timer_imi2280.o
                                                  output/drivers/reset/reset_imi2280.o
                                                  output/drivers/dma/pl330.o
                                                  output/drivers/base/imi_work.o
local_irq_save                                    output/drivers/compat/linux_compat.o
                                                  output/drivers/usb/musb/musbhsdma.o
                                                  output/drivers/usb/musb/musb_gadget_ep0.o
                                                  output/drivers/usb/musb/musb_gadget.o
                                                  output/drivers/usb/musb/musb_core.o
                                                  output/drivers/usb/gadget/function/u_imi.o
                                                  output/drivers/usb/gadget/function/f_imi.o
                                                  output/drivers/usb/gadget/composite.o
                                                  output/drivers/timers/timer_imi2280.o
                                                  output/drivers/reset/reset_imi2280.o
                                                  output/drivers/dma/pl330.o
                                                  output/drivers/base/imi_work.o
localtime_r                                       /home/tool/arm-hjimi-linux-gnueabi/arm-hjimi-linux-gnueabi/sysroot/lib/libc.so.6
localtime_r@@GLIBC_2.4                            /home/tool/arm-hjimi-linux-gnueabi/arm-hjimi-linux-gnueabi/sysroot/lib/libc.so.6
localtime_r@GLIBC_2.4                             /home/tool/arm-hjimi-linux-gnueabi/arm-hjimi-linux-gnueabi/sysroot/lib/libc.so.6
longjmp                                           /home/tool/arm-hjimi-linux-gnueabi/arm-hjimi-linux-gnueabi/sysroot/lib/libc.so.6
longjmp@@GLIBC_2.4                                /home/tool/arm-hjimi-linux-gnueabi/arm-hjimi-linux-gnueabi/sysroot/lib/libc.so.6
longjmp@GLIBC_2.4                                 /home/tool/arm-hjimi-linux-gnueabi/arm-hjimi-linux-gnueabi/sysroot/lib/libc.so.6
lookup_string_index                               ./drivers/ddr/libddr_64.a(dcu.o)
lseek                                             /home/tool/arm-hjimi-linux-gnueabi/arm-hjimi-linux-gnueabi/sysroot/lib/libc.so.6
lseek64                                           /home/tool/arm-hjimi-linux-gnueabi/arm-hjimi-linux-gnueabi/sysroot/lib/libc.so.6
lseek64@@GLIBC_2.4                                /home/tool/arm-hjimi-linux-gnueabi/arm-hjimi-linux-gnueabi/sysroot/lib/libc.so.6
lseek64@GLIBC_2.4                                 /home/tool/arm-hjimi-linux-gnueabi/arm-hjimi-linux-gnueabi/sysroot/lib/libc.so.6
lseek@@GLIBC_2.4                                  /home/tool/arm-hjimi-linux-gnueabi/arm-hjimi-linux-gnueabi/sysroot/lib/libc.so.6
lseek@GLIBC_2.4                                   /home/tool/arm-hjimi-linux-gnueabi/arm-hjimi-linux-gnueabi/sysroot/lib/libc.so.6
madvise                                           /home/tool/arm-hjimi-linux-gnueabi/arm-hjimi-linux-gnueabi/sysroot/lib/libc.so.6
madvise@@GLIBC_2.4                                /home/tool/arm-hjimi-linux-gnueabi/arm-hjimi-linux-gnueabi/sysroot/lib/libc.so.6
madvise@GLIBC_2.4                                 /home/tool/arm-hjimi-linux-gnueabi/arm-hjimi-linux-gnueabi/sysroot/lib/libc.so.6
mailbox_a2b00_handler                             output/drivers/mailbox/mailbox.o
mailbox_b2a00_handler                             output/drivers/mailbox/mailbox.o
mailbox_dev_init                                  output/drivers/mailbox/mailbox.o
mailbox_init                                      output/drivers/mailbox/mailbox.o
main                                              output/main/main.o
                                                  output/boards/2280_ddr/start/start.o
makecontext                                       /home/tool/arm-hjimi-linux-gnueabi/arm-hjimi-linux-gnueabi/sysroot/lib/libc.so.6
makecontext@@GLIBC_2.4                            /home/tool/arm-hjimi-linux-gnueabi/arm-hjimi-linux-gnueabi/sysroot/lib/libc.so.6
makecontext@GLIBC_2.4                             /home/tool/arm-hjimi-linux-gnueabi/arm-hjimi-linux-gnueabi/sysroot/lib/libc.so.6
mallinfo                                          /home/tool/arm-hjimi-linux-gnueabi/arm-hjimi-linux-gnueabi/sysroot/lib/libc.so.6
mallinfo@@GLIBC_2.4                               /home/tool/arm-hjimi-linux-gnueabi/arm-hjimi-linux-gnueabi/sysroot/lib/libc.so.6
mallinfo@GLIBC_2.4                                /home/tool/arm-hjimi-linux-gnueabi/arm-hjimi-linux-gnueabi/sysroot/lib/libc.so.6
malloc_info                                       /home/tool/arm-hjimi-linux-gnueabi/arm-hjimi-linux-gnueabi/sysroot/lib/libc.so.6
malloc_info@@GLIBC_2.10                           /home/tool/arm-hjimi-linux-gnueabi/arm-hjimi-linux-gnueabi/sysroot/lib/libc.so.6
malloc_info@GLIBC_2.10                            /home/tool/arm-hjimi-linux-gnueabi/arm-hjimi-linux-gnueabi/sysroot/lib/libc.so.6
malloc_stats                                      /home/tool/arm-hjimi-linux-gnueabi/arm-hjimi-linux-gnueabi/sysroot/lib/libc.so.6
malloc_stats@@GLIBC_2.4                           /home/tool/arm-hjimi-linux-gnueabi/arm-hjimi-linux-gnueabi/sysroot/lib/libc.so.6
malloc_stats@GLIBC_2.4                            /home/tool/arm-hjimi-linux-gnueabi/arm-hjimi-linux-gnueabi/sysroot/lib/libc.so.6
malloc_trim                                       /home/tool/arm-hjimi-linux-gnueabi/arm-hjimi-linux-gnueabi/sysroot/lib/libc.so.6
malloc_trim@@GLIBC_2.4                            /home/tool/arm-hjimi-linux-gnueabi/arm-hjimi-linux-gnueabi/sysroot/lib/libc.so.6
malloc_trim@GLIBC_2.4                             /home/tool/arm-hjimi-linux-gnueabi/arm-hjimi-linux-gnueabi/sysroot/lib/libc.so.6
malloc_usable_size                                /home/tool/arm-hjimi-linux-gnueabi/arm-hjimi-linux-gnueabi/sysroot/lib/libc.so.6
malloc_usable_size@@GLIBC_2.4                     /home/tool/arm-hjimi-linux-gnueabi/arm-hjimi-linux-gnueabi/sysroot/lib/libc.so.6
malloc_usable_size@GLIBC_2.4                      /home/tool/arm-hjimi-linux-gnueabi/arm-hjimi-linux-gnueabi/sysroot/lib/libc.so.6
mallopt                                           /home/tool/arm-hjimi-linux-gnueabi/arm-hjimi-linux-gnueabi/sysroot/lib/libc.so.6
mallopt@@GLIBC_2.4                                /home/tool/arm-hjimi-linux-gnueabi/arm-hjimi-linux-gnueabi/sysroot/lib/libc.so.6
mallopt@GLIBC_2.4                                 /home/tool/arm-hjimi-linux-gnueabi/arm-hjimi-linux-gnueabi/sysroot/lib/libc.so.6
maxt                                              ./drivers/ddr/libddr_64.a(dcu.o)
mbrlen                                            /home/tool/arm-hjimi-linux-gnueabi/arm-hjimi-linux-gnueabi/sysroot/lib/libc.so.6
mbrlen@@GLIBC_2.4                                 /home/tool/arm-hjimi-linux-gnueabi/arm-hjimi-linux-gnueabi/sysroot/lib/libc.so.6
mbrlen@GLIBC_2.4                                  /home/tool/arm-hjimi-linux-gnueabi/arm-hjimi-linux-gnueabi/sysroot/lib/libc.so.6
mbrtoc32                                          /home/tool/arm-hjimi-linux-gnueabi/arm-hjimi-linux-gnueabi/sysroot/lib/libc.so.6
mbrtoc32@@GLIBC_2.16                              /home/tool/arm-hjimi-linux-gnueabi/arm-hjimi-linux-gnueabi/sysroot/lib/libc.so.6
mbrtoc32@GLIBC_2.16                               /home/tool/arm-hjimi-linux-gnueabi/arm-hjimi-linux-gnueabi/sysroot/lib/libc.so.6
mbrtowc                                           /home/tool/arm-hjimi-linux-gnueabi/arm-hjimi-linux-gnueabi/sysroot/lib/libc.so.6
mbrtowc@@GLIBC_2.4                                /home/tool/arm-hjimi-linux-gnueabi/arm-hjimi-linux-gnueabi/sysroot/lib/libc.so.6
mbrtowc@GLIBC_2.4                                 /home/tool/arm-hjimi-linux-gnueabi/arm-hjimi-linux-gnueabi/sysroot/lib/libc.so.6
mbsinit                                           /home/tool/arm-hjimi-linux-gnueabi/arm-hjimi-linux-gnueabi/sysroot/lib/libc.so.6
mbsinit@@GLIBC_2.4                                /home/tool/arm-hjimi-linux-gnueabi/arm-hjimi-linux-gnueabi/sysroot/lib/libc.so.6
mbsinit@GLIBC_2.4                                 /home/tool/arm-hjimi-linux-gnueabi/arm-hjimi-linux-gnueabi/sysroot/lib/libc.so.6
mbsnrtowcs                                        /home/tool/arm-hjimi-linux-gnueabi/arm-hjimi-linux-gnueabi/sysroot/lib/libc.so.6
mbsnrtowcs@@GLIBC_2.4                             /home/tool/arm-hjimi-linux-gnueabi/arm-hjimi-linux-gnueabi/sysroot/lib/libc.so.6
mbsnrtowcs@GLIBC_2.4                              /home/tool/arm-hjimi-linux-gnueabi/arm-hjimi-linux-gnueabi/sysroot/lib/libc.so.6
mbsrtowcs                                         /home/tool/arm-hjimi-linux-gnueabi/arm-hjimi-linux-gnueabi/sysroot/lib/libc.so.6
mbsrtowcs@@GLIBC_2.4                              /home/tool/arm-hjimi-linux-gnueabi/arm-hjimi-linux-gnueabi/sysroot/lib/libc.so.6
mbsrtowcs@GLIBC_2.4                               /home/tool/arm-hjimi-linux-gnueabi/arm-hjimi-linux-gnueabi/sysroot/lib/libc.so.6
mcount                                            /home/tool/arm-hjimi-linux-gnueabi/arm-hjimi-linux-gnueabi/sysroot/lib/libc.so.6
mcount@@GLIBC_2.4                                 /home/tool/arm-hjimi-linux-gnueabi/arm-hjimi-linux-gnueabi/sysroot/lib/libc.so.6
mcount@GLIBC_2.4                                  /home/tool/arm-hjimi-linux-gnueabi/arm-hjimi-linux-gnueabi/sysroot/lib/libc.so.6
mdelay                                            output/drivers/delay/delay.o
                                                  output/drivers/vcsel_driver/lm3644.o
                                                  output/drivers/irrx/ov928x.o
memalign                                          /home/tool/arm-hjimi-linux-gnueabi/arm-hjimi-linux-gnueabi/sysroot/lib/libc.so.6
memalign@@GLIBC_2.4                               /home/tool/arm-hjimi-linux-gnueabi/arm-hjimi-linux-gnueabi/sysroot/lib/libc.so.6
memalign@GLIBC_2.4                                /home/tool/arm-hjimi-linux-gnueabi/arm-hjimi-linux-gnueabi/sysroot/lib/libc.so.6
memccpy                                           /home/tool/arm-hjimi-linux-gnueabi/arm-hjimi-linux-gnueabi/sysroot/lib/libc.so.6
memccpy@@GLIBC_2.4                                /home/tool/arm-hjimi-linux-gnueabi/arm-hjimi-linux-gnueabi/sysroot/lib/libc.so.6
memccpy@GLIBC_2.4                                 /home/tool/arm-hjimi-linux-gnueabi/arm-hjimi-linux-gnueabi/sysroot/lib/libc.so.6
memchr                                            output/tools/stdlib/string.o
                                                  output/tools/easylogger/src/elog.o
memchr@@GLIBC_2.4                                 /home/tool/arm-hjimi-linux-gnueabi/arm-hjimi-linux-gnueabi/sysroot/lib/libc.so.6
memchr@GLIBC_2.4                                  /home/tool/arm-hjimi-linux-gnueabi/arm-hjimi-linux-gnueabi/sysroot/lib/libc.so.6
memcmp                                            output/tools/stdlib/string.o
                                                  output/drivers/qspi/nor/spi_nor.o
                                                  output/drivers/qspi/nand/spi_nand.o
memcmp@@GLIBC_2.4                                 /home/tool/arm-hjimi-linux-gnueabi/arm-hjimi-linux-gnueabi/sysroot/lib/libc.so.6
memcmp@GLIBC_2.4                                  /home/tool/arm-hjimi-linux-gnueabi/arm-hjimi-linux-gnueabi/sysroot/lib/libc.so.6
memcpy                                            output/tools/stdlib/string.o
                                                  output/tools/FreeRTOS_CLI/imi_console.o
                                                  output/tools/FreeRTOS_CLI/FreeRTOS_CLI.o
                                                  output/drivers/usb/gadget/function/u_imi.o
                                                  output/drivers/usb/gadget/function/imi_vendor_cmd.o
                                                  output/drivers/usb/gadget/function/f_imi.o
                                                  output/drivers/usb/gadget/config.o
                                                  output/drivers/usb/gadget/composite.o
                                                  output/drivers/trigger/sensor_sync_2280.o
                                                  output/drivers/reset/reset_imi2280.o
                                                  output/drivers/qspi/candence_qspi.o
                                                  output/drivers/irrx/ov928x.o
                                                  output/drivers/irrx/irrx.o
                                                  output/drivers/irq/chip.o
                                                  output/drivers/ipc/imi_ipc.o
                                                  output/drivers/i2c/i2c-designware-slave.o
                                                  output/drivers/i2c/i2c-designware-master.o
                                                  output/drivers/dpu_2280/dpu_dev.o
                                                  output/app/imi_app/vendor/vendor_misc.o
                                                  output/app/imi_app/vendor/vendor_device.o
                                                  output/app/dpu/dpu_hal.o
                                                  output/rtos/stream_buffer.o
                                                  output/rtos/queue.o
memcpy@@GLIBC_2.4                                 /home/tool/arm-hjimi-linux-gnueabi/arm-hjimi-linux-gnueabi/sysroot/lib/libc.so.6
memcpy@GLIBC_2.4                                  /home/tool/arm-hjimi-linux-gnueabi/arm-hjimi-linux-gnueabi/sysroot/lib/libc.so.6
memmem                                            /home/tool/arm-hjimi-linux-gnueabi/arm-hjimi-linux-gnueabi/sysroot/lib/libc.so.6
memmem@@GLIBC_2.4                                 /home/tool/arm-hjimi-linux-gnueabi/arm-hjimi-linux-gnueabi/sysroot/lib/libc.so.6
memmem@GLIBC_2.4                                  /home/tool/arm-hjimi-linux-gnueabi/arm-hjimi-linux-gnueabi/sysroot/lib/libc.so.6
memmove                                           output/tools/stdlib/string.o
memmove@@GLIBC_2.4                                /home/tool/arm-hjimi-linux-gnueabi/arm-hjimi-linux-gnueabi/sysroot/lib/libc.so.6
memmove@GLIBC_2.4                                 /home/tool/arm-hjimi-linux-gnueabi/arm-hjimi-linux-gnueabi/sysroot/lib/libc.so.6
memrchr                                           /home/tool/arm-hjimi-linux-gnueabi/arm-hjimi-linux-gnueabi/sysroot/lib/libc.so.6
memrchr@@GLIBC_2.4                                /home/tool/arm-hjimi-linux-gnueabi/arm-hjimi-linux-gnueabi/sysroot/lib/libc.so.6
memrchr@GLIBC_2.4                                 /home/tool/arm-hjimi-linux-gnueabi/arm-hjimi-linux-gnueabi/sysroot/lib/libc.so.6
memset                                            output/tools/stdlib/string.o
                                                  output/tools/easylogger/src/elog.o
                                                  output/tools/FreeRTOS_CLI/imi_console.o
                                                  output/drivers/vcsel_driver/lm3644.o
                                                  output/drivers/vcsel_driver/lm36011.o
                                                  output/drivers/vcsel_driver/vcsel.o
                                                  output/drivers/usb/musb/musb_gadget.o
                                                  output/drivers/usb/gadget/usbstring.o
                                                  output/drivers/usb/gadget/legacy/g_imi_usb.o
                                                  output/drivers/usb/gadget/function/u_imi.o
                                                  output/drivers/usb/gadget/function/imi_vendor_cmd.o
                                                  output/drivers/usb/gadget/function/f_imi.o
                                                  output/drivers/usb/gadget/composite.o
                                                  output/drivers/trigger/trigger.o
                                                  output/drivers/trigger/sensor_sync_2280.o
                                                  output/drivers/qspi/candence_qspi.o
                                                  output/drivers/qspi/nand_test.o
                                                  output/drivers/qspi/nor_test.o
                                                  output/drivers/irrx/ov928x.o
                                                  output/drivers/irrx/irrx.o
                                                  output/drivers/irq/vic_int.o
                                                  output/drivers/ipc/imi_ipc.o
                                                  output/drivers/i2c/i2c-designware-platdrv.o
                                                  output/drivers/dpu_2280/dpu_dev.o
                                                  output/drivers/dpu_2280/dpu.o
                                                  output/drivers/dma/pl330.o
                                                  output/drivers/csi_rx/vidomain_2280.o
                                                  output/drivers/csi_rx/csi_rx_2280.o
                                                  output/drivers/buf_man/imi_bm.o
                                                  output/app/imi_app/vendor/vendor_misc.o
                                                  output/app/imi_app/vendor/vendor_device.o
                                                  output/app/imi_app/vendor/cmd_hal.o
                                                  output/app/imi_app/subsystem/usb/vendor_usb.o
                                                  output/app/dpu/msg_module.o
                                                  output/app/dpu/dputask.o
                                                  output/app/dpu/dpu_hal.o
                                                  output/main/uart_task.o
                                                  output/rtos/tasks.o
                                                  output/rtos/stream_buffer.o
memset@@GLIBC_2.4                                 /home/tool/arm-hjimi-linux-gnueabi/arm-hjimi-linux-gnueabi/sysroot/lib/libc.so.6
memset@GLIBC_2.4                                  /home/tool/arm-hjimi-linux-gnueabi/arm-hjimi-linux-gnueabi/sysroot/lib/libc.so.6
message_box                                       ./drivers/ddr/libddr_64.a(dcu.o)
mkdir                                             /home/tool/arm-hjimi-linux-gnueabi/arm-hjimi-linux-gnueabi/sysroot/lib/libc.so.6
mkdir@@GLIBC_2.4                                  /home/tool/arm-hjimi-linux-gnueabi/arm-hjimi-linux-gnueabi/sysroot/lib/libc.so.6
mkdir@GLIBC_2.4                                   /home/tool/arm-hjimi-linux-gnueabi/arm-hjimi-linux-gnueabi/sysroot/lib/libc.so.6
mktemp                                            /home/tool/arm-hjimi-linux-gnueabi/arm-hjimi-linux-gnueabi/sysroot/lib/libc.so.6
mktemp@@GLIBC_2.4                                 /home/tool/arm-hjimi-linux-gnueabi/arm-hjimi-linux-gnueabi/sysroot/lib/libc.so.6
mktemp@GLIBC_2.4                                  /home/tool/arm-hjimi-linux-gnueabi/arm-hjimi-linux-gnueabi/sysroot/lib/libc.so.6
mmap                                              /home/tool/arm-hjimi-linux-gnueabi/arm-hjimi-linux-gnueabi/sysroot/lib/libc.so.6
mmap64                                            /home/tool/arm-hjimi-linux-gnueabi/arm-hjimi-linux-gnueabi/sysroot/lib/libc.so.6
mmap64@@GLIBC_2.4                                 /home/tool/arm-hjimi-linux-gnueabi/arm-hjimi-linux-gnueabi/sysroot/lib/libc.so.6
mmap64@GLIBC_2.4                                  /home/tool/arm-hjimi-linux-gnueabi/arm-hjimi-linux-gnueabi/sysroot/lib/libc.so.6
mmap@@GLIBC_2.4                                   /home/tool/arm-hjimi-linux-gnueabi/arm-hjimi-linux-gnueabi/sysroot/lib/libc.so.6
mmap@GLIBC_2.4                                    /home/tool/arm-hjimi-linux-gnueabi/arm-hjimi-linux-gnueabi/sysroot/lib/libc.so.6
modf                                              /home/tool/arm-hjimi-linux-gnueabi/arm-hjimi-linux-gnueabi/sysroot/lib/libc.so.6
modf@@GLIBC_2.4                                   /home/tool/arm-hjimi-linux-gnueabi/arm-hjimi-linux-gnueabi/sysroot/lib/libc.so.6
modf@GLIBC_2.4                                    /home/tool/arm-hjimi-linux-gnueabi/arm-hjimi-linux-gnueabi/sysroot/lib/libc.so.6
modff                                             /home/tool/arm-hjimi-linux-gnueabi/arm-hjimi-linux-gnueabi/sysroot/lib/libc.so.6
modff@@GLIBC_2.4                                  /home/tool/arm-hjimi-linux-gnueabi/arm-hjimi-linux-gnueabi/sysroot/lib/libc.so.6
modff@GLIBC_2.4                                   /home/tool/arm-hjimi-linux-gnueabi/arm-hjimi-linux-gnueabi/sysroot/lib/libc.so.6
modfl                                             /home/tool/arm-hjimi-linux-gnueabi/arm-hjimi-linux-gnueabi/sysroot/lib/libc.so.6
modfl@@GLIBC_2.4                                  /home/tool/arm-hjimi-linux-gnueabi/arm-hjimi-linux-gnueabi/sysroot/lib/libc.so.6
modfl@GLIBC_2.4                                   /home/tool/arm-hjimi-linux-gnueabi/arm-hjimi-linux-gnueabi/sysroot/lib/libc.so.6
module_buffer_init                                output/app/dpu/msg_module.o
                                                  output/app/dpu/dputask.o
module_pop_buffer                                 output/app/dpu/msg_module.o
module_push_buffer                                output/app/dpu/msg_module.o
moncontrol                                        /home/tool/arm-hjimi-linux-gnueabi/arm-hjimi-linux-gnueabi/sysroot/lib/libc.so.6
moncontrol@@GLIBC_2.4                             /home/tool/arm-hjimi-linux-gnueabi/arm-hjimi-linux-gnueabi/sysroot/lib/libc.so.6
moncontrol@GLIBC_2.4                              /home/tool/arm-hjimi-linux-gnueabi/arm-hjimi-linux-gnueabi/sysroot/lib/libc.so.6
monstartup                                        /home/tool/arm-hjimi-linux-gnueabi/arm-hjimi-linux-gnueabi/sysroot/lib/libc.so.6
monstartup@@GLIBC_2.4                             /home/tool/arm-hjimi-linux-gnueabi/arm-hjimi-linux-gnueabi/sysroot/lib/libc.so.6
monstartup@GLIBC_2.4                              /home/tool/arm-hjimi-linux-gnueabi/arm-hjimi-linux-gnueabi/sysroot/lib/libc.so.6
mount                                             /home/tool/arm-hjimi-linux-gnueabi/arm-hjimi-linux-gnueabi/sysroot/lib/libc.so.6
mount@@GLIBC_2.4                                  /home/tool/arm-hjimi-linux-gnueabi/arm-hjimi-linux-gnueabi/sysroot/lib/libc.so.6
mount@GLIBC_2.4                                   /home/tool/arm-hjimi-linux-gnueabi/arm-hjimi-linux-gnueabi/sysroot/lib/libc.so.6
mprotect                                          /home/tool/arm-hjimi-linux-gnueabi/arm-hjimi-linux-gnueabi/sysroot/lib/libc.so.6
mprotect@@GLIBC_2.4                               /home/tool/arm-hjimi-linux-gnueabi/arm-hjimi-linux-gnueabi/sysroot/lib/libc.so.6
mprotect@GLIBC_2.4                                /home/tool/arm-hjimi-linux-gnueabi/arm-hjimi-linux-gnueabi/sysroot/lib/libc.so.6
mremap                                            /home/tool/arm-hjimi-linux-gnueabi/arm-hjimi-linux-gnueabi/sysroot/lib/libc.so.6
mremap@@GLIBC_2.4                                 /home/tool/arm-hjimi-linux-gnueabi/arm-hjimi-linux-gnueabi/sysroot/lib/libc.so.6
mremap@GLIBC_2.4                                  /home/tool/arm-hjimi-linux-gnueabi/arm-hjimi-linux-gnueabi/sysroot/lib/libc.so.6
msecs_to_jiffies                                  output/drivers/compat/linux_compat.o
                                                  output/drivers/dma/dmaengine.o
                                                  output/app/imi_app/subsystem/usb/vendor_usb.o
msg_module_init                                   output/app/dpu/msg_module.o
msgrcv                                            /home/tool/arm-hjimi-linux-gnueabi/arm-hjimi-linux-gnueabi/sysroot/lib/libc.so.6
msgrcv@@GLIBC_2.4                                 /home/tool/arm-hjimi-linux-gnueabi/arm-hjimi-linux-gnueabi/sysroot/lib/libc.so.6
msgrcv@GLIBC_2.4                                  /home/tool/arm-hjimi-linux-gnueabi/arm-hjimi-linux-gnueabi/sysroot/lib/libc.so.6
msgsnd                                            /home/tool/arm-hjimi-linux-gnueabi/arm-hjimi-linux-gnueabi/sysroot/lib/libc.so.6
msgsnd@@GLIBC_2.4                                 /home/tool/arm-hjimi-linux-gnueabi/arm-hjimi-linux-gnueabi/sysroot/lib/libc.so.6
msgsnd@GLIBC_2.4                                  /home/tool/arm-hjimi-linux-gnueabi/arm-hjimi-linux-gnueabi/sysroot/lib/libc.so.6
msleep                                            output/drivers/compat/linux_compat.o
munmap                                            /home/tool/arm-hjimi-linux-gnueabi/arm-hjimi-linux-gnueabi/sysroot/lib/libc.so.6
munmap@@GLIBC_2.4                                 /home/tool/arm-hjimi-linux-gnueabi/arm-hjimi-linux-gnueabi/sysroot/lib/libc.so.6
munmap@GLIBC_2.4                                  /home/tool/arm-hjimi-linux-gnueabi/arm-hjimi-linux-gnueabi/sysroot/lib/libc.so.6
musb_alloc_request                                output/drivers/usb/musb/musb_gadget.o
                                                  output/drivers/usb/musb/musb_gadget_ep0.o
musb_dma_completion                               output/drivers/usb/musb/musb_core.o
                                                  output/drivers/usb/musb/musbhsdma.o
musb_driver_name                                  output/drivers/usb/musb/musb_core.o
                                                  output/drivers/usb/musb/musb_gadget.o
musb_ep_restart                                   output/drivers/usb/musb/musb_gadget.o
                                                  output/drivers/usb/musb/musb_gadget_ep0.o
musb_free_request                                 output/drivers/usb/musb/musb_gadget.o
                                                  output/drivers/usb/musb/musb_gadget_ep0.o
musb_g_disconnect                                 output/drivers/usb/musb/musb_gadget.o
                                                  output/drivers/usb/musb/musb_core.o
musb_g_ep0_irq                                    output/drivers/usb/musb/musb_gadget_ep0.o
                                                  output/drivers/usb/musb/musb_core.o
musb_g_ep0_ops                                    output/drivers/usb/musb/musb_gadget_ep0.o
                                                  output/drivers/usb/musb/musb_gadget.o
musb_g_giveback                                   output/drivers/usb/musb/musb_gadget.o
                                                  output/drivers/usb/musb/musb_gadget_ep0.o
musb_g_reset                                      output/drivers/usb/musb/musb_gadget.o
                                                  output/drivers/usb/musb/musb_core.o
musb_g_rx                                         output/drivers/usb/musb/musb_gadget.o
                                                  output/drivers/usb/musb/musb_core.o
musb_g_tx                                         output/drivers/usb/musb/musb_gadget.o
                                                  output/drivers/usb/musb/musb_core.o
musb_g_wakeup                                     output/drivers/usb/musb/musb_gadget.o
musb_gadget_cleanup                               output/drivers/usb/musb/musb_gadget.o
musb_gadget_setup                                 output/drivers/usb/musb/musb_gadget.o
                                                  output/drivers/usb/musb/musb_core.o
musb_gadget_start                                 output/drivers/usb/musb/musb_gadget.o
musb_init                                         output/drivers/usb/musb/musb_rtos.o
                                                  output/drivers/usb/gadget/legacy/g_imi_usb.o
musb_init_controller                              output/drivers/usb/musb/musb_core.o
                                                  output/drivers/usb/musb/musb_rtos.o
musb_interrupt                                    output/drivers/usb/musb/musb_core.o
musb_load_testpacket                              output/drivers/usb/musb/musb_core.o
                                                  output/drivers/usb/musb/musb_gadget_ep0.o
musb_read_fifo                                    output/drivers/usb/musb/musb_core.o
                                                  output/drivers/usb/musb/musb_gadget_ep0.o
                                                  output/drivers/usb/musb/musb_gadget.o
musb_start                                        output/drivers/usb/musb/musb_core.o
                                                  output/drivers/usb/musb/musb_gadget.o
musb_stop                                         output/drivers/usb/musb/musb_core.o
musb_write_fifo                                   output/drivers/usb/musb/musb_core.o
                                                  output/drivers/usb/musb/musb_gadget_ep0.o
                                                  output/drivers/usb/musb/musb_gadget.o
musbhs_dma_controller_create                      output/drivers/usb/musb/musbhsdma.o
mutex_init                                        output/drivers/compat/linux_compat.o
                                                  output/drivers/reset/reset.o
                                                  output/drivers/i2c/i2c_core.o
                                                  output/drivers/dma/dmaengine.o
                                                  output/drivers/csi_rx/vidomain_2280.o
                                                  output/app/dpu/msg_module.o
mutex_lock                                        output/drivers/compat/linux_compat.o
                                                  output/drivers/reset/reset.o
                                                  output/drivers/i2c/i2c_core.o
                                                  output/drivers/dma/dmaengine.o
                                                  output/drivers/csi_rx/vidomain_2280.o
                                                  output/app/dpu/msg_module.o
mutex_unlock                                      output/drivers/compat/linux_compat.o
                                                  output/drivers/reset/reset.o
                                                  output/drivers/i2c/i2c_core.o
                                                  output/drivers/dma/dmaengine.o
                                                  output/drivers/csi_rx/vidomain_2280.o
                                                  output/app/dpu/msg_module.o
nand_flash_erase                                  output/drivers/qspi/nand/spi_nand.o
                                                  output/boards/2280_ddr/board_2280.o
nand_flash_rawerase                               output/drivers/qspi/nand/spi_nand.o
nand_flash_rawread                                output/drivers/qspi/nand/spi_nand.o
nand_flash_rawwrite                               output/drivers/qspi/nand/spi_nand.o
nand_flash_read                                   output/drivers/qspi/nand/spi_nand.o
                                                  output/boards/2280_ddr/board_2280.o
                                                  output/drivers/qspi/nand_test.o
nand_flash_write                                  output/drivers/qspi/nand/spi_nand.o
                                                  output/boards/2280_ddr/board_2280.o
                                                  output/drivers/qspi/nand_test.o
nand_init                                         output/drivers/qspi/nand/spi_nand.o
                                                  output/boards/2280_ddr/board_2280.o
nand_test                                         output/drivers/qspi/nand_test.o
                                                  output/main/main.o
nanosleep                                         /home/tool/arm-hjimi-linux-gnueabi/arm-hjimi-linux-gnueabi/sysroot/lib/libc.so.6
nanosleep@@GLIBC_2.4                              /home/tool/arm-hjimi-linux-gnueabi/arm-hjimi-linux-gnueabi/sysroot/lib/libc.so.6
nanosleep@GLIBC_2.4                               /home/tool/arm-hjimi-linux-gnueabi/arm-hjimi-linux-gnueabi/sysroot/lib/libc.so.6
newlocale                                         /home/tool/arm-hjimi-linux-gnueabi/arm-hjimi-linux-gnueabi/sysroot/lib/libc.so.6
newlocale@@GLIBC_2.4                              /home/tool/arm-hjimi-linux-gnueabi/arm-hjimi-linux-gnueabi/sysroot/lib/libc.so.6
newlocale@GLIBC_2.4                               /home/tool/arm-hjimi-linux-gnueabi/arm-hjimi-linux-gnueabi/sysroot/lib/libc.so.6
ngettext                                          /home/tool/arm-hjimi-linux-gnueabi/arm-hjimi-linux-gnueabi/sysroot/lib/libc.so.6
ngettext@@GLIBC_2.4                               /home/tool/arm-hjimi-linux-gnueabi/arm-hjimi-linux-gnueabi/sysroot/lib/libc.so.6
ngettext@GLIBC_2.4                                /home/tool/arm-hjimi-linux-gnueabi/arm-hjimi-linux-gnueabi/sysroot/lib/libc.so.6
nl_langinfo_l                                     /home/tool/arm-hjimi-linux-gnueabi/arm-hjimi-linux-gnueabi/sysroot/lib/libc.so.6
nl_langinfo_l@@GLIBC_2.4                          /home/tool/arm-hjimi-linux-gnueabi/arm-hjimi-linux-gnueabi/sysroot/lib/libc.so.6
nl_langinfo_l@GLIBC_2.4                           /home/tool/arm-hjimi-linux-gnueabi/arm-hjimi-linux-gnueabi/sysroot/lib/libc.so.6
nor_flash_erase                                   output/drivers/qspi/nor/spi_nor.o
                                                  output/boards/2280_ddr/board_2280.o
nor_flash_rawerase                                output/drivers/qspi/nor/spi_nor.o
nor_flash_rawread                                 output/drivers/qspi/nor/spi_nor.o
nor_flash_rawwrite                                output/drivers/qspi/nor/spi_nor.o
nor_flash_read                                    output/drivers/qspi/nor/spi_nor.o
                                                  output/boards/2280_ddr/board_2280.o
                                                  output/drivers/qspi/nor_test.o
nor_flash_write                                   output/drivers/qspi/nor/spi_nor.o
                                                  output/boards/2280_ddr/board_2280.o
                                                  output/drivers/qspi/nor_test.o
nor_init                                          output/drivers/qspi/nor/spi_nor.o
                                                  output/boards/2280_ddr/board_2280.o
nor_test                                          output/drivers/qspi/nor_test.o
                                                  output/main/main.o
nrand48_r                                         /home/tool/arm-hjimi-linux-gnueabi/arm-hjimi-linux-gnueabi/sysroot/lib/libc.so.6
nrand48_r@@GLIBC_2.4                              /home/tool/arm-hjimi-linux-gnueabi/arm-hjimi-linux-gnueabi/sysroot/lib/libc.so.6
nrand48_r@GLIBC_2.4                               /home/tool/arm-hjimi-linux-gnueabi/arm-hjimi-linux-gnueabi/sysroot/lib/libc.so.6
ntohl                                             /home/tool/arm-hjimi-linux-gnueabi/arm-hjimi-linux-gnueabi/sysroot/lib/libc.so.6
ntohl@@GLIBC_2.4                                  /home/tool/arm-hjimi-linux-gnueabi/arm-hjimi-linux-gnueabi/sysroot/lib/libc.so.6
ntohl@GLIBC_2.4                                   /home/tool/arm-hjimi-linux-gnueabi/arm-hjimi-linux-gnueabi/sysroot/lib/libc.so.6
ntohs                                             /home/tool/arm-hjimi-linux-gnueabi/arm-hjimi-linux-gnueabi/sysroot/lib/libc.so.6
ntohs@@GLIBC_2.4                                  /home/tool/arm-hjimi-linux-gnueabi/arm-hjimi-linux-gnueabi/sysroot/lib/libc.so.6
ntohs@GLIBC_2.4                                   /home/tool/arm-hjimi-linux-gnueabi/arm-hjimi-linux-gnueabi/sysroot/lib/libc.so.6
ntp_adjtime                                       /home/tool/arm-hjimi-linux-gnueabi/arm-hjimi-linux-gnueabi/sysroot/lib/libc.so.6
ntp_adjtime@@GLIBC_2.4                            /home/tool/arm-hjimi-linux-gnueabi/arm-hjimi-linux-gnueabi/sysroot/lib/libc.so.6
ntp_adjtime@GLIBC_2.4                             /home/tool/arm-hjimi-linux-gnueabi/arm-hjimi-linux-gnueabi/sysroot/lib/libc.so.6
obstack_printf                                    /home/tool/arm-hjimi-linux-gnueabi/arm-hjimi-linux-gnueabi/sysroot/lib/libc.so.6
obstack_printf@@GLIBC_2.4                         /home/tool/arm-hjimi-linux-gnueabi/arm-hjimi-linux-gnueabi/sysroot/lib/libc.so.6
obstack_printf@GLIBC_2.4                          /home/tool/arm-hjimi-linux-gnueabi/arm-hjimi-linux-gnueabi/sysroot/lib/libc.so.6
obstack_vprintf                                   /home/tool/arm-hjimi-linux-gnueabi/arm-hjimi-linux-gnueabi/sysroot/lib/libc.so.6
obstack_vprintf@@GLIBC_2.4                        /home/tool/arm-hjimi-linux-gnueabi/arm-hjimi-linux-gnueabi/sysroot/lib/libc.so.6
obstack_vprintf@GLIBC_2.4                         /home/tool/arm-hjimi-linux-gnueabi/arm-hjimi-linux-gnueabi/sysroot/lib/libc.so.6
on_exit                                           /home/tool/arm-hjimi-linux-gnueabi/arm-hjimi-linux-gnueabi/sysroot/lib/libc.so.6
on_exit@@GLIBC_2.4                                /home/tool/arm-hjimi-linux-gnueabi/arm-hjimi-linux-gnueabi/sysroot/lib/libc.so.6
on_exit@GLIBC_2.4                                 /home/tool/arm-hjimi-linux-gnueabi/arm-hjimi-linux-gnueabi/sysroot/lib/libc.so.6
open                                              /home/tool/arm-hjimi-linux-gnueabi/arm-hjimi-linux-gnueabi/sysroot/lib/libc.so.6
open64                                            /home/tool/arm-hjimi-linux-gnueabi/arm-hjimi-linux-gnueabi/sysroot/lib/libc.so.6
open64@@GLIBC_2.4                                 /home/tool/arm-hjimi-linux-gnueabi/arm-hjimi-linux-gnueabi/sysroot/lib/libc.so.6
open64@GLIBC_2.4                                  /home/tool/arm-hjimi-linux-gnueabi/arm-hjimi-linux-gnueabi/sysroot/lib/libc.so.6
open@@GLIBC_2.4                                   /home/tool/arm-hjimi-linux-gnueabi/arm-hjimi-linux-gnueabi/sysroot/lib/libc.so.6
open@GLIBC_2.4                                    /home/tool/arm-hjimi-linux-gnueabi/arm-hjimi-linux-gnueabi/sysroot/lib/libc.so.6
open_memstream                                    /home/tool/arm-hjimi-linux-gnueabi/arm-hjimi-linux-gnueabi/sysroot/lib/libc.so.6
open_memstream@@GLIBC_2.4                         /home/tool/arm-hjimi-linux-gnueabi/arm-hjimi-linux-gnueabi/sysroot/lib/libc.so.6
open_memstream@GLIBC_2.4                          /home/tool/arm-hjimi-linux-gnueabi/arm-hjimi-linux-gnueabi/sysroot/lib/libc.so.6
openat                                            /home/tool/arm-hjimi-linux-gnueabi/arm-hjimi-linux-gnueabi/sysroot/lib/libc.so.6
openat64                                          /home/tool/arm-hjimi-linux-gnueabi/arm-hjimi-linux-gnueabi/sysroot/lib/libc.so.6
openat64@@GLIBC_2.4                               /home/tool/arm-hjimi-linux-gnueabi/arm-hjimi-linux-gnueabi/sysroot/lib/libc.so.6
openat64@GLIBC_2.4                                /home/tool/arm-hjimi-linux-gnueabi/arm-hjimi-linux-gnueabi/sysroot/lib/libc.so.6
openat@@GLIBC_2.4                                 /home/tool/arm-hjimi-linux-gnueabi/arm-hjimi-linux-gnueabi/sysroot/lib/libc.so.6
openat@GLIBC_2.4                                  /home/tool/arm-hjimi-linux-gnueabi/arm-hjimi-linux-gnueabi/sysroot/lib/libc.so.6
opendir                                           /home/tool/arm-hjimi-linux-gnueabi/arm-hjimi-linux-gnueabi/sysroot/lib/libc.so.6
opendir@@GLIBC_2.4                                /home/tool/arm-hjimi-linux-gnueabi/arm-hjimi-linux-gnueabi/sysroot/lib/libc.so.6
opendir@GLIBC_2.4                                 /home/tool/arm-hjimi-linux-gnueabi/arm-hjimi-linux-gnueabi/sysroot/lib/libc.so.6
outb                                              /home/tool/arm-hjimi-linux-gnueabi/arm-hjimi-linux-gnueabi/sysroot/lib/libc.so.6
outb@@GLIBC_2.4                                   /home/tool/arm-hjimi-linux-gnueabi/arm-hjimi-linux-gnueabi/sysroot/lib/libc.so.6
outb@GLIBC_2.4                                    /home/tool/arm-hjimi-linux-gnueabi/arm-hjimi-linux-gnueabi/sysroot/lib/libc.so.6
outl                                              /home/tool/arm-hjimi-linux-gnueabi/arm-hjimi-linux-gnueabi/sysroot/lib/libc.so.6
outl@@GLIBC_2.4                                   /home/tool/arm-hjimi-linux-gnueabi/arm-hjimi-linux-gnueabi/sysroot/lib/libc.so.6
outl@GLIBC_2.4                                    /home/tool/arm-hjimi-linux-gnueabi/arm-hjimi-linux-gnueabi/sysroot/lib/libc.so.6
outw                                              /home/tool/arm-hjimi-linux-gnueabi/arm-hjimi-linux-gnueabi/sysroot/lib/libc.so.6
outw@@GLIBC_2.4                                   /home/tool/arm-hjimi-linux-gnueabi/arm-hjimi-linux-gnueabi/sysroot/lib/libc.so.6
outw@GLIBC_2.4                                    /home/tool/arm-hjimi-linux-gnueabi/arm-hjimi-linux-gnueabi/sysroot/lib/libc.so.6
ov928x_dev_ops                                    output/drivers/irrx/ov928x.o
ov928x_get_sensor_info                            output/drivers/irrx/ov928x.o
ov928x_power_off                                  output/drivers/irrx/ov928x.o
ov928x_probe                                      output/drivers/irrx/ov928x.o
parse_cmd                                         output/tools/FreeRTOS_CLI/imi_console.o
                                                  output/main/uart_task.o
pathconf                                          /home/tool/arm-hjimi-linux-gnueabi/arm-hjimi-linux-gnueabi/sysroot/lib/libc.so.6
pathconf@@GLIBC_2.4                               /home/tool/arm-hjimi-linux-gnueabi/arm-hjimi-linux-gnueabi/sysroot/lib/libc.so.6
pathconf@GLIBC_2.4                                /home/tool/arm-hjimi-linux-gnueabi/arm-hjimi-linux-gnueabi/sysroot/lib/libc.so.6
pause                                             /home/tool/arm-hjimi-linux-gnueabi/arm-hjimi-linux-gnueabi/sysroot/lib/libc.so.6
pause@@GLIBC_2.4                                  /home/tool/arm-hjimi-linux-gnueabi/arm-hjimi-linux-gnueabi/sysroot/lib/libc.so.6
pause@GLIBC_2.4                                   /home/tool/arm-hjimi-linux-gnueabi/arm-hjimi-linux-gnueabi/sysroot/lib/libc.so.6
pcQueueGetName                                    output/rtos/queue.o
pcTaskGetName                                     output/rtos/tasks.o
pcTimerGetName                                    output/rtos/timers.o
personality                                       /home/tool/arm-hjimi-linux-gnueabi/arm-hjimi-linux-gnueabi/sysroot/lib/libc.so.6
personality@@GLIBC_2.4                            /home/tool/arm-hjimi-linux-gnueabi/arm-hjimi-linux-gnueabi/sysroot/lib/libc.so.6
personality@GLIBC_2.4                             /home/tool/arm-hjimi-linux-gnueabi/arm-hjimi-linux-gnueabi/sysroot/lib/libc.so.6
pinmux_default                                    output/drivers/pinmux/pinmux.o
pinmux_get_mode                                   output/drivers/pinmux/pinmux.o
pinmux_set_mode                                   output/drivers/pinmux/pinmux.o
                                                  output/drivers/trigger/sensor_sync_2280.o
pipe                                              /home/tool/arm-hjimi-linux-gnueabi/arm-hjimi-linux-gnueabi/sysroot/lib/libc.so.6
pipe2                                             /home/tool/arm-hjimi-linux-gnueabi/arm-hjimi-linux-gnueabi/sysroot/lib/libc.so.6
pipe2@@GLIBC_2.9                                  /home/tool/arm-hjimi-linux-gnueabi/arm-hjimi-linux-gnueabi/sysroot/lib/libc.so.6
pipe2@GLIBC_2.9                                   /home/tool/arm-hjimi-linux-gnueabi/arm-hjimi-linux-gnueabi/sysroot/lib/libc.so.6
pipe@@GLIBC_2.4                                   /home/tool/arm-hjimi-linux-gnueabi/arm-hjimi-linux-gnueabi/sysroot/lib/libc.so.6
pipe@GLIBC_2.4                                    /home/tool/arm-hjimi-linux-gnueabi/arm-hjimi-linux-gnueabi/sysroot/lib/libc.so.6
poll                                              /home/tool/arm-hjimi-linux-gnueabi/arm-hjimi-linux-gnueabi/sysroot/lib/libc.so.6
poll@@GLIBC_2.4                                   /home/tool/arm-hjimi-linux-gnueabi/arm-hjimi-linux-gnueabi/sysroot/lib/libc.so.6
poll@GLIBC_2.4                                    /home/tool/arm-hjimi-linux-gnueabi/arm-hjimi-linux-gnueabi/sysroot/lib/libc.so.6
posix_fadvise64                                   /home/tool/arm-hjimi-linux-gnueabi/arm-hjimi-linux-gnueabi/sysroot/lib/libc.so.6
posix_fadvise64@@GLIBC_2.4                        /home/tool/arm-hjimi-linux-gnueabi/arm-hjimi-linux-gnueabi/sysroot/lib/libc.so.6
posix_fadvise64@GLIBC_2.4                         /home/tool/arm-hjimi-linux-gnueabi/arm-hjimi-linux-gnueabi/sysroot/lib/libc.so.6
posix_memalign                                    /home/tool/arm-hjimi-linux-gnueabi/arm-hjimi-linux-gnueabi/sysroot/lib/libc.so.6
posix_memalign@@GLIBC_2.4                         /home/tool/arm-hjimi-linux-gnueabi/arm-hjimi-linux-gnueabi/sysroot/lib/libc.so.6
posix_memalign@GLIBC_2.4                          /home/tool/arm-hjimi-linux-gnueabi/arm-hjimi-linux-gnueabi/sysroot/lib/libc.so.6
posix_openpt                                      /home/tool/arm-hjimi-linux-gnueabi/arm-hjimi-linux-gnueabi/sysroot/lib/libc.so.6
posix_openpt@@GLIBC_2.4                           /home/tool/arm-hjimi-linux-gnueabi/arm-hjimi-linux-gnueabi/sysroot/lib/libc.so.6
posix_openpt@GLIBC_2.4                            /home/tool/arm-hjimi-linux-gnueabi/arm-hjimi-linux-gnueabi/sysroot/lib/libc.so.6
prctl                                             /home/tool/arm-hjimi-linux-gnueabi/arm-hjimi-linux-gnueabi/sysroot/lib/libc.so.6
prctl@@GLIBC_2.4                                  /home/tool/arm-hjimi-linux-gnueabi/arm-hjimi-linux-gnueabi/sysroot/lib/libc.so.6
prctl@GLIBC_2.4                                   /home/tool/arm-hjimi-linux-gnueabi/arm-hjimi-linux-gnueabi/sysroot/lib/libc.so.6
pread                                             /home/tool/arm-hjimi-linux-gnueabi/arm-hjimi-linux-gnueabi/sysroot/lib/libc.so.6
pread64                                           /home/tool/arm-hjimi-linux-gnueabi/arm-hjimi-linux-gnueabi/sysroot/lib/libc.so.6
pread64@@GLIBC_2.4                                /home/tool/arm-hjimi-linux-gnueabi/arm-hjimi-linux-gnueabi/sysroot/lib/libc.so.6
pread64@GLIBC_2.4                                 /home/tool/arm-hjimi-linux-gnueabi/arm-hjimi-linux-gnueabi/sysroot/lib/libc.so.6
pread@@GLIBC_2.4                                  /home/tool/arm-hjimi-linux-gnueabi/arm-hjimi-linux-gnueabi/sysroot/lib/libc.so.6
pread@GLIBC_2.4                                   /home/tool/arm-hjimi-linux-gnueabi/arm-hjimi-linux-gnueabi/sysroot/lib/libc.so.6
print_buf_32                                      output/drivers/qspi/nor_test.o
print_cur_time                                    output/tools/printf/printf.o
                                                  output/tools/easylogger/port/elog_port.o
                                                  output/tools/FreeRTOS_CLI/imi_console.o
                                                  output/drivers/vcsel_driver/lm3644.o
                                                  output/drivers/vcsel_driver/lm36011.o
                                                  output/drivers/usb/musb/musbhsdma.o
                                                  output/drivers/usb/musb/musb_core.o
                                                  output/drivers/usb/gadget/function/f_imi.o
                                                  output/drivers/usb/gadget/composite.o
                                                  output/drivers/irrx/ov928x.o
                                                  output/drivers/i2c/i2c_core.o
                                                  output/drivers/i2c/i2c-designware-slave.o
                                                  output/drivers/i2c/i2c-designware-platdrv.o
                                                  output/drivers/i2c/i2c-designware-master.o
                                                  output/drivers/i2c/i2c-designware-common.o
                                                  output/drivers/dma/pl330.o
                                                  output/drivers/dma/dmaengine.o
                                                  output/drivers/csi_rx/csi_rx_2280.o
print_nand_byte                                   output/drivers/qspi/nand_test.o
print_nand_char                                   output/drivers/qspi/nand_test.o
print_nand_int                                    output/drivers/qspi/nand_test.o
print_nor_byte                                    output/drivers/qspi/nor_test.o
print_nor_int                                     output/drivers/qspi/nor_test.o
printf                                            output/tools/printf/printf.o
                                                  ./drivers/ddr/libddr_64.a(dcu.o)
                                                  output/tools/easylogger/port/elog_port.o
                                                  output/tools/FreeRTOS_CLI/imi_console.o
                                                  output/rtos/timers.o
                                                  output/rtos/tasks.o
printf@@GLIBC_2.4                                 /home/tool/arm-hjimi-linux-gnueabi/arm-hjimi-linux-gnueabi/sysroot/lib/libc.so.6
printf@GLIBC_2.4                                  /home/tool/arm-hjimi-linux-gnueabi/arm-hjimi-linux-gnueabi/sysroot/lib/libc.so.6
profil                                            /home/tool/arm-hjimi-linux-gnueabi/arm-hjimi-linux-gnueabi/sysroot/lib/libc.so.6
profil@@GLIBC_2.4                                 /home/tool/arm-hjimi-linux-gnueabi/arm-hjimi-linux-gnueabi/sysroot/lib/libc.so.6
profil@GLIBC_2.4                                  /home/tool/arm-hjimi-linux-gnueabi/arm-hjimi-linux-gnueabi/sysroot/lib/libc.so.6
profil_counter                                    /home/tool/arm-hjimi-linux-gnueabi/arm-hjimi-linux-gnueabi/sysroot/lib/libc.so.6
profil_counter@@GLIBC_2.4                         /home/tool/arm-hjimi-linux-gnueabi/arm-hjimi-linux-gnueabi/sysroot/lib/libc.so.6
profil_counter@GLIBC_2.4                          /home/tool/arm-hjimi-linux-gnueabi/arm-hjimi-linux-gnueabi/sysroot/lib/libc.so.6
program_invocation_name                           /home/tool/arm-hjimi-linux-gnueabi/arm-hjimi-linux-gnueabi/sysroot/lib/libc.so.6
program_invocation_name@@GLIBC_2.4                /home/tool/arm-hjimi-linux-gnueabi/arm-hjimi-linux-gnueabi/sysroot/lib/libc.so.6
program_invocation_name@GLIBC_2.4                 /home/tool/arm-hjimi-linux-gnueabi/arm-hjimi-linux-gnueabi/sysroot/lib/libc.so.6
program_invocation_short_name                     /home/tool/arm-hjimi-linux-gnueabi/arm-hjimi-linux-gnueabi/sysroot/lib/libc.so.6
program_invocation_short_name@@GLIBC_2.4          /home/tool/arm-hjimi-linux-gnueabi/arm-hjimi-linux-gnueabi/sysroot/lib/libc.so.6
program_invocation_short_name@GLIBC_2.4           /home/tool/arm-hjimi-linux-gnueabi/arm-hjimi-linux-gnueabi/sysroot/lib/libc.so.6
pselect                                           /home/tool/arm-hjimi-linux-gnueabi/arm-hjimi-linux-gnueabi/sysroot/lib/libc.so.6
pselect@@GLIBC_2.4                                /home/tool/arm-hjimi-linux-gnueabi/arm-hjimi-linux-gnueabi/sysroot/lib/libc.so.6
pselect@GLIBC_2.4                                 /home/tool/arm-hjimi-linux-gnueabi/arm-hjimi-linux-gnueabi/sysroot/lib/libc.so.6
ptsname_r                                         /home/tool/arm-hjimi-linux-gnueabi/arm-hjimi-linux-gnueabi/sysroot/lib/libc.so.6
ptsname_r@@GLIBC_2.4                              /home/tool/arm-hjimi-linux-gnueabi/arm-hjimi-linux-gnueabi/sysroot/lib/libc.so.6
ptsname_r@GLIBC_2.4                               /home/tool/arm-hjimi-linux-gnueabi/arm-hjimi-linux-gnueabi/sysroot/lib/libc.so.6
putc                                              /home/tool/arm-hjimi-linux-gnueabi/arm-hjimi-linux-gnueabi/sysroot/lib/libc.so.6
putc@@GLIBC_2.4                                   /home/tool/arm-hjimi-linux-gnueabi/arm-hjimi-linux-gnueabi/sysroot/lib/libc.so.6
putc@GLIBC_2.4                                    /home/tool/arm-hjimi-linux-gnueabi/arm-hjimi-linux-gnueabi/sysroot/lib/libc.so.6
puts                                              /home/tool/arm-hjimi-linux-gnueabi/arm-hjimi-linux-gnueabi/sysroot/lib/libc.so.6
puts@@GLIBC_2.4                                   /home/tool/arm-hjimi-linux-gnueabi/arm-hjimi-linux-gnueabi/sysroot/lib/libc.so.6
puts@GLIBC_2.4                                    /home/tool/arm-hjimi-linux-gnueabi/arm-hjimi-linux-gnueabi/sysroot/lib/libc.so.6
pututline                                         /home/tool/arm-hjimi-linux-gnueabi/arm-hjimi-linux-gnueabi/sysroot/lib/libc.so.6
pututline@@GLIBC_2.4                              /home/tool/arm-hjimi-linux-gnueabi/arm-hjimi-linux-gnueabi/sysroot/lib/libc.so.6
pututline@GLIBC_2.4                               /home/tool/arm-hjimi-linux-gnueabi/arm-hjimi-linux-gnueabi/sysroot/lib/libc.so.6
pvPortMalloc                                      output/rtos/portable/MemMang/heap_4.o
                                                  output/tools/FreeRTOS_CLI/FreeRTOS_CLI.o
                                                  output/drivers/vcsel_driver/lm3644.o
                                                  output/drivers/vcsel_driver/lm36011.o
                                                  output/drivers/vcsel_driver/vcsel.o
                                                  output/drivers/usb/musb/musbhsdma.o
                                                  output/drivers/usb/musb/musb_gadget.o
                                                  output/drivers/usb/musb/musb_core.o
                                                  output/drivers/usb/gadget/function/u_imi.o
                                                  output/drivers/usb/gadget/function/imi_vendor_cmd.o
                                                  output/drivers/usb/gadget/function/f_imi.o
                                                  output/drivers/trigger/trigger.o
                                                  output/drivers/trigger/sensor_sync_2280.o
                                                  output/drivers/reset/reset.o
                                                  output/drivers/reset/reset_imi2280.o
                                                  output/drivers/irrx/ov928x.o
                                                  output/drivers/irrx/irrx.o
                                                  output/drivers/i2c/i2c_core.o
                                                  output/drivers/i2c/i2c-designware-platdrv.o
                                                  output/drivers/dpu_2280/dpu_dev.o
                                                  output/drivers/dpu_2280/dpu.o
                                                  output/drivers/dma/pl330.o
                                                  output/drivers/dma/dmaengine.o
                                                  output/drivers/csi_rx/vidomain_2280.o
                                                  output/drivers/csi_rx/csi_rx_2280.o
                                                  output/drivers/buf_man/imi_bm.o
                                                  output/drivers/base/imi_dev.o
                                                  output/app/imi_app/vendor/vendor_misc.o
                                                  output/app/dpu/msg_module.o
                                                  output/app/dpu/dputask.o
                                                  output/rtos/timers.o
                                                  output/rtos/tasks.o
                                                  output/rtos/stream_buffer.o
                                                  output/rtos/queue.o
                                                  output/rtos/event_groups.o
pvTaskIncrementMutexHeldCount                     output/rtos/tasks.o
                                                  output/rtos/queue.o
pvTimerGetTimerID                                 output/rtos/timers.o
pvalloc                                           /home/tool/arm-hjimi-linux-gnueabi/arm-hjimi-linux-gnueabi/sysroot/lib/libc.so.6
pvalloc@@GLIBC_2.4                                /home/tool/arm-hjimi-linux-gnueabi/arm-hjimi-linux-gnueabi/sysroot/lib/libc.so.6
pvalloc@GLIBC_2.4                                 /home/tool/arm-hjimi-linux-gnueabi/arm-hjimi-linux-gnueabi/sysroot/lib/libc.so.6
pwrite                                            /home/tool/arm-hjimi-linux-gnueabi/arm-hjimi-linux-gnueabi/sysroot/lib/libc.so.6
pwrite64                                          /home/tool/arm-hjimi-linux-gnueabi/arm-hjimi-linux-gnueabi/sysroot/lib/libc.so.6
pwrite64@@GLIBC_2.4                               /home/tool/arm-hjimi-linux-gnueabi/arm-hjimi-linux-gnueabi/sysroot/lib/libc.so.6
pwrite64@GLIBC_2.4                                /home/tool/arm-hjimi-linux-gnueabi/arm-hjimi-linux-gnueabi/sysroot/lib/libc.so.6
pwrite@@GLIBC_2.4                                 /home/tool/arm-hjimi-linux-gnueabi/arm-hjimi-linux-gnueabi/sysroot/lib/libc.so.6
pwrite@GLIBC_2.4                                  /home/tool/arm-hjimi-linux-gnueabi/arm-hjimi-linux-gnueabi/sysroot/lib/libc.so.6
pxCurrentTCB                                      output/rtos/tasks.o
                                                  output/drivers/irq/interrupt.o
                                                  output/rtos/portable/GCC/port.o
pxPortInitialiseStack                             output/rtos/portable/GCC/port.o
                                                  output/rtos/tasks.o
qecvt_r                                           /home/tool/arm-hjimi-linux-gnueabi/arm-hjimi-linux-gnueabi/sysroot/lib/libc.so.6
qecvt_r@@GLIBC_2.4                                /home/tool/arm-hjimi-linux-gnueabi/arm-hjimi-linux-gnueabi/sysroot/lib/libc.so.6
qecvt_r@GLIBC_2.4                                 /home/tool/arm-hjimi-linux-gnueabi/arm-hjimi-linux-gnueabi/sysroot/lib/libc.so.6
qfcvt_r                                           /home/tool/arm-hjimi-linux-gnueabi/arm-hjimi-linux-gnueabi/sysroot/lib/libc.so.6
qfcvt_r@@GLIBC_2.4                                /home/tool/arm-hjimi-linux-gnueabi/arm-hjimi-linux-gnueabi/sysroot/lib/libc.so.6
qfcvt_r@GLIBC_2.4                                 /home/tool/arm-hjimi-linux-gnueabi/arm-hjimi-linux-gnueabi/sysroot/lib/libc.so.6
qsort_r                                           /home/tool/arm-hjimi-linux-gnueabi/arm-hjimi-linux-gnueabi/sysroot/lib/libc.so.6
qsort_r@@GLIBC_2.8                                /home/tool/arm-hjimi-linux-gnueabi/arm-hjimi-linux-gnueabi/sysroot/lib/libc.so.6
qsort_r@GLIBC_2.8                                 /home/tool/arm-hjimi-linux-gnueabi/arm-hjimi-linux-gnueabi/sysroot/lib/libc.so.6
qspi_dma_complete                                 output/drivers/qspi/candence_qspi.o
quad_mode_r                                       output/drivers/qspi/nor_test.o
quad_mode_s                                       output/drivers/qspi/nor_test.o
quad_mode_w                                       output/drivers/qspi/nor_test.o
queue_uart_buff                                   output/main/uart_task.o
queue_uart_cmd                                    output/main/uart_task.o
random                                            /home/tool/arm-hjimi-linux-gnueabi/arm-hjimi-linux-gnueabi/sysroot/lib/libc.so.6
random@@GLIBC_2.4                                 /home/tool/arm-hjimi-linux-gnueabi/arm-hjimi-linux-gnueabi/sysroot/lib/libc.so.6
random@GLIBC_2.4                                  /home/tool/arm-hjimi-linux-gnueabi/arm-hjimi-linux-gnueabi/sysroot/lib/libc.so.6
random_r                                          /home/tool/arm-hjimi-linux-gnueabi/arm-hjimi-linux-gnueabi/sysroot/lib/libc.so.6
random_r@@GLIBC_2.4                               /home/tool/arm-hjimi-linux-gnueabi/arm-hjimi-linux-gnueabi/sysroot/lib/libc.so.6
random_r@GLIBC_2.4                                /home/tool/arm-hjimi-linux-gnueabi/arm-hjimi-linux-gnueabi/sysroot/lib/libc.so.6
rawmemchr                                         /home/tool/arm-hjimi-linux-gnueabi/arm-hjimi-linux-gnueabi/sysroot/lib/libc.so.6
rawmemchr@@GLIBC_2.4                              /home/tool/arm-hjimi-linux-gnueabi/arm-hjimi-linux-gnueabi/sysroot/lib/libc.so.6
rawmemchr@GLIBC_2.4                               /home/tool/arm-hjimi-linux-gnueabi/arm-hjimi-linux-gnueabi/sysroot/lib/libc.so.6
re_comp                                           /home/tool/arm-hjimi-linux-gnueabi/arm-hjimi-linux-gnueabi/sysroot/lib/libc.so.6
re_comp@@GLIBC_2.4                                /home/tool/arm-hjimi-linux-gnueabi/arm-hjimi-linux-gnueabi/sysroot/lib/libc.so.6
re_comp@GLIBC_2.4                                 /home/tool/arm-hjimi-linux-gnueabi/arm-hjimi-linux-gnueabi/sysroot/lib/libc.so.6
re_compile_fastmap                                /home/tool/arm-hjimi-linux-gnueabi/arm-hjimi-linux-gnueabi/sysroot/lib/libc.so.6
re_compile_fastmap@@GLIBC_2.4                     /home/tool/arm-hjimi-linux-gnueabi/arm-hjimi-linux-gnueabi/sysroot/lib/libc.so.6
re_compile_fastmap@GLIBC_2.4                      /home/tool/arm-hjimi-linux-gnueabi/arm-hjimi-linux-gnueabi/sysroot/lib/libc.so.6
re_compile_pattern                                /home/tool/arm-hjimi-linux-gnueabi/arm-hjimi-linux-gnueabi/sysroot/lib/libc.so.6
re_compile_pattern@@GLIBC_2.4                     /home/tool/arm-hjimi-linux-gnueabi/arm-hjimi-linux-gnueabi/sysroot/lib/libc.so.6
re_compile_pattern@GLIBC_2.4                      /home/tool/arm-hjimi-linux-gnueabi/arm-hjimi-linux-gnueabi/sysroot/lib/libc.so.6
re_exec                                           /home/tool/arm-hjimi-linux-gnueabi/arm-hjimi-linux-gnueabi/sysroot/lib/libc.so.6
re_exec@@GLIBC_2.4                                /home/tool/arm-hjimi-linux-gnueabi/arm-hjimi-linux-gnueabi/sysroot/lib/libc.so.6
re_exec@GLIBC_2.4                                 /home/tool/arm-hjimi-linux-gnueabi/arm-hjimi-linux-gnueabi/sysroot/lib/libc.so.6
re_match                                          /home/tool/arm-hjimi-linux-gnueabi/arm-hjimi-linux-gnueabi/sysroot/lib/libc.so.6
re_match@@GLIBC_2.4                               /home/tool/arm-hjimi-linux-gnueabi/arm-hjimi-linux-gnueabi/sysroot/lib/libc.so.6
re_match@GLIBC_2.4                                /home/tool/arm-hjimi-linux-gnueabi/arm-hjimi-linux-gnueabi/sysroot/lib/libc.so.6
re_match_2                                        /home/tool/arm-hjimi-linux-gnueabi/arm-hjimi-linux-gnueabi/sysroot/lib/libc.so.6
re_match_2@@GLIBC_2.4                             /home/tool/arm-hjimi-linux-gnueabi/arm-hjimi-linux-gnueabi/sysroot/lib/libc.so.6
re_match_2@GLIBC_2.4                              /home/tool/arm-hjimi-linux-gnueabi/arm-hjimi-linux-gnueabi/sysroot/lib/libc.so.6
re_search                                         /home/tool/arm-hjimi-linux-gnueabi/arm-hjimi-linux-gnueabi/sysroot/lib/libc.so.6
re_search@@GLIBC_2.4                              /home/tool/arm-hjimi-linux-gnueabi/arm-hjimi-linux-gnueabi/sysroot/lib/libc.so.6
re_search@GLIBC_2.4                               /home/tool/arm-hjimi-linux-gnueabi/arm-hjimi-linux-gnueabi/sysroot/lib/libc.so.6
re_search_2                                       /home/tool/arm-hjimi-linux-gnueabi/arm-hjimi-linux-gnueabi/sysroot/lib/libc.so.6
re_search_2@@GLIBC_2.4                            /home/tool/arm-hjimi-linux-gnueabi/arm-hjimi-linux-gnueabi/sysroot/lib/libc.so.6
re_search_2@GLIBC_2.4                             /home/tool/arm-hjimi-linux-gnueabi/arm-hjimi-linux-gnueabi/sysroot/lib/libc.so.6
re_set_registers                                  /home/tool/arm-hjimi-linux-gnueabi/arm-hjimi-linux-gnueabi/sysroot/lib/libc.so.6
re_set_registers@@GLIBC_2.4                       /home/tool/arm-hjimi-linux-gnueabi/arm-hjimi-linux-gnueabi/sysroot/lib/libc.so.6
re_set_registers@GLIBC_2.4                        /home/tool/arm-hjimi-linux-gnueabi/arm-hjimi-linux-gnueabi/sysroot/lib/libc.so.6
re_set_syntax                                     /home/tool/arm-hjimi-linux-gnueabi/arm-hjimi-linux-gnueabi/sysroot/lib/libc.so.6
re_set_syntax@@GLIBC_2.4                          /home/tool/arm-hjimi-linux-gnueabi/arm-hjimi-linux-gnueabi/sysroot/lib/libc.so.6
re_set_syntax@GLIBC_2.4                           /home/tool/arm-hjimi-linux-gnueabi/arm-hjimi-linux-gnueabi/sysroot/lib/libc.so.6
read32_log1                                       output/drivers/dpu_2280/dpu_dev.o
readahead                                         /home/tool/arm-hjimi-linux-gnueabi/arm-hjimi-linux-gnueabi/sysroot/lib/libc.so.6
readahead@@GLIBC_2.4                              /home/tool/arm-hjimi-linux-gnueabi/arm-hjimi-linux-gnueabi/sysroot/lib/libc.so.6
readahead@GLIBC_2.4                               /home/tool/arm-hjimi-linux-gnueabi/arm-hjimi-linux-gnueabi/sysroot/lib/libc.so.6
readdir                                           /home/tool/arm-hjimi-linux-gnueabi/arm-hjimi-linux-gnueabi/sysroot/lib/libc.so.6
readdir@@GLIBC_2.4                                /home/tool/arm-hjimi-linux-gnueabi/arm-hjimi-linux-gnueabi/sysroot/lib/libc.so.6
readdir@GLIBC_2.4                                 /home/tool/arm-hjimi-linux-gnueabi/arm-hjimi-linux-gnueabi/sysroot/lib/libc.so.6
readdir_r                                         /home/tool/arm-hjimi-linux-gnueabi/arm-hjimi-linux-gnueabi/sysroot/lib/libc.so.6
readdir_r@@GLIBC_2.4                              /home/tool/arm-hjimi-linux-gnueabi/arm-hjimi-linux-gnueabi/sysroot/lib/libc.so.6
readdir_r@GLIBC_2.4                               /home/tool/arm-hjimi-linux-gnueabi/arm-hjimi-linux-gnueabi/sysroot/lib/libc.so.6
readlink                                          /home/tool/arm-hjimi-linux-gnueabi/arm-hjimi-linux-gnueabi/sysroot/lib/libc.so.6
readlink@@GLIBC_2.4                               /home/tool/arm-hjimi-linux-gnueabi/arm-hjimi-linux-gnueabi/sysroot/lib/libc.so.6
readlink@GLIBC_2.4                                /home/tool/arm-hjimi-linux-gnueabi/arm-hjimi-linux-gnueabi/sysroot/lib/libc.so.6
readv                                             /home/tool/arm-hjimi-linux-gnueabi/arm-hjimi-linux-gnueabi/sysroot/lib/libc.so.6
readv@@GLIBC_2.4                                  /home/tool/arm-hjimi-linux-gnueabi/arm-hjimi-linux-gnueabi/sysroot/lib/libc.so.6
readv@GLIBC_2.4                                   /home/tool/arm-hjimi-linux-gnueabi/arm-hjimi-linux-gnueabi/sysroot/lib/libc.so.6
reallocarray                                      /home/tool/arm-hjimi-linux-gnueabi/arm-hjimi-linux-gnueabi/sysroot/lib/libc.so.6
reallocarray@@GLIBC_2.26                          /home/tool/arm-hjimi-linux-gnueabi/arm-hjimi-linux-gnueabi/sysroot/lib/libc.so.6
reallocarray@GLIBC_2.26                           /home/tool/arm-hjimi-linux-gnueabi/arm-hjimi-linux-gnueabi/sysroot/lib/libc.so.6
recieve_msg_info                                  output/main/uart_task.o
recv                                              /home/tool/arm-hjimi-linux-gnueabi/arm-hjimi-linux-gnueabi/sysroot/lib/libc.so.6
recv@@GLIBC_2.4                                   /home/tool/arm-hjimi-linux-gnueabi/arm-hjimi-linux-gnueabi/sysroot/lib/libc.so.6
recv@GLIBC_2.4                                    /home/tool/arm-hjimi-linux-gnueabi/arm-hjimi-linux-gnueabi/sysroot/lib/libc.so.6
recvfrom                                          /home/tool/arm-hjimi-linux-gnueabi/arm-hjimi-linux-gnueabi/sysroot/lib/libc.so.6
recvfrom@@GLIBC_2.4                               /home/tool/arm-hjimi-linux-gnueabi/arm-hjimi-linux-gnueabi/sysroot/lib/libc.so.6
recvfrom@GLIBC_2.4                                /home/tool/arm-hjimi-linux-gnueabi/arm-hjimi-linux-gnueabi/sysroot/lib/libc.so.6
recvmsg                                           /home/tool/arm-hjimi-linux-gnueabi/arm-hjimi-linux-gnueabi/sysroot/lib/libc.so.6
recvmsg@@GLIBC_2.4                                /home/tool/arm-hjimi-linux-gnueabi/arm-hjimi-linux-gnueabi/sysroot/lib/libc.so.6
recvmsg@GLIBC_2.4                                 /home/tool/arm-hjimi-linux-gnueabi/arm-hjimi-linux-gnueabi/sysroot/lib/libc.so.6
ref_img                                           output/app/dpu/dpu_hal.o
regcomp                                           /home/tool/arm-hjimi-linux-gnueabi/arm-hjimi-linux-gnueabi/sysroot/lib/libc.so.6
regcomp@@GLIBC_2.4                                /home/tool/arm-hjimi-linux-gnueabi/arm-hjimi-linux-gnueabi/sysroot/lib/libc.so.6
regcomp@GLIBC_2.4                                 /home/tool/arm-hjimi-linux-gnueabi/arm-hjimi-linux-gnueabi/sysroot/lib/libc.so.6
regerror                                          /home/tool/arm-hjimi-linux-gnueabi/arm-hjimi-linux-gnueabi/sysroot/lib/libc.so.6
regerror@@GLIBC_2.4                               /home/tool/arm-hjimi-linux-gnueabi/arm-hjimi-linux-gnueabi/sysroot/lib/libc.so.6
regerror@GLIBC_2.4                                /home/tool/arm-hjimi-linux-gnueabi/arm-hjimi-linux-gnueabi/sysroot/lib/libc.so.6
regfree                                           /home/tool/arm-hjimi-linux-gnueabi/arm-hjimi-linux-gnueabi/sysroot/lib/libc.so.6
regfree@@GLIBC_2.4                                /home/tool/arm-hjimi-linux-gnueabi/arm-hjimi-linux-gnueabi/sysroot/lib/libc.so.6
regfree@GLIBC_2.4                                 /home/tool/arm-hjimi-linux-gnueabi/arm-hjimi-linux-gnueabi/sysroot/lib/libc.so.6
register_printf_function                          /home/tool/arm-hjimi-linux-gnueabi/arm-hjimi-linux-gnueabi/sysroot/lib/libc.so.6
register_printf_function@@GLIBC_2.4               /home/tool/arm-hjimi-linux-gnueabi/arm-hjimi-linux-gnueabi/sysroot/lib/libc.so.6
register_printf_function@GLIBC_2.4                /home/tool/arm-hjimi-linux-gnueabi/arm-hjimi-linux-gnueabi/sysroot/lib/libc.so.6
register_printf_modifier                          /home/tool/arm-hjimi-linux-gnueabi/arm-hjimi-linux-gnueabi/sysroot/lib/libc.so.6
register_printf_modifier@@GLIBC_2.10              /home/tool/arm-hjimi-linux-gnueabi/arm-hjimi-linux-gnueabi/sysroot/lib/libc.so.6
register_printf_modifier@GLIBC_2.10               /home/tool/arm-hjimi-linux-gnueabi/arm-hjimi-linux-gnueabi/sysroot/lib/libc.so.6
register_printf_specifier                         /home/tool/arm-hjimi-linux-gnueabi/arm-hjimi-linux-gnueabi/sysroot/lib/libc.so.6
register_printf_specifier@@GLIBC_2.10             /home/tool/arm-hjimi-linux-gnueabi/arm-hjimi-linux-gnueabi/sysroot/lib/libc.so.6
register_printf_specifier@GLIBC_2.10              /home/tool/arm-hjimi-linux-gnueabi/arm-hjimi-linux-gnueabi/sysroot/lib/libc.so.6
register_printf_type                              /home/tool/arm-hjimi-linux-gnueabi/arm-hjimi-linux-gnueabi/sysroot/lib/libc.so.6
register_printf_type@@GLIBC_2.10                  /home/tool/arm-hjimi-linux-gnueabi/arm-hjimi-linux-gnueabi/sysroot/lib/libc.so.6
register_printf_type@GLIBC_2.10                   /home/tool/arm-hjimi-linux-gnueabi/arm-hjimi-linux-gnueabi/sysroot/lib/libc.so.6
remap_file_pages                                  /home/tool/arm-hjimi-linux-gnueabi/arm-hjimi-linux-gnueabi/sysroot/lib/libc.so.6
remap_file_pages@@GLIBC_2.4                       /home/tool/arm-hjimi-linux-gnueabi/arm-hjimi-linux-gnueabi/sysroot/lib/libc.so.6
remap_file_pages@GLIBC_2.4                        /home/tool/arm-hjimi-linux-gnueabi/arm-hjimi-linux-gnueabi/sysroot/lib/libc.so.6
request_irq                                       output/drivers/irq/vic_int.o
                                                  output/drivers/usb/musb/musbhsdma.o
                                                  output/drivers/usb/musb/musb_core.o
                                                  output/drivers/timers/timer_imi2280.o
                                                  output/drivers/i2c/i2c-designware-slave.o
                                                  output/drivers/i2c/i2c-designware-master.o
                                                  output/drivers/dpu_2280/dpu_dev.o
                                                  output/drivers/dma/pl330.o
                                                  output/main/uart_task.o
res_get_nand_info                                 output/drivers/qspi/nand/spi_nand.o
res_get_nor_info                                  output/drivers/qspi/nor/spi_nor.o
reset                                             output/boards/2280_ddr/start/start.o
reset_control_assert                              output/drivers/reset/reset.o
                                                  output/drivers/i2c/i2c-designware-platdrv.o
                                                  output/drivers/dpu_2280/dpu_dev.o
                                                  output/drivers/csi_rx/csi_rx_2280.o
reset_control_deassert                            output/drivers/reset/reset.o
                                                  output/drivers/i2c/i2c-designware-platdrv.o
                                                  output/drivers/dpu_2280/dpu_dev.o
                                                  output/drivers/csi_rx/csi_rx_2280.o
reset_control_get                                 output/drivers/reset/reset.o
                                                  output/drivers/i2c/i2c-designware-platdrv.o
                                                  output/drivers/dpu_2280/dpu_dev.o
                                                  output/drivers/csi_rx/csi_rx_2280.o
reset_control_reset                               output/drivers/reset/reset.o
                                                  output/drivers/dpu_2280/dpu_dev.o
reset_control_status                              output/drivers/reset/reset.o
reset_controller_register                         output/drivers/reset/reset.o
                                                  output/drivers/reset/reset_imi2280.o
reset_controller_unregister                       output/drivers/reset/reset.o
reset_probe                                       output/drivers/reset/reset.o
retstring                                         output/tools/easylogger/port/elog_port.o
rewinddir                                         /home/tool/arm-hjimi-linux-gnueabi/arm-hjimi-linux-gnueabi/sysroot/lib/libc.so.6
rewinddir@@GLIBC_2.4                              /home/tool/arm-hjimi-linux-gnueabi/arm-hjimi-linux-gnueabi/sysroot/lib/libc.so.6
rewinddir@GLIBC_2.4                               /home/tool/arm-hjimi-linux-gnueabi/arm-hjimi-linux-gnueabi/sysroot/lib/libc.so.6
rindex                                            /home/tool/arm-hjimi-linux-gnueabi/arm-hjimi-linux-gnueabi/sysroot/lib/libc.so.6
rindex@@GLIBC_2.4                                 /home/tool/arm-hjimi-linux-gnueabi/arm-hjimi-linux-gnueabi/sysroot/lib/libc.so.6
rindex@GLIBC_2.4                                  /home/tool/arm-hjimi-linux-gnueabi/arm-hjimi-linux-gnueabi/sysroot/lib/libc.so.6
rmdir                                             /home/tool/arm-hjimi-linux-gnueabi/arm-hjimi-linux-gnueabi/sysroot/lib/libc.so.6
rmdir@@GLIBC_2.4                                  /home/tool/arm-hjimi-linux-gnueabi/arm-hjimi-linux-gnueabi/sysroot/lib/libc.so.6
rmdir@GLIBC_2.4                                   /home/tool/arm-hjimi-linux-gnueabi/arm-hjimi-linux-gnueabi/sysroot/lib/libc.so.6
rvalue                                            ./drivers/ddr/libddr_64.a(dcu.o)
rvl_dev_init                                      output/drivers/rvl/rvl.o
rvl_handler                                       output/drivers/rvl/rvl.o
rx_chan                                           output/drivers/qspi/candence_qspi.o
s2d                                               output/app/dpu/dpu_hal.o
sbrk                                              /home/tool/arm-hjimi-linux-gnueabi/arm-hjimi-linux-gnueabi/sysroot/lib/libc.so.6
sbrk@@GLIBC_2.4                                   /home/tool/arm-hjimi-linux-gnueabi/arm-hjimi-linux-gnueabi/sysroot/lib/libc.so.6
sbrk@GLIBC_2.4                                    /home/tool/arm-hjimi-linux-gnueabi/arm-hjimi-linux-gnueabi/sysroot/lib/libc.so.6
scalbn                                            /home/tool/arm-hjimi-linux-gnueabi/arm-hjimi-linux-gnueabi/sysroot/lib/libc.so.6
scalbn@@GLIBC_2.4                                 /home/tool/arm-hjimi-linux-gnueabi/arm-hjimi-linux-gnueabi/sysroot/lib/libc.so.6
scalbn@GLIBC_2.4                                  /home/tool/arm-hjimi-linux-gnueabi/arm-hjimi-linux-gnueabi/sysroot/lib/libc.so.6
scalbnf                                           /home/tool/arm-hjimi-linux-gnueabi/arm-hjimi-linux-gnueabi/sysroot/lib/libc.so.6
scalbnf@@GLIBC_2.4                                /home/tool/arm-hjimi-linux-gnueabi/arm-hjimi-linux-gnueabi/sysroot/lib/libc.so.6
scalbnf@GLIBC_2.4                                 /home/tool/arm-hjimi-linux-gnueabi/arm-hjimi-linux-gnueabi/sysroot/lib/libc.so.6
scalbnl                                           /home/tool/arm-hjimi-linux-gnueabi/arm-hjimi-linux-gnueabi/sysroot/lib/libc.so.6
scalbnl@@GLIBC_2.4                                /home/tool/arm-hjimi-linux-gnueabi/arm-hjimi-linux-gnueabi/sysroot/lib/libc.so.6
scalbnl@GLIBC_2.4                                 /home/tool/arm-hjimi-linux-gnueabi/arm-hjimi-linux-gnueabi/sysroot/lib/libc.so.6
scandirat                                         /home/tool/arm-hjimi-linux-gnueabi/arm-hjimi-linux-gnueabi/sysroot/lib/libc.so.6
scandirat@@GLIBC_2.15                             /home/tool/arm-hjimi-linux-gnueabi/arm-hjimi-linux-gnueabi/sysroot/lib/libc.so.6
scandirat@GLIBC_2.15                              /home/tool/arm-hjimi-linux-gnueabi/arm-hjimi-linux-gnueabi/sysroot/lib/libc.so.6
sched_get_priority_max                            /home/tool/arm-hjimi-linux-gnueabi/arm-hjimi-linux-gnueabi/sysroot/lib/libc.so.6
sched_get_priority_max@@GLIBC_2.4                 /home/tool/arm-hjimi-linux-gnueabi/arm-hjimi-linux-gnueabi/sysroot/lib/libc.so.6
sched_get_priority_max@GLIBC_2.4                  /home/tool/arm-hjimi-linux-gnueabi/arm-hjimi-linux-gnueabi/sysroot/lib/libc.so.6
sched_get_priority_min                            /home/tool/arm-hjimi-linux-gnueabi/arm-hjimi-linux-gnueabi/sysroot/lib/libc.so.6
sched_get_priority_min@@GLIBC_2.4                 /home/tool/arm-hjimi-linux-gnueabi/arm-hjimi-linux-gnueabi/sysroot/lib/libc.so.6
sched_get_priority_min@GLIBC_2.4                  /home/tool/arm-hjimi-linux-gnueabi/arm-hjimi-linux-gnueabi/sysroot/lib/libc.so.6
sched_getparam                                    /home/tool/arm-hjimi-linux-gnueabi/arm-hjimi-linux-gnueabi/sysroot/lib/libc.so.6
sched_getparam@@GLIBC_2.4                         /home/tool/arm-hjimi-linux-gnueabi/arm-hjimi-linux-gnueabi/sysroot/lib/libc.so.6
sched_getparam@GLIBC_2.4                          /home/tool/arm-hjimi-linux-gnueabi/arm-hjimi-linux-gnueabi/sysroot/lib/libc.so.6
sched_getscheduler                                /home/tool/arm-hjimi-linux-gnueabi/arm-hjimi-linux-gnueabi/sysroot/lib/libc.so.6
sched_getscheduler@@GLIBC_2.4                     /home/tool/arm-hjimi-linux-gnueabi/arm-hjimi-linux-gnueabi/sysroot/lib/libc.so.6
sched_getscheduler@GLIBC_2.4                      /home/tool/arm-hjimi-linux-gnueabi/arm-hjimi-linux-gnueabi/sysroot/lib/libc.so.6
sched_rr_get_interval                             /home/tool/arm-hjimi-linux-gnueabi/arm-hjimi-linux-gnueabi/sysroot/lib/libc.so.6
sched_rr_get_interval@@GLIBC_2.4                  /home/tool/arm-hjimi-linux-gnueabi/arm-hjimi-linux-gnueabi/sysroot/lib/libc.so.6
sched_rr_get_interval@GLIBC_2.4                   /home/tool/arm-hjimi-linux-gnueabi/arm-hjimi-linux-gnueabi/sysroot/lib/libc.so.6
sched_setparam                                    /home/tool/arm-hjimi-linux-gnueabi/arm-hjimi-linux-gnueabi/sysroot/lib/libc.so.6
sched_setparam@@GLIBC_2.4                         /home/tool/arm-hjimi-linux-gnueabi/arm-hjimi-linux-gnueabi/sysroot/lib/libc.so.6
sched_setparam@GLIBC_2.4                          /home/tool/arm-hjimi-linux-gnueabi/arm-hjimi-linux-gnueabi/sysroot/lib/libc.so.6
sched_setscheduler                                /home/tool/arm-hjimi-linux-gnueabi/arm-hjimi-linux-gnueabi/sysroot/lib/libc.so.6
sched_setscheduler@@GLIBC_2.4                     /home/tool/arm-hjimi-linux-gnueabi/arm-hjimi-linux-gnueabi/sysroot/lib/libc.so.6
sched_setscheduler@GLIBC_2.4                      /home/tool/arm-hjimi-linux-gnueabi/arm-hjimi-linux-gnueabi/sysroot/lib/libc.so.6
sched_yield                                       /home/tool/arm-hjimi-linux-gnueabi/arm-hjimi-linux-gnueabi/sysroot/lib/libc.so.6
sched_yield@@GLIBC_2.4                            /home/tool/arm-hjimi-linux-gnueabi/arm-hjimi-linux-gnueabi/sysroot/lib/libc.so.6
sched_yield@GLIBC_2.4                             /home/tool/arm-hjimi-linux-gnueabi/arm-hjimi-linux-gnueabi/sysroot/lib/libc.so.6
schedule_work                                     output/drivers/base/imi_work.o
secure_getenv                                     /home/tool/arm-hjimi-linux-gnueabi/arm-hjimi-linux-gnueabi/sysroot/lib/libc.so.6
secure_getenv@@GLIBC_2.17                         /home/tool/arm-hjimi-linux-gnueabi/arm-hjimi-linux-gnueabi/sysroot/lib/libc.so.6
secure_getenv@GLIBC_2.17                          /home/tool/arm-hjimi-linux-gnueabi/arm-hjimi-linux-gnueabi/sysroot/lib/libc.so.6
seed48_r                                          /home/tool/arm-hjimi-linux-gnueabi/arm-hjimi-linux-gnueabi/sysroot/lib/libc.so.6
seed48_r@@GLIBC_2.4                               /home/tool/arm-hjimi-linux-gnueabi/arm-hjimi-linux-gnueabi/sysroot/lib/libc.so.6
seed48_r@GLIBC_2.4                                /home/tool/arm-hjimi-linux-gnueabi/arm-hjimi-linux-gnueabi/sysroot/lib/libc.so.6
select                                            /home/tool/arm-hjimi-linux-gnueabi/arm-hjimi-linux-gnueabi/sysroot/lib/libc.so.6
select@@GLIBC_2.4                                 /home/tool/arm-hjimi-linux-gnueabi/arm-hjimi-linux-gnueabi/sysroot/lib/libc.so.6
select@GLIBC_2.4                                  /home/tool/arm-hjimi-linux-gnueabi/arm-hjimi-linux-gnueabi/sysroot/lib/libc.so.6
send                                              /home/tool/arm-hjimi-linux-gnueabi/arm-hjimi-linux-gnueabi/sysroot/lib/libc.so.6
send@@GLIBC_2.4                                   /home/tool/arm-hjimi-linux-gnueabi/arm-hjimi-linux-gnueabi/sysroot/lib/libc.so.6
send@GLIBC_2.4                                    /home/tool/arm-hjimi-linux-gnueabi/arm-hjimi-linux-gnueabi/sysroot/lib/libc.so.6
send_bytes                                        output/main/uart_task.o
sendmmsg                                          /home/tool/arm-hjimi-linux-gnueabi/arm-hjimi-linux-gnueabi/sysroot/lib/libc.so.6
sendmmsg@@GLIBC_2.14                              /home/tool/arm-hjimi-linux-gnueabi/arm-hjimi-linux-gnueabi/sysroot/lib/libc.so.6
sendmmsg@GLIBC_2.14                               /home/tool/arm-hjimi-linux-gnueabi/arm-hjimi-linux-gnueabi/sysroot/lib/libc.so.6
sendmsg                                           /home/tool/arm-hjimi-linux-gnueabi/arm-hjimi-linux-gnueabi/sysroot/lib/libc.so.6
sendmsg@@GLIBC_2.4                                /home/tool/arm-hjimi-linux-gnueabi/arm-hjimi-linux-gnueabi/sysroot/lib/libc.so.6
sendmsg@GLIBC_2.4                                 /home/tool/arm-hjimi-linux-gnueabi/arm-hjimi-linux-gnueabi/sysroot/lib/libc.so.6
sendto                                            /home/tool/arm-hjimi-linux-gnueabi/arm-hjimi-linux-gnueabi/sysroot/lib/libc.so.6
sendto@@GLIBC_2.4                                 /home/tool/arm-hjimi-linux-gnueabi/arm-hjimi-linux-gnueabi/sysroot/lib/libc.so.6
sendto@GLIBC_2.4                                  /home/tool/arm-hjimi-linux-gnueabi/arm-hjimi-linux-gnueabi/sysroot/lib/libc.so.6
set_nor_max_clk                                   output/drivers/qspi/nor_test.o
setbuffer                                         /home/tool/arm-hjimi-linux-gnueabi/arm-hjimi-linux-gnueabi/sysroot/lib/libc.so.6
setbuffer@@GLIBC_2.4                              /home/tool/arm-hjimi-linux-gnueabi/arm-hjimi-linux-gnueabi/sysroot/lib/libc.so.6
setbuffer@GLIBC_2.4                               /home/tool/arm-hjimi-linux-gnueabi/arm-hjimi-linux-gnueabi/sysroot/lib/libc.so.6
setcontext                                        /home/tool/arm-hjimi-linux-gnueabi/arm-hjimi-linux-gnueabi/sysroot/lib/libc.so.6
setcontext@@GLIBC_2.4                             /home/tool/arm-hjimi-linux-gnueabi/arm-hjimi-linux-gnueabi/sysroot/lib/libc.so.6
setcontext@GLIBC_2.4                              /home/tool/arm-hjimi-linux-gnueabi/arm-hjimi-linux-gnueabi/sysroot/lib/libc.so.6
setenv                                            /home/tool/arm-hjimi-linux-gnueabi/arm-hjimi-linux-gnueabi/sysroot/lib/libc.so.6
setenv@@GLIBC_2.4                                 /home/tool/arm-hjimi-linux-gnueabi/arm-hjimi-linux-gnueabi/sysroot/lib/libc.so.6
setenv@GLIBC_2.4                                  /home/tool/arm-hjimi-linux-gnueabi/arm-hjimi-linux-gnueabi/sysroot/lib/libc.so.6
setgid                                            /home/tool/arm-hjimi-linux-gnueabi/arm-hjimi-linux-gnueabi/sysroot/lib/libc.so.6
setgid@@GLIBC_2.4                                 /home/tool/arm-hjimi-linux-gnueabi/arm-hjimi-linux-gnueabi/sysroot/lib/libc.so.6
setgid@GLIBC_2.4                                  /home/tool/arm-hjimi-linux-gnueabi/arm-hjimi-linux-gnueabi/sysroot/lib/libc.so.6
setitimer                                         /home/tool/arm-hjimi-linux-gnueabi/arm-hjimi-linux-gnueabi/sysroot/lib/libc.so.6
setitimer@@GLIBC_2.4                              /home/tool/arm-hjimi-linux-gnueabi/arm-hjimi-linux-gnueabi/sysroot/lib/libc.so.6
setitimer@GLIBC_2.4                               /home/tool/arm-hjimi-linux-gnueabi/arm-hjimi-linux-gnueabi/sysroot/lib/libc.so.6
setmntent                                         /home/tool/arm-hjimi-linux-gnueabi/arm-hjimi-linux-gnueabi/sysroot/lib/libc.so.6
setmntent@@GLIBC_2.4                              /home/tool/arm-hjimi-linux-gnueabi/arm-hjimi-linux-gnueabi/sysroot/lib/libc.so.6
setmntent@GLIBC_2.4                               /home/tool/arm-hjimi-linux-gnueabi/arm-hjimi-linux-gnueabi/sysroot/lib/libc.so.6
setpgid                                           /home/tool/arm-hjimi-linux-gnueabi/arm-hjimi-linux-gnueabi/sysroot/lib/libc.so.6
setpgid@@GLIBC_2.4                                /home/tool/arm-hjimi-linux-gnueabi/arm-hjimi-linux-gnueabi/sysroot/lib/libc.so.6
setpgid@GLIBC_2.4                                 /home/tool/arm-hjimi-linux-gnueabi/arm-hjimi-linux-gnueabi/sysroot/lib/libc.so.6
setpriority                                       /home/tool/arm-hjimi-linux-gnueabi/arm-hjimi-linux-gnueabi/sysroot/lib/libc.so.6
setpriority@@GLIBC_2.4                            /home/tool/arm-hjimi-linux-gnueabi/arm-hjimi-linux-gnueabi/sysroot/lib/libc.so.6
setpriority@GLIBC_2.4                             /home/tool/arm-hjimi-linux-gnueabi/arm-hjimi-linux-gnueabi/sysroot/lib/libc.so.6
setregid                                          /home/tool/arm-hjimi-linux-gnueabi/arm-hjimi-linux-gnueabi/sysroot/lib/libc.so.6
setregid@@GLIBC_2.4                               /home/tool/arm-hjimi-linux-gnueabi/arm-hjimi-linux-gnueabi/sysroot/lib/libc.so.6
setregid@GLIBC_2.4                                /home/tool/arm-hjimi-linux-gnueabi/arm-hjimi-linux-gnueabi/sysroot/lib/libc.so.6
setresgid                                         /home/tool/arm-hjimi-linux-gnueabi/arm-hjimi-linux-gnueabi/sysroot/lib/libc.so.6
setresgid@@GLIBC_2.4                              /home/tool/arm-hjimi-linux-gnueabi/arm-hjimi-linux-gnueabi/sysroot/lib/libc.so.6
setresgid@GLIBC_2.4                               /home/tool/arm-hjimi-linux-gnueabi/arm-hjimi-linux-gnueabi/sysroot/lib/libc.so.6
setresuid                                         /home/tool/arm-hjimi-linux-gnueabi/arm-hjimi-linux-gnueabi/sysroot/lib/libc.so.6
setresuid@@GLIBC_2.4                              /home/tool/arm-hjimi-linux-gnueabi/arm-hjimi-linux-gnueabi/sysroot/lib/libc.so.6
setresuid@GLIBC_2.4                               /home/tool/arm-hjimi-linux-gnueabi/arm-hjimi-linux-gnueabi/sysroot/lib/libc.so.6
setreuid                                          /home/tool/arm-hjimi-linux-gnueabi/arm-hjimi-linux-gnueabi/sysroot/lib/libc.so.6
setreuid@@GLIBC_2.4                               /home/tool/arm-hjimi-linux-gnueabi/arm-hjimi-linux-gnueabi/sysroot/lib/libc.so.6
setreuid@GLIBC_2.4                                /home/tool/arm-hjimi-linux-gnueabi/arm-hjimi-linux-gnueabi/sysroot/lib/libc.so.6
setrlimit                                         /home/tool/arm-hjimi-linux-gnueabi/arm-hjimi-linux-gnueabi/sysroot/lib/libc.so.6
setrlimit64                                       /home/tool/arm-hjimi-linux-gnueabi/arm-hjimi-linux-gnueabi/sysroot/lib/libc.so.6
setrlimit64@@GLIBC_2.4                            /home/tool/arm-hjimi-linux-gnueabi/arm-hjimi-linux-gnueabi/sysroot/lib/libc.so.6
setrlimit64@GLIBC_2.4                             /home/tool/arm-hjimi-linux-gnueabi/arm-hjimi-linux-gnueabi/sysroot/lib/libc.so.6
setrlimit@@GLIBC_2.4                              /home/tool/arm-hjimi-linux-gnueabi/arm-hjimi-linux-gnueabi/sysroot/lib/libc.so.6
setrlimit@GLIBC_2.4                               /home/tool/arm-hjimi-linux-gnueabi/arm-hjimi-linux-gnueabi/sysroot/lib/libc.so.6
setsid                                            /home/tool/arm-hjimi-linux-gnueabi/arm-hjimi-linux-gnueabi/sysroot/lib/libc.so.6
setsid@@GLIBC_2.4                                 /home/tool/arm-hjimi-linux-gnueabi/arm-hjimi-linux-gnueabi/sysroot/lib/libc.so.6
setsid@GLIBC_2.4                                  /home/tool/arm-hjimi-linux-gnueabi/arm-hjimi-linux-gnueabi/sysroot/lib/libc.so.6
setsockopt                                        /home/tool/arm-hjimi-linux-gnueabi/arm-hjimi-linux-gnueabi/sysroot/lib/libc.so.6
setsockopt@@GLIBC_2.4                             /home/tool/arm-hjimi-linux-gnueabi/arm-hjimi-linux-gnueabi/sysroot/lib/libc.so.6
setsockopt@GLIBC_2.4                              /home/tool/arm-hjimi-linux-gnueabi/arm-hjimi-linux-gnueabi/sysroot/lib/libc.so.6
setstate                                          /home/tool/arm-hjimi-linux-gnueabi/arm-hjimi-linux-gnueabi/sysroot/lib/libc.so.6
setstate@@GLIBC_2.4                               /home/tool/arm-hjimi-linux-gnueabi/arm-hjimi-linux-gnueabi/sysroot/lib/libc.so.6
setstate@GLIBC_2.4                                /home/tool/arm-hjimi-linux-gnueabi/arm-hjimi-linux-gnueabi/sysroot/lib/libc.so.6
setstate_r                                        /home/tool/arm-hjimi-linux-gnueabi/arm-hjimi-linux-gnueabi/sysroot/lib/libc.so.6
setstate_r@@GLIBC_2.4                             /home/tool/arm-hjimi-linux-gnueabi/arm-hjimi-linux-gnueabi/sysroot/lib/libc.so.6
setstate_r@GLIBC_2.4                              /home/tool/arm-hjimi-linux-gnueabi/arm-hjimi-linux-gnueabi/sysroot/lib/libc.so.6
settimeofday                                      /home/tool/arm-hjimi-linux-gnueabi/arm-hjimi-linux-gnueabi/sysroot/lib/libc.so.6
settimeofday@@GLIBC_2.4                           /home/tool/arm-hjimi-linux-gnueabi/arm-hjimi-linux-gnueabi/sysroot/lib/libc.so.6
settimeofday@GLIBC_2.4                            /home/tool/arm-hjimi-linux-gnueabi/arm-hjimi-linux-gnueabi/sysroot/lib/libc.so.6
setttyent                                         /home/tool/arm-hjimi-linux-gnueabi/arm-hjimi-linux-gnueabi/sysroot/lib/libc.so.6
setttyent@@GLIBC_2.4                              /home/tool/arm-hjimi-linux-gnueabi/arm-hjimi-linux-gnueabi/sysroot/lib/libc.so.6
setttyent@GLIBC_2.4                               /home/tool/arm-hjimi-linux-gnueabi/arm-hjimi-linux-gnueabi/sysroot/lib/libc.so.6
setuid                                            /home/tool/arm-hjimi-linux-gnueabi/arm-hjimi-linux-gnueabi/sysroot/lib/libc.so.6
setuid@@GLIBC_2.4                                 /home/tool/arm-hjimi-linux-gnueabi/arm-hjimi-linux-gnueabi/sysroot/lib/libc.so.6
setuid@GLIBC_2.4                                  /home/tool/arm-hjimi-linux-gnueabi/arm-hjimi-linux-gnueabi/sysroot/lib/libc.so.6
setup_irq                                         output/drivers/irq/vic_int.o
setutent                                          /home/tool/arm-hjimi-linux-gnueabi/arm-hjimi-linux-gnueabi/sysroot/lib/libc.so.6
setutent@@GLIBC_2.4                               /home/tool/arm-hjimi-linux-gnueabi/arm-hjimi-linux-gnueabi/sysroot/lib/libc.so.6
setutent@GLIBC_2.4                                /home/tool/arm-hjimi-linux-gnueabi/arm-hjimi-linux-gnueabi/sysroot/lib/libc.so.6
setvbuf                                           /home/tool/arm-hjimi-linux-gnueabi/arm-hjimi-linux-gnueabi/sysroot/lib/libc.so.6
setvbuf@@GLIBC_2.4                                /home/tool/arm-hjimi-linux-gnueabi/arm-hjimi-linux-gnueabi/sysroot/lib/libc.so.6
setvbuf@GLIBC_2.4                                 /home/tool/arm-hjimi-linux-gnueabi/arm-hjimi-linux-gnueabi/sysroot/lib/libc.so.6
sgetsgent_r                                       /home/tool/arm-hjimi-linux-gnueabi/arm-hjimi-linux-gnueabi/sysroot/lib/libc.so.6
sgetsgent_r@@GLIBC_2.10                           /home/tool/arm-hjimi-linux-gnueabi/arm-hjimi-linux-gnueabi/sysroot/lib/libc.so.6
sgetsgent_r@GLIBC_2.10                            /home/tool/arm-hjimi-linux-gnueabi/arm-hjimi-linux-gnueabi/sysroot/lib/libc.so.6
sgetspent_r                                       /home/tool/arm-hjimi-linux-gnueabi/arm-hjimi-linux-gnueabi/sysroot/lib/libc.so.6
sgetspent_r@@GLIBC_2.4                            /home/tool/arm-hjimi-linux-gnueabi/arm-hjimi-linux-gnueabi/sysroot/lib/libc.so.6
sgetspent_r@GLIBC_2.4                             /home/tool/arm-hjimi-linux-gnueabi/arm-hjimi-linux-gnueabi/sysroot/lib/libc.so.6
shutdown                                          /home/tool/arm-hjimi-linux-gnueabi/arm-hjimi-linux-gnueabi/sysroot/lib/libc.so.6
shutdown@@GLIBC_2.4                               /home/tool/arm-hjimi-linux-gnueabi/arm-hjimi-linux-gnueabi/sysroot/lib/libc.so.6
shutdown@GLIBC_2.4                                /home/tool/arm-hjimi-linux-gnueabi/arm-hjimi-linux-gnueabi/sysroot/lib/libc.so.6
sigaction                                         /home/tool/arm-hjimi-linux-gnueabi/arm-hjimi-linux-gnueabi/sysroot/lib/libc.so.6
sigaction@@GLIBC_2.4                              /home/tool/arm-hjimi-linux-gnueabi/arm-hjimi-linux-gnueabi/sysroot/lib/libc.so.6
sigaction@GLIBC_2.4                               /home/tool/arm-hjimi-linux-gnueabi/arm-hjimi-linux-gnueabi/sysroot/lib/libc.so.6
sigaltstack                                       /home/tool/arm-hjimi-linux-gnueabi/arm-hjimi-linux-gnueabi/sysroot/lib/libc.so.6
sigaltstack@@GLIBC_2.4                            /home/tool/arm-hjimi-linux-gnueabi/arm-hjimi-linux-gnueabi/sysroot/lib/libc.so.6
sigaltstack@GLIBC_2.4                             /home/tool/arm-hjimi-linux-gnueabi/arm-hjimi-linux-gnueabi/sysroot/lib/libc.so.6
sigblock                                          /home/tool/arm-hjimi-linux-gnueabi/arm-hjimi-linux-gnueabi/sysroot/lib/libc.so.6
sigblock@@GLIBC_2.4                               /home/tool/arm-hjimi-linux-gnueabi/arm-hjimi-linux-gnueabi/sysroot/lib/libc.so.6
sigblock@GLIBC_2.4                                /home/tool/arm-hjimi-linux-gnueabi/arm-hjimi-linux-gnueabi/sysroot/lib/libc.so.6
siglongjmp                                        /home/tool/arm-hjimi-linux-gnueabi/arm-hjimi-linux-gnueabi/sysroot/lib/libc.so.6
siglongjmp@@GLIBC_2.4                             /home/tool/arm-hjimi-linux-gnueabi/arm-hjimi-linux-gnueabi/sysroot/lib/libc.so.6
siglongjmp@GLIBC_2.4                              /home/tool/arm-hjimi-linux-gnueabi/arm-hjimi-linux-gnueabi/sysroot/lib/libc.so.6
signal                                            /home/tool/arm-hjimi-linux-gnueabi/arm-hjimi-linux-gnueabi/sysroot/lib/libc.so.6
signal@@GLIBC_2.4                                 /home/tool/arm-hjimi-linux-gnueabi/arm-hjimi-linux-gnueabi/sysroot/lib/libc.so.6
signal@GLIBC_2.4                                  /home/tool/arm-hjimi-linux-gnueabi/arm-hjimi-linux-gnueabi/sysroot/lib/libc.so.6
sigpause                                          /home/tool/arm-hjimi-linux-gnueabi/arm-hjimi-linux-gnueabi/sysroot/lib/libc.so.6
sigpause@@GLIBC_2.4                               /home/tool/arm-hjimi-linux-gnueabi/arm-hjimi-linux-gnueabi/sysroot/lib/libc.so.6
sigpause@GLIBC_2.4                                /home/tool/arm-hjimi-linux-gnueabi/arm-hjimi-linux-gnueabi/sysroot/lib/libc.so.6
sigprocmask                                       /home/tool/arm-hjimi-linux-gnueabi/arm-hjimi-linux-gnueabi/sysroot/lib/libc.so.6
sigprocmask@@GLIBC_2.4                            /home/tool/arm-hjimi-linux-gnueabi/arm-hjimi-linux-gnueabi/sysroot/lib/libc.so.6
sigprocmask@GLIBC_2.4                             /home/tool/arm-hjimi-linux-gnueabi/arm-hjimi-linux-gnueabi/sysroot/lib/libc.so.6
sigqueue                                          /home/tool/arm-hjimi-linux-gnueabi/arm-hjimi-linux-gnueabi/sysroot/lib/libc.so.6
sigqueue@@GLIBC_2.4                               /home/tool/arm-hjimi-linux-gnueabi/arm-hjimi-linux-gnueabi/sysroot/lib/libc.so.6
sigqueue@GLIBC_2.4                                /home/tool/arm-hjimi-linux-gnueabi/arm-hjimi-linux-gnueabi/sysroot/lib/libc.so.6
sigreturn                                         /home/tool/arm-hjimi-linux-gnueabi/arm-hjimi-linux-gnueabi/sysroot/lib/libc.so.6
sigreturn@@GLIBC_2.4                              /home/tool/arm-hjimi-linux-gnueabi/arm-hjimi-linux-gnueabi/sysroot/lib/libc.so.6
sigreturn@GLIBC_2.4                               /home/tool/arm-hjimi-linux-gnueabi/arm-hjimi-linux-gnueabi/sysroot/lib/libc.so.6
sigsetmask                                        /home/tool/arm-hjimi-linux-gnueabi/arm-hjimi-linux-gnueabi/sysroot/lib/libc.so.6
sigsetmask@@GLIBC_2.4                             /home/tool/arm-hjimi-linux-gnueabi/arm-hjimi-linux-gnueabi/sysroot/lib/libc.so.6
sigsetmask@GLIBC_2.4                              /home/tool/arm-hjimi-linux-gnueabi/arm-hjimi-linux-gnueabi/sysroot/lib/libc.so.6
sigsuspend                                        /home/tool/arm-hjimi-linux-gnueabi/arm-hjimi-linux-gnueabi/sysroot/lib/libc.so.6
sigsuspend@@GLIBC_2.4                             /home/tool/arm-hjimi-linux-gnueabi/arm-hjimi-linux-gnueabi/sysroot/lib/libc.so.6
sigsuspend@GLIBC_2.4                              /home/tool/arm-hjimi-linux-gnueabi/arm-hjimi-linux-gnueabi/sysroot/lib/libc.so.6
sigtimedwait                                      /home/tool/arm-hjimi-linux-gnueabi/arm-hjimi-linux-gnueabi/sysroot/lib/libc.so.6
sigtimedwait@@GLIBC_2.4                           /home/tool/arm-hjimi-linux-gnueabi/arm-hjimi-linux-gnueabi/sysroot/lib/libc.so.6
sigtimedwait@GLIBC_2.4                            /home/tool/arm-hjimi-linux-gnueabi/arm-hjimi-linux-gnueabi/sysroot/lib/libc.so.6
sigwait                                           /home/tool/arm-hjimi-linux-gnueabi/arm-hjimi-linux-gnueabi/sysroot/lib/libc.so.6
sigwait@@GLIBC_2.4                                /home/tool/arm-hjimi-linux-gnueabi/arm-hjimi-linux-gnueabi/sysroot/lib/libc.so.6
sigwait@GLIBC_2.4                                 /home/tool/arm-hjimi-linux-gnueabi/arm-hjimi-linux-gnueabi/sysroot/lib/libc.so.6
sigwaitinfo                                       /home/tool/arm-hjimi-linux-gnueabi/arm-hjimi-linux-gnueabi/sysroot/lib/libc.so.6
sigwaitinfo@@GLIBC_2.4                            /home/tool/arm-hjimi-linux-gnueabi/arm-hjimi-linux-gnueabi/sysroot/lib/libc.so.6
sigwaitinfo@GLIBC_2.4                             /home/tool/arm-hjimi-linux-gnueabi/arm-hjimi-linux-gnueabi/sysroot/lib/libc.so.6
simple_strtoul                                    output/tools/stdlib/string.o
sleep                                             /home/tool/arm-hjimi-linux-gnueabi/arm-hjimi-linux-gnueabi/sysroot/lib/libc.so.6
sleep@@GLIBC_2.4                                  /home/tool/arm-hjimi-linux-gnueabi/arm-hjimi-linux-gnueabi/sysroot/lib/libc.so.6
sleep@GLIBC_2.4                                   /home/tool/arm-hjimi-linux-gnueabi/arm-hjimi-linux-gnueabi/sysroot/lib/libc.so.6
snprintf                                          output/tools/printf/vsnprintf.o
                                                  output/tools/easylogger/src/elog.o
snprintf@@GLIBC_2.4                               /home/tool/arm-hjimi-linux-gnueabi/arm-hjimi-linux-gnueabi/sysroot/lib/libc.so.6
snprintf@GLIBC_2.4                                /home/tool/arm-hjimi-linux-gnueabi/arm-hjimi-linux-gnueabi/sysroot/lib/libc.so.6
socket                                            /home/tool/arm-hjimi-linux-gnueabi/arm-hjimi-linux-gnueabi/sysroot/lib/libc.so.6
socket@@GLIBC_2.4                                 /home/tool/arm-hjimi-linux-gnueabi/arm-hjimi-linux-gnueabi/sysroot/lib/libc.so.6
socket@GLIBC_2.4                                  /home/tool/arm-hjimi-linux-gnueabi/arm-hjimi-linux-gnueabi/sysroot/lib/libc.so.6
socketpair                                        /home/tool/arm-hjimi-linux-gnueabi/arm-hjimi-linux-gnueabi/sysroot/lib/libc.so.6
socketpair@@GLIBC_2.4                             /home/tool/arm-hjimi-linux-gnueabi/arm-hjimi-linux-gnueabi/sysroot/lib/libc.so.6
socketpair@GLIBC_2.4                              /home/tool/arm-hjimi-linux-gnueabi/arm-hjimi-linux-gnueabi/sysroot/lib/libc.so.6
spi_nand_erase_process                            output/drivers/qspi/nand/spi_nand.o
spi_nand_flash_read_oob                           output/drivers/qspi/nand/spi_nand.o
spi_nand_read_data                                output/drivers/qspi/nand/spi_nand.o
spi_nand_read_process                             output/drivers/qspi/nand/spi_nand.o
spi_nand_reset                                    output/drivers/qspi/nand/spi_nand.o
spi_nand_set_feature                              output/drivers/qspi/nand/spi_nand.o
spi_nand_write_data                               output/drivers/qspi/nand/spi_nand.o
spi_nand_write_process                            output/drivers/qspi/nand/spi_nand.o
spi_nand_write_to_cache                           output/drivers/qspi/nand/spi_nand.o
spi_nor_block_erase                               output/drivers/qspi/nor/spi_nor.o
spi_nor_erase_process                             output/drivers/qspi/nor/spi_nor.o
spi_nor_global_unlock                             output/drivers/qspi/nor/spi_nor.o
spi_nor_read_data                                 output/drivers/qspi/nor/spi_nor.o
spi_nor_read_process                              output/drivers/qspi/nor/spi_nor.o
spi_nor_read_sr2                                  output/drivers/qspi/nor/spi_nor.o
spi_nor_reset                                     output/drivers/qspi/nor/spi_nor.o
spi_nor_sector_erase                              output/drivers/qspi/nor/spi_nor.o
spi_nor_set_feature                               output/drivers/qspi/nor/spi_nor.o
spi_nor_write_data                                output/drivers/qspi/nor/spi_nor.o
spi_nor_write_process                             output/drivers/qspi/nor/spi_nor.o
spi_nor_write_s1                                  output/drivers/qspi/nor/spi_nor.o
spi_nor_write_s1_s2                               output/drivers/qspi/nor/spi_nor.o
spi_nor_write_s2                                  output/drivers/qspi/nor/spi_nor.o
spi_nor_write_to_flash                            output/drivers/qspi/nor/spi_nor.o
spi_nor_write_volatile_sr_enable                  output/drivers/qspi/nor/spi_nor.o
sprintf                                           output/tools/printf/printf.o
                                                  output/tools/FreeRTOS_CLI/imi_console.o
                                                  output/drivers/usb/musb/musb_gadget.o
sprintf@@GLIBC_2.4                                /home/tool/arm-hjimi-linux-gnueabi/arm-hjimi-linux-gnueabi/sysroot/lib/libc.so.6
sprintf@GLIBC_2.4                                 /home/tool/arm-hjimi-linux-gnueabi/arm-hjimi-linux-gnueabi/sysroot/lib/libc.so.6
sprofil                                           /home/tool/arm-hjimi-linux-gnueabi/arm-hjimi-linux-gnueabi/sysroot/lib/libc.so.6
sprofil@@GLIBC_2.4                                /home/tool/arm-hjimi-linux-gnueabi/arm-hjimi-linux-gnueabi/sysroot/lib/libc.so.6
sprofil@GLIBC_2.4                                 /home/tool/arm-hjimi-linux-gnueabi/arm-hjimi-linux-gnueabi/sysroot/lib/libc.so.6
srand                                             /home/tool/arm-hjimi-linux-gnueabi/arm-hjimi-linux-gnueabi/sysroot/lib/libc.so.6
srand48_r                                         /home/tool/arm-hjimi-linux-gnueabi/arm-hjimi-linux-gnueabi/sysroot/lib/libc.so.6
srand48_r@@GLIBC_2.4                              /home/tool/arm-hjimi-linux-gnueabi/arm-hjimi-linux-gnueabi/sysroot/lib/libc.so.6
srand48_r@GLIBC_2.4                               /home/tool/arm-hjimi-linux-gnueabi/arm-hjimi-linux-gnueabi/sysroot/lib/libc.so.6
srand@@GLIBC_2.4                                  /home/tool/arm-hjimi-linux-gnueabi/arm-hjimi-linux-gnueabi/sysroot/lib/libc.so.6
srand@GLIBC_2.4                                   /home/tool/arm-hjimi-linux-gnueabi/arm-hjimi-linux-gnueabi/sysroot/lib/libc.so.6
srandom                                           /home/tool/arm-hjimi-linux-gnueabi/arm-hjimi-linux-gnueabi/sysroot/lib/libc.so.6
srandom@@GLIBC_2.4                                /home/tool/arm-hjimi-linux-gnueabi/arm-hjimi-linux-gnueabi/sysroot/lib/libc.so.6
srandom@GLIBC_2.4                                 /home/tool/arm-hjimi-linux-gnueabi/arm-hjimi-linux-gnueabi/sysroot/lib/libc.so.6
srandom_r                                         /home/tool/arm-hjimi-linux-gnueabi/arm-hjimi-linux-gnueabi/sysroot/lib/libc.so.6
srandom_r@@GLIBC_2.4                              /home/tool/arm-hjimi-linux-gnueabi/arm-hjimi-linux-gnueabi/sysroot/lib/libc.so.6
srandom_r@GLIBC_2.4                               /home/tool/arm-hjimi-linux-gnueabi/arm-hjimi-linux-gnueabi/sysroot/lib/libc.so.6
ss_2280_probe                                     output/drivers/trigger/sensor_sync_2280.o
ssignal                                           /home/tool/arm-hjimi-linux-gnueabi/arm-hjimi-linux-gnueabi/sysroot/lib/libc.so.6
ssignal@@GLIBC_2.4                                /home/tool/arm-hjimi-linux-gnueabi/arm-hjimi-linux-gnueabi/sysroot/lib/libc.so.6
ssignal@GLIBC_2.4                                 /home/tool/arm-hjimi-linux-gnueabi/arm-hjimi-linux-gnueabi/sysroot/lib/libc.so.6
statfs                                            /home/tool/arm-hjimi-linux-gnueabi/arm-hjimi-linux-gnueabi/sysroot/lib/libc.so.6
statfs64                                          /home/tool/arm-hjimi-linux-gnueabi/arm-hjimi-linux-gnueabi/sysroot/lib/libc.so.6
statfs64@@GLIBC_2.4                               /home/tool/arm-hjimi-linux-gnueabi/arm-hjimi-linux-gnueabi/sysroot/lib/libc.so.6
statfs64@GLIBC_2.4                                /home/tool/arm-hjimi-linux-gnueabi/arm-hjimi-linux-gnueabi/sysroot/lib/libc.so.6
statfs@@GLIBC_2.4                                 /home/tool/arm-hjimi-linux-gnueabi/arm-hjimi-linux-gnueabi/sysroot/lib/libc.so.6
statfs@GLIBC_2.4                                  /home/tool/arm-hjimi-linux-gnueabi/arm-hjimi-linux-gnueabi/sysroot/lib/libc.so.6
statvfs                                           /home/tool/arm-hjimi-linux-gnueabi/arm-hjimi-linux-gnueabi/sysroot/lib/libc.so.6
statvfs64                                         /home/tool/arm-hjimi-linux-gnueabi/arm-hjimi-linux-gnueabi/sysroot/lib/libc.so.6
statvfs64@@GLIBC_2.4                              /home/tool/arm-hjimi-linux-gnueabi/arm-hjimi-linux-gnueabi/sysroot/lib/libc.so.6
statvfs64@GLIBC_2.4                               /home/tool/arm-hjimi-linux-gnueabi/arm-hjimi-linux-gnueabi/sysroot/lib/libc.so.6
statvfs@@GLIBC_2.4                                /home/tool/arm-hjimi-linux-gnueabi/arm-hjimi-linux-gnueabi/sysroot/lib/libc.so.6
statvfs@GLIBC_2.4                                 /home/tool/arm-hjimi-linux-gnueabi/arm-hjimi-linux-gnueabi/sysroot/lib/libc.so.6
step@GLIBC_2.4                                    /home/tool/arm-hjimi-linux-gnueabi/arm-hjimi-linux-gnueabi/sysroot/lib/libc.so.6
stnum                                             ./drivers/ddr/libddr_64.a(dcu.o)
stpncpy                                           /home/tool/arm-hjimi-linux-gnueabi/arm-hjimi-linux-gnueabi/sysroot/lib/libc.so.6
stpncpy@@GLIBC_2.4                                /home/tool/arm-hjimi-linux-gnueabi/arm-hjimi-linux-gnueabi/sysroot/lib/libc.so.6
stpncpy@GLIBC_2.4                                 /home/tool/arm-hjimi-linux-gnueabi/arm-hjimi-linux-gnueabi/sysroot/lib/libc.so.6
strcasecmp                                        /home/tool/arm-hjimi-linux-gnueabi/arm-hjimi-linux-gnueabi/sysroot/lib/libc.so.6
strcasecmp@@GLIBC_2.4                             /home/tool/arm-hjimi-linux-gnueabi/arm-hjimi-linux-gnueabi/sysroot/lib/libc.so.6
strcasecmp@GLIBC_2.4                              /home/tool/arm-hjimi-linux-gnueabi/arm-hjimi-linux-gnueabi/sysroot/lib/libc.so.6
strcasecmp_l                                      /home/tool/arm-hjimi-linux-gnueabi/arm-hjimi-linux-gnueabi/sysroot/lib/libc.so.6
strcasecmp_l@@GLIBC_2.4                           /home/tool/arm-hjimi-linux-gnueabi/arm-hjimi-linux-gnueabi/sysroot/lib/libc.so.6
strcasecmp_l@GLIBC_2.4                            /home/tool/arm-hjimi-linux-gnueabi/arm-hjimi-linux-gnueabi/sysroot/lib/libc.so.6
strcasestr                                        /home/tool/arm-hjimi-linux-gnueabi/arm-hjimi-linux-gnueabi/sysroot/lib/libc.so.6
strcasestr@@GLIBC_2.4                             /home/tool/arm-hjimi-linux-gnueabi/arm-hjimi-linux-gnueabi/sysroot/lib/libc.so.6
strcasestr@GLIBC_2.4                              /home/tool/arm-hjimi-linux-gnueabi/arm-hjimi-linux-gnueabi/sysroot/lib/libc.so.6
strcat                                            output/tools/stdlib/string.o
strcat@@GLIBC_2.4                                 /home/tool/arm-hjimi-linux-gnueabi/arm-hjimi-linux-gnueabi/sysroot/lib/libc.so.6
strcat@GLIBC_2.4                                  /home/tool/arm-hjimi-linux-gnueabi/arm-hjimi-linux-gnueabi/sysroot/lib/libc.so.6
strchr                                            output/tools/stdlib/string.o
strchr@@GLIBC_2.4                                 /home/tool/arm-hjimi-linux-gnueabi/arm-hjimi-linux-gnueabi/sysroot/lib/libc.so.6
strchr@GLIBC_2.4                                  /home/tool/arm-hjimi-linux-gnueabi/arm-hjimi-linux-gnueabi/sysroot/lib/libc.so.6
strchrnul                                         /home/tool/arm-hjimi-linux-gnueabi/arm-hjimi-linux-gnueabi/sysroot/lib/libc.so.6
strchrnul@@GLIBC_2.4                              /home/tool/arm-hjimi-linux-gnueabi/arm-hjimi-linux-gnueabi/sysroot/lib/libc.so.6
strchrnul@GLIBC_2.4                               /home/tool/arm-hjimi-linux-gnueabi/arm-hjimi-linux-gnueabi/sysroot/lib/libc.so.6
strcmp                                            output/tools/stdlib/string.o
                                                  output/drivers/usb/gadget/core.o
                                                  output/drivers/trigger/trigger.o
                                                  output/drivers/reset/reset.o
                                                  output/drivers/irrx/irrx.o
                                                  output/drivers/dpu_2280/dpu.o
                                                  output/drivers/dma/dmaengine.o
                                                  output/drivers/base/imi_dev.o
strcmp@@GLIBC_2.4                                 /home/tool/arm-hjimi-linux-gnueabi/arm-hjimi-linux-gnueabi/sysroot/lib/libc.so.6
strcmp@GLIBC_2.4                                  /home/tool/arm-hjimi-linux-gnueabi/arm-hjimi-linux-gnueabi/sysroot/lib/libc.so.6
strcoll_l                                         /home/tool/arm-hjimi-linux-gnueabi/arm-hjimi-linux-gnueabi/sysroot/lib/libc.so.6
strcoll_l@@GLIBC_2.4                              /home/tool/arm-hjimi-linux-gnueabi/arm-hjimi-linux-gnueabi/sysroot/lib/libc.so.6
strcoll_l@GLIBC_2.4                               /home/tool/arm-hjimi-linux-gnueabi/arm-hjimi-linux-gnueabi/sysroot/lib/libc.so.6
strcpy                                            output/tools/stdlib/string.o
                                                  output/tools/easylogger/port/elog_port.o
                                                  output/rtos/tasks.o
strcpy@@GLIBC_2.4                                 /home/tool/arm-hjimi-linux-gnueabi/arm-hjimi-linux-gnueabi/sysroot/lib/libc.so.6
strcpy@GLIBC_2.4                                  /home/tool/arm-hjimi-linux-gnueabi/arm-hjimi-linux-gnueabi/sysroot/lib/libc.so.6
strcspn                                           output/tools/stdlib/string.o
strcspn@@GLIBC_2.4                                /home/tool/arm-hjimi-linux-gnueabi/arm-hjimi-linux-gnueabi/sysroot/lib/libc.so.6
strcspn@GLIBC_2.4                                 /home/tool/arm-hjimi-linux-gnueabi/arm-hjimi-linux-gnueabi/sysroot/lib/libc.so.6
strdup                                            /home/tool/arm-hjimi-linux-gnueabi/arm-hjimi-linux-gnueabi/sysroot/lib/libc.so.6
strdup@@GLIBC_2.4                                 /home/tool/arm-hjimi-linux-gnueabi/arm-hjimi-linux-gnueabi/sysroot/lib/libc.so.6
strdup@GLIBC_2.4                                  /home/tool/arm-hjimi-linux-gnueabi/arm-hjimi-linux-gnueabi/sysroot/lib/libc.so.6
strerror_r                                        /home/tool/arm-hjimi-linux-gnueabi/arm-hjimi-linux-gnueabi/sysroot/lib/libc.so.6
strerror_r@@GLIBC_2.4                             /home/tool/arm-hjimi-linux-gnueabi/arm-hjimi-linux-gnueabi/sysroot/lib/libc.so.6
strerror_r@GLIBC_2.4                              /home/tool/arm-hjimi-linux-gnueabi/arm-hjimi-linux-gnueabi/sysroot/lib/libc.so.6
strfmon_l                                         /home/tool/arm-hjimi-linux-gnueabi/arm-hjimi-linux-gnueabi/sysroot/lib/libc.so.6
strfmon_l@@GLIBC_2.4                              /home/tool/arm-hjimi-linux-gnueabi/arm-hjimi-linux-gnueabi/sysroot/lib/libc.so.6
strfmon_l@GLIBC_2.4                               /home/tool/arm-hjimi-linux-gnueabi/arm-hjimi-linux-gnueabi/sysroot/lib/libc.so.6
strftime_l                                        /home/tool/arm-hjimi-linux-gnueabi/arm-hjimi-linux-gnueabi/sysroot/lib/libc.so.6
strftime_l@@GLIBC_2.4                             /home/tool/arm-hjimi-linux-gnueabi/arm-hjimi-linux-gnueabi/sysroot/lib/libc.so.6
strftime_l@GLIBC_2.4                              /home/tool/arm-hjimi-linux-gnueabi/arm-hjimi-linux-gnueabi/sysroot/lib/libc.so.6
strlcpy                                           output/tools/stdlib/string.o
strlen                                            output/tools/stdlib/string.o
                                                  output/tools/easylogger/src/elog.o
                                                  output/tools/FreeRTOS_CLI/FreeRTOS_CLI.o
                                                  output/drivers/usb/gadget/usbstring.o
                                                  output/drivers/usb/gadget/composite.o
                                                  output/rtos/tasks.o
strlen@@GLIBC_2.4                                 /home/tool/arm-hjimi-linux-gnueabi/arm-hjimi-linux-gnueabi/sysroot/lib/libc.so.6
strlen@GLIBC_2.4                                  /home/tool/arm-hjimi-linux-gnueabi/arm-hjimi-linux-gnueabi/sysroot/lib/libc.so.6
strlog                                            ./drivers/ddr/libddr_64.a(dcu.o)
strncasecmp                                       /home/tool/arm-hjimi-linux-gnueabi/arm-hjimi-linux-gnueabi/sysroot/lib/libc.so.6
strncasecmp@@GLIBC_2.4                            /home/tool/arm-hjimi-linux-gnueabi/arm-hjimi-linux-gnueabi/sysroot/lib/libc.so.6
strncasecmp@GLIBC_2.4                             /home/tool/arm-hjimi-linux-gnueabi/arm-hjimi-linux-gnueabi/sysroot/lib/libc.so.6
strncasecmp_l                                     /home/tool/arm-hjimi-linux-gnueabi/arm-hjimi-linux-gnueabi/sysroot/lib/libc.so.6
strncasecmp_l@@GLIBC_2.4                          /home/tool/arm-hjimi-linux-gnueabi/arm-hjimi-linux-gnueabi/sysroot/lib/libc.so.6
strncasecmp_l@GLIBC_2.4                           /home/tool/arm-hjimi-linux-gnueabi/arm-hjimi-linux-gnueabi/sysroot/lib/libc.so.6
strncat                                           output/tools/stdlib/string.o
strncat@@GLIBC_2.4                                /home/tool/arm-hjimi-linux-gnueabi/arm-hjimi-linux-gnueabi/sysroot/lib/libc.so.6
strncat@GLIBC_2.4                                 /home/tool/arm-hjimi-linux-gnueabi/arm-hjimi-linux-gnueabi/sysroot/lib/libc.so.6
strncmp                                           output/tools/stdlib/string.o
                                                  output/tools/easylogger/src/elog.o
                                                  output/tools/easylogger/src/elog_utils.o
                                                  output/tools/FreeRTOS_CLI/FreeRTOS_CLI.o
strncmp@@GLIBC_2.4                                /home/tool/arm-hjimi-linux-gnueabi/arm-hjimi-linux-gnueabi/sysroot/lib/libc.so.6
strncmp@GLIBC_2.4                                 /home/tool/arm-hjimi-linux-gnueabi/arm-hjimi-linux-gnueabi/sysroot/lib/libc.so.6
strncpy                                           output/tools/stdlib/string.o
                                                  output/tools/easylogger/src/elog.o
                                                  output/tools/FreeRTOS_CLI/FreeRTOS_CLI.o
                                                  output/drivers/usb/gadget/legacy/g_imi_usb.o
                                                  output/drivers/i2c/i2c_core.o
strncpy@@GLIBC_2.4                                /home/tool/arm-hjimi-linux-gnueabi/arm-hjimi-linux-gnueabi/sysroot/lib/libc.so.6
strncpy@GLIBC_2.4                                 /home/tool/arm-hjimi-linux-gnueabi/arm-hjimi-linux-gnueabi/sysroot/lib/libc.so.6
strndup                                           /home/tool/arm-hjimi-linux-gnueabi/arm-hjimi-linux-gnueabi/sysroot/lib/libc.so.6
strndup@@GLIBC_2.4                                /home/tool/arm-hjimi-linux-gnueabi/arm-hjimi-linux-gnueabi/sysroot/lib/libc.so.6
strndup@GLIBC_2.4                                 /home/tool/arm-hjimi-linux-gnueabi/arm-hjimi-linux-gnueabi/sysroot/lib/libc.so.6
strnlen                                           output/tools/stdlib/string.o
                                                  output/tools/printf/vsnprintf.o
strnlen@@GLIBC_2.4                                /home/tool/arm-hjimi-linux-gnueabi/arm-hjimi-linux-gnueabi/sysroot/lib/libc.so.6
strnlen@GLIBC_2.4                                 /home/tool/arm-hjimi-linux-gnueabi/arm-hjimi-linux-gnueabi/sysroot/lib/libc.so.6
strpbrk                                           output/tools/stdlib/string.o
strpbrk@@GLIBC_2.4                                /home/tool/arm-hjimi-linux-gnueabi/arm-hjimi-linux-gnueabi/sysroot/lib/libc.so.6
strpbrk@GLIBC_2.4                                 /home/tool/arm-hjimi-linux-gnueabi/arm-hjimi-linux-gnueabi/sysroot/lib/libc.so.6
strptime_l                                        /home/tool/arm-hjimi-linux-gnueabi/arm-hjimi-linux-gnueabi/sysroot/lib/libc.so.6
strptime_l@@GLIBC_2.4                             /home/tool/arm-hjimi-linux-gnueabi/arm-hjimi-linux-gnueabi/sysroot/lib/libc.so.6
strptime_l@GLIBC_2.4                              /home/tool/arm-hjimi-linux-gnueabi/arm-hjimi-linux-gnueabi/sysroot/lib/libc.so.6
strrchr                                           output/tools/stdlib/string.o
strrchr@@GLIBC_2.4                                /home/tool/arm-hjimi-linux-gnueabi/arm-hjimi-linux-gnueabi/sysroot/lib/libc.so.6
strrchr@GLIBC_2.4                                 /home/tool/arm-hjimi-linux-gnueabi/arm-hjimi-linux-gnueabi/sysroot/lib/libc.so.6
strsep                                            /home/tool/arm-hjimi-linux-gnueabi/arm-hjimi-linux-gnueabi/sysroot/lib/libc.so.6
strsep@@GLIBC_2.4                                 /home/tool/arm-hjimi-linux-gnueabi/arm-hjimi-linux-gnueabi/sysroot/lib/libc.so.6
strsep@GLIBC_2.4                                  /home/tool/arm-hjimi-linux-gnueabi/arm-hjimi-linux-gnueabi/sysroot/lib/libc.so.6
strspn                                            output/tools/stdlib/string.o
strspn@@GLIBC_2.4                                 /home/tool/arm-hjimi-linux-gnueabi/arm-hjimi-linux-gnueabi/sysroot/lib/libc.so.6
strspn@GLIBC_2.4                                  /home/tool/arm-hjimi-linux-gnueabi/arm-hjimi-linux-gnueabi/sysroot/lib/libc.so.6
strstr                                            output/tools/stdlib/string.o
                                                  output/tools/easylogger/src/elog.o
strstr@@GLIBC_2.4                                 /home/tool/arm-hjimi-linux-gnueabi/arm-hjimi-linux-gnueabi/sysroot/lib/libc.so.6
strstr@GLIBC_2.4                                  /home/tool/arm-hjimi-linux-gnueabi/arm-hjimi-linux-gnueabi/sysroot/lib/libc.so.6
strtod_l                                          /home/tool/arm-hjimi-linux-gnueabi/arm-hjimi-linux-gnueabi/sysroot/lib/libc.so.6
strtod_l@@GLIBC_2.4                               /home/tool/arm-hjimi-linux-gnueabi/arm-hjimi-linux-gnueabi/sysroot/lib/libc.so.6
strtod_l@GLIBC_2.4                                /home/tool/arm-hjimi-linux-gnueabi/arm-hjimi-linux-gnueabi/sysroot/lib/libc.so.6
strtof_l                                          /home/tool/arm-hjimi-linux-gnueabi/arm-hjimi-linux-gnueabi/sysroot/lib/libc.so.6
strtof_l@@GLIBC_2.4                               /home/tool/arm-hjimi-linux-gnueabi/arm-hjimi-linux-gnueabi/sysroot/lib/libc.so.6
strtof_l@GLIBC_2.4                                /home/tool/arm-hjimi-linux-gnueabi/arm-hjimi-linux-gnueabi/sysroot/lib/libc.so.6
strtok                                            output/tools/stdlib/string.o
strtok@@GLIBC_2.4                                 /home/tool/arm-hjimi-linux-gnueabi/arm-hjimi-linux-gnueabi/sysroot/lib/libc.so.6
strtok@GLIBC_2.4                                  /home/tool/arm-hjimi-linux-gnueabi/arm-hjimi-linux-gnueabi/sysroot/lib/libc.so.6
strtok_r                                          output/tools/stdlib/string.o
strtok_r@@GLIBC_2.4                               /home/tool/arm-hjimi-linux-gnueabi/arm-hjimi-linux-gnueabi/sysroot/lib/libc.so.6
strtok_r@GLIBC_2.4                                /home/tool/arm-hjimi-linux-gnueabi/arm-hjimi-linux-gnueabi/sysroot/lib/libc.so.6
strtol                                            output/tools/stdlib/string.o
strtol@@GLIBC_2.4                                 /home/tool/arm-hjimi-linux-gnueabi/arm-hjimi-linux-gnueabi/sysroot/lib/libc.so.6
strtol@GLIBC_2.4                                  /home/tool/arm-hjimi-linux-gnueabi/arm-hjimi-linux-gnueabi/sysroot/lib/libc.so.6
strtol_l                                          /home/tool/arm-hjimi-linux-gnueabi/arm-hjimi-linux-gnueabi/sysroot/lib/libc.so.6
strtol_l@@GLIBC_2.4                               /home/tool/arm-hjimi-linux-gnueabi/arm-hjimi-linux-gnueabi/sysroot/lib/libc.so.6
strtol_l@GLIBC_2.4                                /home/tool/arm-hjimi-linux-gnueabi/arm-hjimi-linux-gnueabi/sysroot/lib/libc.so.6
strtold_l                                         /home/tool/arm-hjimi-linux-gnueabi/arm-hjimi-linux-gnueabi/sysroot/lib/libc.so.6
strtold_l@@GLIBC_2.4                              /home/tool/arm-hjimi-linux-gnueabi/arm-hjimi-linux-gnueabi/sysroot/lib/libc.so.6
strtold_l@GLIBC_2.4                               /home/tool/arm-hjimi-linux-gnueabi/arm-hjimi-linux-gnueabi/sysroot/lib/libc.so.6
strtoll                                           /home/tool/arm-hjimi-linux-gnueabi/arm-hjimi-linux-gnueabi/sysroot/lib/libc.so.6
strtoll@@GLIBC_2.4                                /home/tool/arm-hjimi-linux-gnueabi/arm-hjimi-linux-gnueabi/sysroot/lib/libc.so.6
strtoll@GLIBC_2.4                                 /home/tool/arm-hjimi-linux-gnueabi/arm-hjimi-linux-gnueabi/sysroot/lib/libc.so.6
strtoll_l                                         /home/tool/arm-hjimi-linux-gnueabi/arm-hjimi-linux-gnueabi/sysroot/lib/libc.so.6
strtoll_l@@GLIBC_2.4                              /home/tool/arm-hjimi-linux-gnueabi/arm-hjimi-linux-gnueabi/sysroot/lib/libc.so.6
strtoll_l@GLIBC_2.4                               /home/tool/arm-hjimi-linux-gnueabi/arm-hjimi-linux-gnueabi/sysroot/lib/libc.so.6
strtoq                                            /home/tool/arm-hjimi-linux-gnueabi/arm-hjimi-linux-gnueabi/sysroot/lib/libc.so.6
strtoq@@GLIBC_2.4                                 /home/tool/arm-hjimi-linux-gnueabi/arm-hjimi-linux-gnueabi/sysroot/lib/libc.so.6
strtoq@GLIBC_2.4                                  /home/tool/arm-hjimi-linux-gnueabi/arm-hjimi-linux-gnueabi/sysroot/lib/libc.so.6
strtoul                                           /home/tool/arm-hjimi-linux-gnueabi/arm-hjimi-linux-gnueabi/sysroot/lib/libc.so.6
                                                  output/tools/FreeRTOS_CLI/imi_console.o
strtoul@@GLIBC_2.4                                /home/tool/arm-hjimi-linux-gnueabi/arm-hjimi-linux-gnueabi/sysroot/lib/libc.so.6
strtoul@GLIBC_2.4                                 /home/tool/arm-hjimi-linux-gnueabi/arm-hjimi-linux-gnueabi/sysroot/lib/libc.so.6
strtoul_l                                         /home/tool/arm-hjimi-linux-gnueabi/arm-hjimi-linux-gnueabi/sysroot/lib/libc.so.6
strtoul_l@@GLIBC_2.4                              /home/tool/arm-hjimi-linux-gnueabi/arm-hjimi-linux-gnueabi/sysroot/lib/libc.so.6
strtoul_l@GLIBC_2.4                               /home/tool/arm-hjimi-linux-gnueabi/arm-hjimi-linux-gnueabi/sysroot/lib/libc.so.6
strtoull                                          /home/tool/arm-hjimi-linux-gnueabi/arm-hjimi-linux-gnueabi/sysroot/lib/libc.so.6
strtoull@@GLIBC_2.4                               /home/tool/arm-hjimi-linux-gnueabi/arm-hjimi-linux-gnueabi/sysroot/lib/libc.so.6
strtoull@GLIBC_2.4                                /home/tool/arm-hjimi-linux-gnueabi/arm-hjimi-linux-gnueabi/sysroot/lib/libc.so.6
strtoull_l                                        /home/tool/arm-hjimi-linux-gnueabi/arm-hjimi-linux-gnueabi/sysroot/lib/libc.so.6
strtoull_l@@GLIBC_2.4                             /home/tool/arm-hjimi-linux-gnueabi/arm-hjimi-linux-gnueabi/sysroot/lib/libc.so.6
strtoull_l@GLIBC_2.4                              /home/tool/arm-hjimi-linux-gnueabi/arm-hjimi-linux-gnueabi/sysroot/lib/libc.so.6
strtouq                                           /home/tool/arm-hjimi-linux-gnueabi/arm-hjimi-linux-gnueabi/sysroot/lib/libc.so.6
strtouq@@GLIBC_2.4                                /home/tool/arm-hjimi-linux-gnueabi/arm-hjimi-linux-gnueabi/sysroot/lib/libc.so.6
strtouq@GLIBC_2.4                                 /home/tool/arm-hjimi-linux-gnueabi/arm-hjimi-linux-gnueabi/sysroot/lib/libc.so.6
strverscmp                                        /home/tool/arm-hjimi-linux-gnueabi/arm-hjimi-linux-gnueabi/sysroot/lib/libc.so.6
strverscmp@@GLIBC_2.4                             /home/tool/arm-hjimi-linux-gnueabi/arm-hjimi-linux-gnueabi/sysroot/lib/libc.so.6
strverscmp@GLIBC_2.4                              /home/tool/arm-hjimi-linux-gnueabi/arm-hjimi-linux-gnueabi/sysroot/lib/libc.so.6
strxfrm_l                                         /home/tool/arm-hjimi-linux-gnueabi/arm-hjimi-linux-gnueabi/sysroot/lib/libc.so.6
strxfrm_l@@GLIBC_2.4                              /home/tool/arm-hjimi-linux-gnueabi/arm-hjimi-linux-gnueabi/sysroot/lib/libc.so.6
strxfrm_l@GLIBC_2.4                               /home/tool/arm-hjimi-linux-gnueabi/arm-hjimi-linux-gnueabi/sysroot/lib/libc.so.6
sub_system_deinit                                 output/app/imi_app/subsystem/vendor_sub_system.o
                                                  output/app/imi_app/vendor/vendor_device.o
sub_system_handle_payment                         output/app/imi_app/subsystem/vendor_sub_system.o
sub_system_handshake                              output/app/imi_app/subsystem/vendor_sub_system.o
sub_system_init                                   output/app/imi_app/subsystem/vendor_sub_system.o
                                                  output/app/imi_app/vendor/vendor_device.o
sub_system_process_events                         output/app/imi_app/subsystem/vendor_sub_system.o
                                                  output/app/imi_app/vendor/vendor_misc.o
                                                  output/app/imi_app/vendor/vendor_device.o
sub_system_register_callback                      output/app/imi_app/subsystem/vendor_sub_system.o
sub_system_stream_ctl                             output/app/imi_app/subsystem/vendor_sub_system.o
                                                  output/app/imi_app/vendor/vendor_device.o
swapoff                                           /home/tool/arm-hjimi-linux-gnueabi/arm-hjimi-linux-gnueabi/sysroot/lib/libc.so.6
swapoff@@GLIBC_2.4                                /home/tool/arm-hjimi-linux-gnueabi/arm-hjimi-linux-gnueabi/sysroot/lib/libc.so.6
swapoff@GLIBC_2.4                                 /home/tool/arm-hjimi-linux-gnueabi/arm-hjimi-linux-gnueabi/sysroot/lib/libc.so.6
swapon                                            /home/tool/arm-hjimi-linux-gnueabi/arm-hjimi-linux-gnueabi/sysroot/lib/libc.so.6
swapon@@GLIBC_2.4                                 /home/tool/arm-hjimi-linux-gnueabi/arm-hjimi-linux-gnueabi/sysroot/lib/libc.so.6
swapon@GLIBC_2.4                                  /home/tool/arm-hjimi-linux-gnueabi/arm-hjimi-linux-gnueabi/sysroot/lib/libc.so.6
symlink                                           /home/tool/arm-hjimi-linux-gnueabi/arm-hjimi-linux-gnueabi/sysroot/lib/libc.so.6
symlink@@GLIBC_2.4                                /home/tool/arm-hjimi-linux-gnueabi/arm-hjimi-linux-gnueabi/sysroot/lib/libc.so.6
symlink@GLIBC_2.4                                 /home/tool/arm-hjimi-linux-gnueabi/arm-hjimi-linux-gnueabi/sysroot/lib/libc.so.6
sysconf                                           /home/tool/arm-hjimi-linux-gnueabi/arm-hjimi-linux-gnueabi/sysroot/lib/libc.so.6
sysconf@@GLIBC_2.4                                /home/tool/arm-hjimi-linux-gnueabi/arm-hjimi-linux-gnueabi/sysroot/lib/libc.so.6
sysconf@GLIBC_2.4                                 /home/tool/arm-hjimi-linux-gnueabi/arm-hjimi-linux-gnueabi/sysroot/lib/libc.so.6
sysctl                                            /home/tool/arm-hjimi-linux-gnueabi/arm-hjimi-linux-gnueabi/sysroot/lib/libc.so.6
sysctl@@GLIBC_2.4                                 /home/tool/arm-hjimi-linux-gnueabi/arm-hjimi-linux-gnueabi/sysroot/lib/libc.so.6
sysctl@GLIBC_2.4                                  /home/tool/arm-hjimi-linux-gnueabi/arm-hjimi-linux-gnueabi/sysroot/lib/libc.so.6
sysinfo                                           /home/tool/arm-hjimi-linux-gnueabi/arm-hjimi-linux-gnueabi/sysroot/lib/libc.so.6
sysinfo@@GLIBC_2.4                                /home/tool/arm-hjimi-linux-gnueabi/arm-hjimi-linux-gnueabi/sysroot/lib/libc.so.6
sysinfo@GLIBC_2.4                                 /home/tool/arm-hjimi-linux-gnueabi/arm-hjimi-linux-gnueabi/sysroot/lib/libc.so.6
system                                            /home/tool/arm-hjimi-linux-gnueabi/arm-hjimi-linux-gnueabi/sysroot/lib/libc.so.6
system@@GLIBC_2.4                                 /home/tool/arm-hjimi-linux-gnueabi/arm-hjimi-linux-gnueabi/sysroot/lib/libc.so.6
system@GLIBC_2.4                                  /home/tool/arm-hjimi-linux-gnueabi/arm-hjimi-linux-gnueabi/sysroot/lib/libc.so.6
sysv_signal                                       /home/tool/arm-hjimi-linux-gnueabi/arm-hjimi-linux-gnueabi/sysroot/lib/libc.so.6
sysv_signal@@GLIBC_2.4                            /home/tool/arm-hjimi-linux-gnueabi/arm-hjimi-linux-gnueabi/sysroot/lib/libc.so.6
sysv_signal@GLIBC_2.4                             /home/tool/arm-hjimi-linux-gnueabi/arm-hjimi-linux-gnueabi/sysroot/lib/libc.so.6
tCCD                                              ./drivers/ddr/libddr_64.a(dcu.o)
tCKE                                              ./drivers/ddr/libddr_64.a(dcu.o)
tCKSRX                                            ./drivers/ddr/libddr_64.a(dcu.o)
tDLLK                                             ./drivers/ddr/libddr_64.a(dcu.o)
tMOD                                              ./drivers/ddr/libddr_64.a(dcu.o)
tMRD                                              ./drivers/ddr/libddr_64.a(dcu.o)
tRASmin                                           ./drivers/ddr/libddr_64.a(dcu.o)
tRC                                               ./drivers/ddr/libddr_64.a(dcu.o)
tRCD                                              ./drivers/ddr/libddr_64.a(dcu.o)
tREFI                                             ./drivers/ddr/libddr_64.a(dcu.o)
tRFC                                              ./drivers/ddr/libddr_64.a(dcu.o)
tRFCmin                                           ./drivers/ddr/libddr_64.a(dcu.o)
tRP                                               ./drivers/ddr/libddr_64.a(dcu.o)
tRRD                                              ./drivers/ddr/libddr_64.a(dcu.o)
tRTP                                              ./drivers/ddr/libddr_64.a(dcu.o)
tWR                                               ./drivers/ddr/libddr_64.a(dcu.o)
tXPDLL                                            ./drivers/ddr/libddr_64.a(dcu.o)
tXPR                                              ./drivers/ddr/libddr_64.a(dcu.o)
tXS                                               ./drivers/ddr/libddr_64.a(dcu.o)
tXSDLL                                            ./drivers/ddr/libddr_64.a(dcu.o)
tZQCS                                             ./drivers/ddr/libddr_64.a(dcu.o)
tZQoper                                           ./drivers/ddr/libddr_64.a(dcu.o)
task_init_table                                   output/app/dpu/dputask.o
tcdrain                                           /home/tool/arm-hjimi-linux-gnueabi/arm-hjimi-linux-gnueabi/sysroot/lib/libc.so.6
tcdrain@@GLIBC_2.4                                /home/tool/arm-hjimi-linux-gnueabi/arm-hjimi-linux-gnueabi/sysroot/lib/libc.so.6
tcdrain@GLIBC_2.4                                 /home/tool/arm-hjimi-linux-gnueabi/arm-hjimi-linux-gnueabi/sysroot/lib/libc.so.6
tcgetattr                                         /home/tool/arm-hjimi-linux-gnueabi/arm-hjimi-linux-gnueabi/sysroot/lib/libc.so.6
tcgetattr@@GLIBC_2.4                              /home/tool/arm-hjimi-linux-gnueabi/arm-hjimi-linux-gnueabi/sysroot/lib/libc.so.6
tcgetattr@GLIBC_2.4                               /home/tool/arm-hjimi-linux-gnueabi/arm-hjimi-linux-gnueabi/sysroot/lib/libc.so.6
tdelete                                           /home/tool/arm-hjimi-linux-gnueabi/arm-hjimi-linux-gnueabi/sysroot/lib/libc.so.6
tdelete@@GLIBC_2.4                                /home/tool/arm-hjimi-linux-gnueabi/arm-hjimi-linux-gnueabi/sysroot/lib/libc.so.6
tdelete@GLIBC_2.4                                 /home/tool/arm-hjimi-linux-gnueabi/arm-hjimi-linux-gnueabi/sysroot/lib/libc.so.6
tdestroy                                          /home/tool/arm-hjimi-linux-gnueabi/arm-hjimi-linux-gnueabi/sysroot/lib/libc.so.6
tdestroy@@GLIBC_2.4                               /home/tool/arm-hjimi-linux-gnueabi/arm-hjimi-linux-gnueabi/sysroot/lib/libc.so.6
tdestroy@GLIBC_2.4                                /home/tool/arm-hjimi-linux-gnueabi/arm-hjimi-linux-gnueabi/sysroot/lib/libc.so.6
test_elog                                         output/tools/easylogger/port/elog_init.o
test_nand_byte                                    output/drivers/qspi/nand_test.o
test_nand_data                                    output/drivers/qspi/nand_test.o
test_nor_byte                                     output/drivers/qspi/nor_test.o
test_nor_data                                     output/drivers/qspi/nor_test.o
textdomain                                        /home/tool/arm-hjimi-linux-gnueabi/arm-hjimi-linux-gnueabi/sysroot/lib/libc.so.6
textdomain@@GLIBC_2.4                             /home/tool/arm-hjimi-linux-gnueabi/arm-hjimi-linux-gnueabi/sysroot/lib/libc.so.6
textdomain@GLIBC_2.4                              /home/tool/arm-hjimi-linux-gnueabi/arm-hjimi-linux-gnueabi/sysroot/lib/libc.so.6
tfind                                             /home/tool/arm-hjimi-linux-gnueabi/arm-hjimi-linux-gnueabi/sysroot/lib/libc.so.6
tfind@@GLIBC_2.4                                  /home/tool/arm-hjimi-linux-gnueabi/arm-hjimi-linux-gnueabi/sysroot/lib/libc.so.6
tfind@GLIBC_2.4                                   /home/tool/arm-hjimi-linux-gnueabi/arm-hjimi-linux-gnueabi/sysroot/lib/libc.so.6
timelocal                                         /home/tool/arm-hjimi-linux-gnueabi/arm-hjimi-linux-gnueabi/sysroot/lib/libc.so.6
timelocal@@GLIBC_2.4                              /home/tool/arm-hjimi-linux-gnueabi/arm-hjimi-linux-gnueabi/sysroot/lib/libc.so.6
timelocal@GLIBC_2.4                               /home/tool/arm-hjimi-linux-gnueabi/arm-hjimi-linux-gnueabi/sysroot/lib/libc.so.6
timer_2280_get_timer32_val                        output/drivers/timers/timer_imi2280.o
timer_2280_get_timer64_val                        output/drivers/timers/timer_imi2280.o
timer_init                                        output/drivers/timers/timer_imi2280.o
                                                  output/rtos/portable/GCC/port.o
times                                             /home/tool/arm-hjimi-linux-gnueabi/arm-hjimi-linux-gnueabi/sysroot/lib/libc.so.6
times@@GLIBC_2.4                                  /home/tool/arm-hjimi-linux-gnueabi/arm-hjimi-linux-gnueabi/sysroot/lib/libc.so.6
times@GLIBC_2.4                                   /home/tool/arm-hjimi-linux-gnueabi/arm-hjimi-linux-gnueabi/sysroot/lib/libc.so.6
timezone                                          /home/tool/arm-hjimi-linux-gnueabi/arm-hjimi-linux-gnueabi/sysroot/lib/libc.so.6
timezone@@GLIBC_2.4                               /home/tool/arm-hjimi-linux-gnueabi/arm-hjimi-linux-gnueabi/sysroot/lib/libc.so.6
timezone@GLIBC_2.4                                /home/tool/arm-hjimi-linux-gnueabi/arm-hjimi-linux-gnueabi/sysroot/lib/libc.so.6
tolower_l                                         /home/tool/arm-hjimi-linux-gnueabi/arm-hjimi-linux-gnueabi/sysroot/lib/libc.so.6
tolower_l@@GLIBC_2.4                              /home/tool/arm-hjimi-linux-gnueabi/arm-hjimi-linux-gnueabi/sysroot/lib/libc.so.6
tolower_l@GLIBC_2.4                               /home/tool/arm-hjimi-linux-gnueabi/arm-hjimi-linux-gnueabi/sysroot/lib/libc.so.6
toupper_l                                         /home/tool/arm-hjimi-linux-gnueabi/arm-hjimi-linux-gnueabi/sysroot/lib/libc.so.6
toupper_l@@GLIBC_2.4                              /home/tool/arm-hjimi-linux-gnueabi/arm-hjimi-linux-gnueabi/sysroot/lib/libc.so.6
toupper_l@GLIBC_2.4                               /home/tool/arm-hjimi-linux-gnueabi/arm-hjimi-linux-gnueabi/sysroot/lib/libc.so.6
towctrans                                         /home/tool/arm-hjimi-linux-gnueabi/arm-hjimi-linux-gnueabi/sysroot/lib/libc.so.6
towctrans@@GLIBC_2.4                              /home/tool/arm-hjimi-linux-gnueabi/arm-hjimi-linux-gnueabi/sysroot/lib/libc.so.6
towctrans@GLIBC_2.4                               /home/tool/arm-hjimi-linux-gnueabi/arm-hjimi-linux-gnueabi/sysroot/lib/libc.so.6
towctrans_l                                       /home/tool/arm-hjimi-linux-gnueabi/arm-hjimi-linux-gnueabi/sysroot/lib/libc.so.6
towctrans_l@@GLIBC_2.4                            /home/tool/arm-hjimi-linux-gnueabi/arm-hjimi-linux-gnueabi/sysroot/lib/libc.so.6
towctrans_l@GLIBC_2.4                             /home/tool/arm-hjimi-linux-gnueabi/arm-hjimi-linux-gnueabi/sysroot/lib/libc.so.6
towlower                                          /home/tool/arm-hjimi-linux-gnueabi/arm-hjimi-linux-gnueabi/sysroot/lib/libc.so.6
towlower@@GLIBC_2.4                               /home/tool/arm-hjimi-linux-gnueabi/arm-hjimi-linux-gnueabi/sysroot/lib/libc.so.6
towlower@GLIBC_2.4                                /home/tool/arm-hjimi-linux-gnueabi/arm-hjimi-linux-gnueabi/sysroot/lib/libc.so.6
towlower_l                                        /home/tool/arm-hjimi-linux-gnueabi/arm-hjimi-linux-gnueabi/sysroot/lib/libc.so.6
towlower_l@@GLIBC_2.4                             /home/tool/arm-hjimi-linux-gnueabi/arm-hjimi-linux-gnueabi/sysroot/lib/libc.so.6
towlower_l@GLIBC_2.4                              /home/tool/arm-hjimi-linux-gnueabi/arm-hjimi-linux-gnueabi/sysroot/lib/libc.so.6
towupper                                          /home/tool/arm-hjimi-linux-gnueabi/arm-hjimi-linux-gnueabi/sysroot/lib/libc.so.6
towupper@@GLIBC_2.4                               /home/tool/arm-hjimi-linux-gnueabi/arm-hjimi-linux-gnueabi/sysroot/lib/libc.so.6
towupper@GLIBC_2.4                                /home/tool/arm-hjimi-linux-gnueabi/arm-hjimi-linux-gnueabi/sysroot/lib/libc.so.6
towupper_l                                        /home/tool/arm-hjimi-linux-gnueabi/arm-hjimi-linux-gnueabi/sysroot/lib/libc.so.6
towupper_l@@GLIBC_2.4                             /home/tool/arm-hjimi-linux-gnueabi/arm-hjimi-linux-gnueabi/sysroot/lib/libc.so.6
towupper_l@GLIBC_2.4                              /home/tool/arm-hjimi-linux-gnueabi/arm-hjimi-linux-gnueabi/sysroot/lib/libc.so.6
trig_2280_ops                                     output/drivers/trigger/sensor_sync_2280.o
trigger_config                                    output/drivers/trigger/trigger.o
trigger_enable                                    output/drivers/trigger/trigger.o
                                                  output/app/dpu/dputask.o
trigger_get_handle                                output/drivers/trigger/trigger.o
trigger_init                                      output/drivers/trigger/trigger.o
                                                  output/app/dpu/dputask.o
trigger_mode_set                                  output/drivers/trigger/trigger.o
trigger_power                                     output/drivers/trigger/trigger.o
                                                  output/app/dpu/dputask.o
trigger_register                                  output/drivers/trigger/trigger.o
                                                  output/drivers/trigger/sensor_sync_2280.o
trigger_reset                                     output/drivers/trigger/trigger.o
trigger_sys_init                                  output/drivers/trigger/trigger.o
trigger_timer_sync                                output/drivers/trigger/trigger.o
trigger_valid_sync                                output/drivers/trigger/trigger.o
                                                  output/app/dpu/dputask.o
truncate                                          /home/tool/arm-hjimi-linux-gnueabi/arm-hjimi-linux-gnueabi/sysroot/lib/libc.so.6
truncate64                                        /home/tool/arm-hjimi-linux-gnueabi/arm-hjimi-linux-gnueabi/sysroot/lib/libc.so.6
truncate64@@GLIBC_2.4                             /home/tool/arm-hjimi-linux-gnueabi/arm-hjimi-linux-gnueabi/sysroot/lib/libc.so.6
truncate64@GLIBC_2.4                              /home/tool/arm-hjimi-linux-gnueabi/arm-hjimi-linux-gnueabi/sysroot/lib/libc.so.6
truncate@@GLIBC_2.4                               /home/tool/arm-hjimi-linux-gnueabi/arm-hjimi-linux-gnueabi/sysroot/lib/libc.so.6
truncate@GLIBC_2.4                                /home/tool/arm-hjimi-linux-gnueabi/arm-hjimi-linux-gnueabi/sysroot/lib/libc.so.6
tsearch                                           /home/tool/arm-hjimi-linux-gnueabi/arm-hjimi-linux-gnueabi/sysroot/lib/libc.so.6
tsearch@@GLIBC_2.4                                /home/tool/arm-hjimi-linux-gnueabi/arm-hjimi-linux-gnueabi/sysroot/lib/libc.so.6
tsearch@GLIBC_2.4                                 /home/tool/arm-hjimi-linux-gnueabi/arm-hjimi-linux-gnueabi/sysroot/lib/libc.so.6
ttyname_r                                         /home/tool/arm-hjimi-linux-gnueabi/arm-hjimi-linux-gnueabi/sysroot/lib/libc.so.6
ttyname_r@@GLIBC_2.4                              /home/tool/arm-hjimi-linux-gnueabi/arm-hjimi-linux-gnueabi/sysroot/lib/libc.so.6
ttyname_r@GLIBC_2.4                               /home/tool/arm-hjimi-linux-gnueabi/arm-hjimi-linux-gnueabi/sysroot/lib/libc.so.6
twalk                                             /home/tool/arm-hjimi-linux-gnueabi/arm-hjimi-linux-gnueabi/sysroot/lib/libc.so.6
twalk@@GLIBC_2.4                                  /home/tool/arm-hjimi-linux-gnueabi/arm-hjimi-linux-gnueabi/sysroot/lib/libc.so.6
twalk@GLIBC_2.4                                   /home/tool/arm-hjimi-linux-gnueabi/arm-hjimi-linux-gnueabi/sysroot/lib/libc.so.6
tx_chan                                           output/drivers/qspi/candence_qspi.o
tzname                                            /home/tool/arm-hjimi-linux-gnueabi/arm-hjimi-linux-gnueabi/sysroot/lib/libc.so.6
tzname@@GLIBC_2.4                                 /home/tool/arm-hjimi-linux-gnueabi/arm-hjimi-linux-gnueabi/sysroot/lib/libc.so.6
tzname@GLIBC_2.4                                  /home/tool/arm-hjimi-linux-gnueabi/arm-hjimi-linux-gnueabi/sysroot/lib/libc.so.6
tzset                                             /home/tool/arm-hjimi-linux-gnueabi/arm-hjimi-linux-gnueabi/sysroot/lib/libc.so.6
tzset@@GLIBC_2.4                                  /home/tool/arm-hjimi-linux-gnueabi/arm-hjimi-linux-gnueabi/sysroot/lib/libc.so.6
tzset@GLIBC_2.4                                   /home/tool/arm-hjimi-linux-gnueabi/arm-hjimi-linux-gnueabi/sysroot/lib/libc.so.6
uart1_init                                        output/drivers/uart/uart.o
uart_buf_processed                                output/main/uart_task.o
uart_delay                                        output/drivers/uart/uart.o
uart_fifo_is_empty                                output/main/uart_task.o
uart_fifo_is_error                                output/main/uart_task.o
uart_get_char                                     output/main/uart_task.o
uart_getc                                         output/drivers/uart/uart.o
uart_init                                         output/drivers/uart/uart.o
uart_irq_handle                                   output/main/uart_task.o
uart_putc                                         output/drivers/uart/uart.o
                                                  output/tools/printf/printf.o
uart_puts                                         output/drivers/uart/uart.o
                                                  ./drivers/ddr/libddr_64.a(dcu.o)
                                                  output/drivers/qspi/nand_test.o
                                                  output/drivers/qspi/nor_test.o
uart_task                                         output/main/uart_task.o
                                                  output/main/main.o
uart_tstc                                         output/drivers/uart/uart.o
ucQueueGetQueueType                               output/rtos/queue.o
ucStreamBufferGetStreamBufferType                 output/rtos/stream_buffer.o
udelay                                            output/drivers/delay/delay.o
                                                  output/drivers/i2c/i2c-designware-common.o
                                                  output/drivers/dpu_2280/dpu_dev.o
                                                  output/drivers/csi_rx/csi_rx_2280.o
ulCriticalNesting                                 output/rtos/portable/GCC/port.o
                                                  output/drivers/irq/interrupt.o
ulPortInterruptNesting                            output/rtos/portable/GCC/port.o
                                                  output/drivers/rvl/rvl.o
                                                  output/drivers/mailbox/mailbox.o
                                                  output/drivers/i2c/i2c-designware-master.o
ulPortYieldRequired                               output/rtos/portable/GCC/port.o
                                                  output/drivers/rvl/rvl.o
                                                  output/drivers/mailbox/mailbox.o
                                                  output/drivers/i2c/i2c-designware-master.o
ulTaskNotifyTake                                  output/rtos/tasks.o
                                                  output/drivers/base/imi_work.o
                                                  output/app/imi_app/vendor/vendor_device.o
                                                  output/app/imi_app/subsystem/usb/vendor_usb.o
                                                  output/main/uart_task.o
ulTaskNotifyValueClear                            output/rtos/tasks.o
ulckpwdf                                          /home/tool/arm-hjimi-linux-gnueabi/arm-hjimi-linux-gnueabi/sysroot/lib/libc.so.6
ulckpwdf@@GLIBC_2.4                               /home/tool/arm-hjimi-linux-gnueabi/arm-hjimi-linux-gnueabi/sysroot/lib/libc.so.6
ulckpwdf@GLIBC_2.4                                /home/tool/arm-hjimi-linux-gnueabi/arm-hjimi-linux-gnueabi/sysroot/lib/libc.so.6
ulimit                                            /home/tool/arm-hjimi-linux-gnueabi/arm-hjimi-linux-gnueabi/sysroot/lib/libc.so.6
ulimit@@GLIBC_2.4                                 /home/tool/arm-hjimi-linux-gnueabi/arm-hjimi-linux-gnueabi/sysroot/lib/libc.so.6
ulimit@GLIBC_2.4                                  /home/tool/arm-hjimi-linux-gnueabi/arm-hjimi-linux-gnueabi/sysroot/lib/libc.so.6
umask                                             /home/tool/arm-hjimi-linux-gnueabi/arm-hjimi-linux-gnueabi/sysroot/lib/libc.so.6
umask@@GLIBC_2.4                                  /home/tool/arm-hjimi-linux-gnueabi/arm-hjimi-linux-gnueabi/sysroot/lib/libc.so.6
umask@GLIBC_2.4                                   /home/tool/arm-hjimi-linux-gnueabi/arm-hjimi-linux-gnueabi/sysroot/lib/libc.so.6
umount                                            /home/tool/arm-hjimi-linux-gnueabi/arm-hjimi-linux-gnueabi/sysroot/lib/libc.so.6
umount2                                           /home/tool/arm-hjimi-linux-gnueabi/arm-hjimi-linux-gnueabi/sysroot/lib/libc.so.6
umount2@@GLIBC_2.4                                /home/tool/arm-hjimi-linux-gnueabi/arm-hjimi-linux-gnueabi/sysroot/lib/libc.so.6
umount2@GLIBC_2.4                                 /home/tool/arm-hjimi-linux-gnueabi/arm-hjimi-linux-gnueabi/sysroot/lib/libc.so.6
umount@@GLIBC_2.4                                 /home/tool/arm-hjimi-linux-gnueabi/arm-hjimi-linux-gnueabi/sysroot/lib/libc.so.6
umount@GLIBC_2.4                                  /home/tool/arm-hjimi-linux-gnueabi/arm-hjimi-linux-gnueabi/sysroot/lib/libc.so.6
uname                                             /home/tool/arm-hjimi-linux-gnueabi/arm-hjimi-linux-gnueabi/sysroot/lib/libc.so.6
uname@@GLIBC_2.4                                  /home/tool/arm-hjimi-linux-gnueabi/arm-hjimi-linux-gnueabi/sysroot/lib/libc.so.6
uname@GLIBC_2.4                                   /home/tool/arm-hjimi-linux-gnueabi/arm-hjimi-linux-gnueabi/sysroot/lib/libc.so.6
ungetc                                            /home/tool/arm-hjimi-linux-gnueabi/arm-hjimi-linux-gnueabi/sysroot/lib/libc.so.6
ungetc@@GLIBC_2.4                                 /home/tool/arm-hjimi-linux-gnueabi/arm-hjimi-linux-gnueabi/sysroot/lib/libc.so.6
ungetc@GLIBC_2.4                                  /home/tool/arm-hjimi-linux-gnueabi/arm-hjimi-linux-gnueabi/sysroot/lib/libc.so.6
unlink                                            /home/tool/arm-hjimi-linux-gnueabi/arm-hjimi-linux-gnueabi/sysroot/lib/libc.so.6
unlink@@GLIBC_2.4                                 /home/tool/arm-hjimi-linux-gnueabi/arm-hjimi-linux-gnueabi/sysroot/lib/libc.so.6
unlink@GLIBC_2.4                                  /home/tool/arm-hjimi-linux-gnueabi/arm-hjimi-linux-gnueabi/sysroot/lib/libc.so.6
unsetenv                                          /home/tool/arm-hjimi-linux-gnueabi/arm-hjimi-linux-gnueabi/sysroot/lib/libc.so.6
unsetenv@@GLIBC_2.4                               /home/tool/arm-hjimi-linux-gnueabi/arm-hjimi-linux-gnueabi/sysroot/lib/libc.so.6
unsetenv@GLIBC_2.4                                /home/tool/arm-hjimi-linux-gnueabi/arm-hjimi-linux-gnueabi/sysroot/lib/libc.so.6
updwtmp                                           /home/tool/arm-hjimi-linux-gnueabi/arm-hjimi-linux-gnueabi/sysroot/lib/libc.so.6
updwtmp@@GLIBC_2.4                                /home/tool/arm-hjimi-linux-gnueabi/arm-hjimi-linux-gnueabi/sysroot/lib/libc.so.6
updwtmp@GLIBC_2.4                                 /home/tool/arm-hjimi-linux-gnueabi/arm-hjimi-linux-gnueabi/sysroot/lib/libc.so.6
usb_add_config                                    output/drivers/usb/gadget/composite.o
                                                  output/drivers/usb/gadget/legacy/g_imi_usb.o
usb_add_config_only                               output/drivers/usb/gadget/composite.o
usb_add_function                                  output/drivers/usb/gadget/composite.o
                                                  output/drivers/usb/gadget/function/f_imi.o
usb_add_gadget_udc                                output/drivers/usb/gadget/core.o
                                                  output/drivers/usb/musb/musb_gadget.o
usb_add_gadget_udc_release                        output/drivers/usb/gadget/core.o
usb_assign_descriptors                            output/drivers/usb/gadget/config.o
                                                  output/drivers/usb/gadget/function/f_imi.o
usb_busy_list                                     output/app/dpu/dputask.o
usb_composite_overwrite_options                   output/drivers/usb/gadget/composite.o
usb_composite_register                            output/drivers/usb/gadget/composite.o
                                                  output/drivers/usb/gadget/legacy/g_imi_usb.o
usb_composite_setup_continue                      output/drivers/usb/gadget/composite.o
usb_copy_descriptors                              output/drivers/usb/gadget/config.o
usb_descriptor_fillbuf                            output/drivers/usb/gadget/config.o
                                                  output/drivers/usb/gadget/composite.o
usb_ep_alloc_request                              output/drivers/usb/gadget/core.o
                                                  output/drivers/usb/gadget/function/u_imi.o
                                                  output/drivers/usb/gadget/function/imi_vendor_cmd.o
                                                  output/drivers/usb/gadget/function/f_imi.o
                                                  output/drivers/usb/gadget/composite.o
usb_ep_autoconfig                                 output/drivers/usb/gadget/epautoconf.o
                                                  output/drivers/usb/gadget/function/f_imi.o
usb_ep_autoconfig_release                         output/drivers/usb/gadget/epautoconf.o
usb_ep_autoconfig_reset                           output/drivers/usb/gadget/epautoconf.o
                                                  output/drivers/usb/gadget/composite.o
usb_ep_autoconfig_ss                              output/drivers/usb/gadget/epautoconf.o
                                                  output/drivers/usb/gadget/function/f_imi.o
usb_ep_clear_halt                                 output/drivers/usb/gadget/core.o
usb_ep_dequeue                                    output/drivers/usb/gadget/core.o
                                                  output/drivers/usb/gadget/function/u_imi.o
                                                  output/drivers/usb/gadget/function/f_imi.o
                                                  output/drivers/usb/gadget/composite.o
usb_ep_disable                                    output/drivers/usb/gadget/core.o
                                                  output/drivers/usb/gadget/function/f_imi.o
usb_ep_enable                                     output/drivers/usb/gadget/core.o
                                                  output/drivers/usb/gadget/function/f_imi.o
usb_ep_fifo_flush                                 output/drivers/usb/gadget/core.o
usb_ep_fifo_status                                output/drivers/usb/gadget/core.o
usb_ep_free_request                               output/drivers/usb/gadget/core.o
                                                  output/drivers/usb/gadget/function/u_imi.o
                                                  output/drivers/usb/gadget/function/imi_vendor_cmd.o
                                                  output/drivers/usb/gadget/function/f_imi.o
                                                  output/drivers/usb/gadget/composite.o
usb_ep_queue                                      output/drivers/usb/gadget/core.o
                                                  output/drivers/usb/gadget/function/u_imi.o
                                                  output/drivers/usb/gadget/function/imi_vendor_cmd.o
                                                  output/drivers/usb/gadget/function/f_imi.o
                                                  output/drivers/usb/gadget/composite.o
usb_ep_set_halt                                   output/drivers/usb/gadget/core.o
                                                  output/drivers/usb/gadget/function/u_imi.o
                                                  output/drivers/usb/gadget/function/imi_vendor_cmd.o
usb_ep_set_maxpacket_limit                        output/drivers/usb/gadget/core.o
                                                  output/drivers/usb/musb/musb_gadget.o
usb_ep_set_wedge                                  output/drivers/usb/gadget/core.o
usb_free_list                                     output/app/dpu/dputask.o
usb_function_activate                             output/drivers/usb/gadget/composite.o
usb_function_deactivate                           output/drivers/usb/gadget/composite.o
usb_g_fun                                         output/drivers/usb/gadget/legacy/g_imi_usb.o
usb_gadget_activate                               output/drivers/usb/gadget/core.o
                                                  output/drivers/usb/gadget/composite.o
usb_gadget_clear_selfpowered                      output/drivers/usb/gadget/core.o
usb_gadget_config_buf                             output/drivers/usb/gadget/config.o
usb_gadget_connect                                output/drivers/usb/gadget/core.o
                                                  output/drivers/usb/gadget/legacy/g_imi_usb.o
usb_gadget_deactivate                             output/drivers/usb/gadget/core.o
                                                  output/drivers/usb/gadget/composite.o
usb_gadget_disconnect                             output/drivers/usb/gadget/core.o
                                                  output/drivers/usb/gadget/legacy/g_imi_usb.o
usb_gadget_ep_match_desc                          output/drivers/usb/gadget/core.o
                                                  output/drivers/usb/gadget/epautoconf.o
usb_gadget_frame_number                           output/drivers/usb/gadget/core.o
usb_gadget_get_string                             output/drivers/usb/gadget/usbstring.o
                                                  output/drivers/usb/gadget/composite.o
usb_gadget_giveback_request                       output/drivers/usb/gadget/core.o
usb_gadget_handle_interrupts                      output/drivers/usb/musb/musb_rtos.o
usb_gadget_map_request                            output/drivers/usb/gadget/core.o
usb_gadget_probe_driver                           output/drivers/usb/gadget/core.o
usb_gadget_register_driver                        output/drivers/usb/gadget/core.o
                                                  output/drivers/usb/gadget/composite.o
usb_gadget_set_selfpowered                        output/drivers/usb/gadget/core.o
                                                  output/drivers/usb/gadget/composite.o
usb_gadget_set_state                              output/drivers/usb/gadget/core.o
                                                  output/drivers/usb/gadget/composite.o
usb_gadget_udc_reset                              output/drivers/usb/gadget/core.o
usb_gadget_unmap_request                          output/drivers/usb/gadget/core.o
usb_gadget_vbus_connect                           output/drivers/usb/gadget/core.o
usb_gadget_vbus_disconnect                        output/drivers/usb/gadget/core.o
usb_gadget_vbus_draw                              output/drivers/usb/gadget/core.o
                                                  output/drivers/usb/gadget/composite.o
usb_gadget_wakeup                                 output/drivers/usb/gadget/core.o
usb_gstrings_attach                               output/drivers/usb/gadget/composite.o
usb_handle                                        output/app/dpu/dputask.o
usb_interface_id                                  output/drivers/usb/gadget/composite.o
                                                  output/drivers/usb/gadget/function/f_imi.o
usb_remove_config                                 output/drivers/usb/gadget/composite.o
usb_remove_function                               output/drivers/usb/gadget/composite.o
usb_string_id                                     output/drivers/usb/gadget/composite.o
                                                  output/drivers/usb/gadget/legacy/g_imi_usb.o
                                                  output/drivers/usb/gadget/function/f_imi.o
usb_string_ids_n                                  output/drivers/usb/gadget/composite.o
usb_string_ids_tab                                output/drivers/usb/gadget/composite.o
usb_udc_vbus_handler                              output/drivers/usb/gadget/core.o
usbtask                                           output/app/dpu/dputask.o
uselocale                                         /home/tool/arm-hjimi-linux-gnueabi/arm-hjimi-linux-gnueabi/sysroot/lib/libc.so.6
uselocale@@GLIBC_2.4                              /home/tool/arm-hjimi-linux-gnueabi/arm-hjimi-linux-gnueabi/sysroot/lib/libc.so.6
uselocale@GLIBC_2.4                               /home/tool/arm-hjimi-linux-gnueabi/arm-hjimi-linux-gnueabi/sysroot/lib/libc.so.6
utf16_strlen                                      output/tools/printf/vsnprintf.o
utf16_strnlen                                     output/tools/printf/vsnprintf.o
utf16_to_utf8                                     output/tools/printf/vsnprintf.o
utf8_to_utf16                                     output/tools/printf/vsnprintf.o
utf8_to_utf32                                     output/drivers/usb/gadget/composite.o
utf8s_to_utf16s                                   output/drivers/usb/gadget/composite.o
utimes                                            /home/tool/arm-hjimi-linux-gnueabi/arm-hjimi-linux-gnueabi/sysroot/lib/libc.so.6
utimes@@GLIBC_2.4                                 /home/tool/arm-hjimi-linux-gnueabi/arm-hjimi-linux-gnueabi/sysroot/lib/libc.so.6
utimes@GLIBC_2.4                                  /home/tool/arm-hjimi-linux-gnueabi/arm-hjimi-linux-gnueabi/sysroot/lib/libc.so.6
utmpname                                          /home/tool/arm-hjimi-linux-gnueabi/arm-hjimi-linux-gnueabi/sysroot/lib/libc.so.6
utmpname@@GLIBC_2.4                               /home/tool/arm-hjimi-linux-gnueabi/arm-hjimi-linux-gnueabi/sysroot/lib/libc.so.6
utmpname@GLIBC_2.4                                /home/tool/arm-hjimi-linux-gnueabi/arm-hjimi-linux-gnueabi/sysroot/lib/libc.so.6
uxEventGroupGetNumber                             output/rtos/event_groups.o
uxListRemove                                      output/rtos/list.o
                                                  output/rtos/timers.o
                                                  output/rtos/tasks.o
uxQueueGetQueueNumber                             output/rtos/queue.o
uxQueueMessagesWaiting                            output/rtos/queue.o
uxQueueMessagesWaitingFromISR                     output/rtos/queue.o
uxQueueSpacesAvailable                            output/rtos/queue.o
uxStreamBufferGetStreamBufferNumber               output/rtos/stream_buffer.o
uxTaskGetNumberOfTasks                            output/rtos/tasks.o
                                                  output/tools/FreeRTOS_CLI/imi_console.o
uxTaskGetSystemState                              output/rtos/tasks.o
                                                  output/tools/FreeRTOS_CLI/imi_console.o
uxTaskGetTaskNumber                               output/rtos/tasks.o
uxTaskPriorityGet                                 output/rtos/tasks.o
uxTaskPriorityGetFromISR                          output/rtos/tasks.o
uxTaskResetEventItemValue                         output/rtos/tasks.o
                                                  output/rtos/event_groups.o
uxTimerGetReloadMode                              output/rtos/timers.o
uxTimerGetTimerNumber                             output/rtos/timers.o
vApplicationStackOverflowHook                     output/main/main.o
                                                  output/rtos/tasks.o
vEventGroupClearBitsCallback                      output/rtos/event_groups.o
vEventGroupDelete                                 output/rtos/event_groups.o
vEventGroupSetBitsCallback                        output/rtos/event_groups.o
vEventGroupSetNumber                              output/rtos/event_groups.o
vListInitialise                                   output/rtos/list.o
                                                  output/rtos/timers.o
                                                  output/rtos/tasks.o
                                                  output/rtos/queue.o
                                                  output/rtos/event_groups.o
vListInitialiseItem                               output/rtos/list.o
                                                  output/rtos/timers.o
                                                  output/rtos/tasks.o
vListInsert                                       output/rtos/list.o
                                                  output/rtos/timers.o
                                                  output/rtos/tasks.o
vListInsertEnd                                    output/rtos/list.o
                                                  output/rtos/tasks.o
vPortEndScheduler                                 output/rtos/portable/GCC/port.o
                                                  output/rtos/tasks.o
vPortEnterCritical                                output/rtos/portable/GCC/port.o
                                                  output/tools/FreeRTOS_CLI/FreeRTOS_CLI.o
                                                  output/drivers/usb/musb/musb_gadget_ep0.o
                                                  output/drivers/usb/musb/musb_gadget.o
                                                  output/drivers/usb/gadget/composite.o
                                                  output/drivers/dpu_2280/dpu_dev.o
                                                  output/drivers/dma/pl330.o
                                                  output/drivers/compat/linux_compat.o
                                                  output/drivers/buf_man/imi_bm.o
                                                  output/drivers/base/imi_dev.o
                                                  output/app/dpu/msg_module.o
                                                  output/rtos/timers.o
                                                  output/rtos/tasks.o
                                                  output/rtos/stream_buffer.o
                                                  output/rtos/queue.o
                                                  output/rtos/portable/MemMang/heap_4.o
                                                  output/rtos/event_groups.o
vPortExitCritical                                 output/rtos/portable/GCC/port.o
                                                  output/tools/FreeRTOS_CLI/FreeRTOS_CLI.o
                                                  output/drivers/usb/musb/musb_gadget_ep0.o
                                                  output/drivers/usb/musb/musb_gadget.o
                                                  output/drivers/usb/gadget/composite.o
                                                  output/drivers/dpu_2280/dpu_dev.o
                                                  output/drivers/dma/pl330.o
                                                  output/drivers/compat/linux_compat.o
                                                  output/drivers/buf_man/imi_bm.o
                                                  output/drivers/base/imi_dev.o
                                                  output/app/dpu/msg_module.o
                                                  output/rtos/timers.o
                                                  output/rtos/tasks.o
                                                  output/rtos/stream_buffer.o
                                                  output/rtos/queue.o
                                                  output/rtos/portable/MemMang/heap_4.o
                                                  output/rtos/event_groups.o
vPortFree                                         output/rtos/portable/MemMang/heap_4.o
                                                  output/drivers/usb/musb/musb_gadget.o
                                                  output/drivers/usb/gadget/function/imi_vendor_cmd.o
                                                  output/drivers/usb/gadget/function/f_imi.o
                                                  output/drivers/i2c/i2c_core.o
                                                  output/drivers/i2c/i2c-designware-platdrv.o
                                                  output/drivers/dpu_2280/dpu_dev.o
                                                  output/drivers/dma/pl330.o
                                                  output/drivers/base/imi_dev.o
                                                  output/app/imi_app/vendor/vendor_misc.o
                                                  output/app/imi_app/vendor/vendor_device.o
                                                  output/rtos/timers.o
                                                  output/rtos/tasks.o
                                                  output/rtos/stream_buffer.o
                                                  output/rtos/queue.o
                                                  output/rtos/event_groups.o
vPortGetHeapStats                                 output/rtos/portable/MemMang/heap_4.o
vPortInitialiseBlocks                             output/rtos/portable/MemMang/heap_4.o
vPortStartFirstTask                               output/rtos/portable/GCC/port.o
vPortYieldProcessor                               output/rtos/portable/GCC/port.o
                                                  output/boards/2280_ddr/start/start.o
vQueueAddToRegistry                               output/rtos/queue.o
                                                  output/rtos/timers.o
vQueueDelete                                      output/rtos/queue.o
                                                  output/drivers/compat/linux_compat.o
vQueueSetQueueNumber                              output/rtos/queue.o
vQueueUnregisterQueue                             output/rtos/queue.o
vQueueWaitForMessageRestricted                    output/rtos/queue.o
                                                  output/rtos/timers.o
vStreamBufferDelete                               output/rtos/stream_buffer.o
vStreamBufferSetStreamBufferNumber                output/rtos/stream_buffer.o
vTaskDelay                                        output/rtos/tasks.o
                                                  output/drivers/compat/linux_compat.o
                                                  output/app/imi_app/subsystem/usb/vendor_usb.o
                                                  output/app/dpu/dputask.o
vTaskDelayUntil                                   output/rtos/tasks.o
vTaskDelete                                       output/rtos/tasks.o
                                                  output/app/imi_app/vendor/vendor_device.o
                                                  output/app/imi_app/vendor/cmd_hal.o
                                                  output/app/imi_app/subsystem/usb/vendor_usb.o
vTaskEndScheduler                                 output/rtos/tasks.o
vTaskGetInfo                                      output/rtos/tasks.o
vTaskGetRunTimeStats                              output/rtos/tasks.o
vTaskInternalSetTimeOutState                      output/rtos/tasks.o
                                                  output/rtos/queue.o
vTaskList                                         output/rtos/tasks.o
vTaskMissedYield                                  output/rtos/tasks.o
                                                  output/rtos/queue.o
vTaskNotifyGiveFromISR                            output/rtos/tasks.o
                                                  output/drivers/base/imi_work.o
                                                  output/main/uart_task.o
vTaskPlaceOnEventList                             output/rtos/tasks.o
                                                  output/rtos/queue.o
vTaskPlaceOnEventListRestricted                   output/rtos/tasks.o
                                                  output/rtos/queue.o
vTaskPlaceOnUnorderedEventList                    output/rtos/tasks.o
                                                  output/rtos/event_groups.o
vTaskPriorityDisinheritAfterTimeout               output/rtos/tasks.o
                                                  output/rtos/queue.o
vTaskPrioritySet                                  output/rtos/tasks.o
vTaskRemoveFromUnorderedEventList                 output/rtos/tasks.o
                                                  output/rtos/event_groups.o
vTaskResume                                       output/rtos/tasks.o
vTaskSetTaskNumber                                output/rtos/tasks.o
vTaskSetTimeOutState                              output/rtos/tasks.o
                                                  output/rtos/stream_buffer.o
vTaskStartScheduler                               output/rtos/tasks.o
                                                  output/main/main.o
vTaskSuspend                                      output/rtos/tasks.o
vTaskSuspendAll                                   output/rtos/tasks.o
                                                  output/rtos/timers.o
                                                  output/rtos/stream_buffer.o
                                                  output/rtos/queue.o
                                                  output/rtos/portable/MemMang/heap_4.o
                                                  output/rtos/event_groups.o
vTaskSwitchContext                                output/rtos/tasks.o
                                                  output/drivers/timers/timer_imi2280.o
                                                  output/drivers/compat/linux_compat.o
                                                  output/app/dpu/msg_module.o
                                                  output/rtos/portable/GCC/port.o
vTimerSetReloadMode                               output/rtos/timers.o
vTimerSetTimerID                                  output/rtos/timers.o
vTimerSetTimerNumber                              output/rtos/timers.o
valloc                                            /home/tool/arm-hjimi-linux-gnueabi/arm-hjimi-linux-gnueabi/sysroot/lib/libc.so.6
valloc@@GLIBC_2.4                                 /home/tool/arm-hjimi-linux-gnueabi/arm-hjimi-linux-gnueabi/sysroot/lib/libc.so.6
valloc@GLIBC_2.4                                  /home/tool/arm-hjimi-linux-gnueabi/arm-hjimi-linux-gnueabi/sysroot/lib/libc.so.6
vasprintf                                         /home/tool/arm-hjimi-linux-gnueabi/arm-hjimi-linux-gnueabi/sysroot/lib/libc.so.6
vasprintf@@GLIBC_2.4                              /home/tool/arm-hjimi-linux-gnueabi/arm-hjimi-linux-gnueabi/sysroot/lib/libc.so.6
vasprintf@GLIBC_2.4                               /home/tool/arm-hjimi-linux-gnueabi/arm-hjimi-linux-gnueabi/sysroot/lib/libc.so.6
vcsel_get_handle                                  output/drivers/vcsel_driver/vcsel.o
vcsel_get_reg                                     output/drivers/vcsel_driver/vcsel.o
                                                  output/app/dpu/dpu_hal.o
vcsel_power                                       output/drivers/vcsel_driver/vcsel.o
                                                  output/app/dpu/dputask.o
                                                  output/app/dpu/dpu_hal.o
vcsel_register                                    output/drivers/vcsel_driver/vcsel.o
                                                  output/drivers/vcsel_driver/lm3644.o
                                                  output/drivers/vcsel_driver/lm36011.o
vcsel_reset                                       output/drivers/vcsel_driver/vcsel.o
                                                  output/app/dpu/dpu_hal.o
vcsel_set_channel                                 output/drivers/vcsel_driver/vcsel.o
                                                  output/app/dpu/dpu_hal.o
vcsel_set_current                                 output/drivers/vcsel_driver/vcsel.o
                                                  output/app/dpu/dputask.o
                                                  output/app/dpu/dpu_hal.o
vcsel_set_reg                                     output/drivers/vcsel_driver/vcsel.o
                                                  output/app/dpu/dpu_hal.o
vcsel_sys_init                                    output/drivers/vcsel_driver/vcsel.o
vdprintf                                          /home/tool/arm-hjimi-linux-gnueabi/arm-hjimi-linux-gnueabi/sysroot/lib/libc.so.6
vdprintf@@GLIBC_2.4                               /home/tool/arm-hjimi-linux-gnueabi/arm-hjimi-linux-gnueabi/sysroot/lib/libc.so.6
vdprintf@GLIBC_2.4                                /home/tool/arm-hjimi-linux-gnueabi/arm-hjimi-linux-gnueabi/sysroot/lib/libc.so.6
vector_addr_init                                  output/drivers/irq/chip.o
vendor_device_handle_stream_ctl                   output/app/imi_app/vendor/vendor_device.o
vendor_device_stream_tsk                          output/app/imi_app/vendor/vendor_device.o
vendor_misc_calculate_crc16                       output/app/imi_app/vendor/vendor_misc.o
                                                  output/app/imi_app/vendor/vendor_device.o
vendor_misc_deinit                                output/app/imi_app/vendor/vendor_misc.o
                                                  output/app/imi_app/vendor/vendor_device.o
vendor_misc_handle_cmd                            output/app/imi_app/vendor/vendor_misc.o
                                                  output/app/imi_app/vendor/vendor_device.o
vendor_misc_handle_map                            output/app/imi_app/vendor/vendor_misc.o
vendor_misc_init                                  output/app/imi_app/vendor/vendor_misc.o
                                                  output/app/imi_app/vendor/vendor_device.o
vendor_usb_process_ep_in_cmd                      output/app/imi_app/subsystem/usb/vendor_usb.o
vendor_usb_reset_streams                          output/app/imi_app/subsystem/usb/vendor_usb.o
vfork                                             /home/tool/arm-hjimi-linux-gnueabi/arm-hjimi-linux-gnueabi/sysroot/lib/libc.so.6
vfork@@GLIBC_2.4                                  /home/tool/arm-hjimi-linux-gnueabi/arm-hjimi-linux-gnueabi/sysroot/lib/libc.so.6
vfork@GLIBC_2.4                                   /home/tool/arm-hjimi-linux-gnueabi/arm-hjimi-linux-gnueabi/sysroot/lib/libc.so.6
vfscanf                                           /home/tool/arm-hjimi-linux-gnueabi/arm-hjimi-linux-gnueabi/sysroot/lib/libc.so.6
vfscanf@@GLIBC_2.4                                /home/tool/arm-hjimi-linux-gnueabi/arm-hjimi-linux-gnueabi/sysroot/lib/libc.so.6
vfscanf@GLIBC_2.4                                 /home/tool/arm-hjimi-linux-gnueabi/arm-hjimi-linux-gnueabi/sysroot/lib/libc.so.6
vfwprintf                                         /home/tool/arm-hjimi-linux-gnueabi/arm-hjimi-linux-gnueabi/sysroot/lib/libc.so.6
vfwprintf@@GLIBC_2.4                              /home/tool/arm-hjimi-linux-gnueabi/arm-hjimi-linux-gnueabi/sysroot/lib/libc.so.6
vfwprintf@GLIBC_2.4                               /home/tool/arm-hjimi-linux-gnueabi/arm-hjimi-linux-gnueabi/sysroot/lib/libc.so.6
vfwscanf                                          /home/tool/arm-hjimi-linux-gnueabi/arm-hjimi-linux-gnueabi/sysroot/lib/libc.so.6
vfwscanf@@GLIBC_2.4                               /home/tool/arm-hjimi-linux-gnueabi/arm-hjimi-linux-gnueabi/sysroot/lib/libc.so.6
vfwscanf@GLIBC_2.4                                /home/tool/arm-hjimi-linux-gnueabi/arm-hjimi-linux-gnueabi/sysroot/lib/libc.so.6
vi_domain_probe                                   output/drivers/csi_rx/vidomain_2280.o
vi_domain_set_resolution                          output/drivers/csi_rx/vidomain_2280.o
vic_ack_irq                                       output/drivers/irq/vic_int.o
vic_addr                                          output/drivers/irq/vic_int.o
vic_disable                                       output/drivers/irq/vic_int.o
vic_handle_irq                                    output/drivers/irq/vic_int.o
                                                  output/drivers/irq/interrupt.o
vic_init                                          output/drivers/irq/vic_int.o
vic_mask_irq                                      output/drivers/irq/vic_int.o
vic_print_irq_statistics                          output/drivers/irq/vic_int.o
                                                  output/tools/FreeRTOS_CLI/imi_console.o
vic_unmask_irq                                    output/drivers/irq/vic_int.o
vscanf                                            /home/tool/arm-hjimi-linux-gnueabi/arm-hjimi-linux-gnueabi/sysroot/lib/libc.so.6
vscanf@@GLIBC_2.4                                 /home/tool/arm-hjimi-linux-gnueabi/arm-hjimi-linux-gnueabi/sysroot/lib/libc.so.6
vscanf@GLIBC_2.4                                  /home/tool/arm-hjimi-linux-gnueabi/arm-hjimi-linux-gnueabi/sysroot/lib/libc.so.6
vsnprintf                                         /home/tool/arm-hjimi-linux-gnueabi/arm-hjimi-linux-gnueabi/sysroot/lib/libc.so.6
vsnprintf@@GLIBC_2.4                              /home/tool/arm-hjimi-linux-gnueabi/arm-hjimi-linux-gnueabi/sysroot/lib/libc.so.6
vsnprintf@GLIBC_2.4                               /home/tool/arm-hjimi-linux-gnueabi/arm-hjimi-linux-gnueabi/sysroot/lib/libc.so.6
vsprintf                                          output/tools/printf/vsnprintf.o
                                                  output/tools/printf/printf.o
vsprintf@@GLIBC_2.4                               /home/tool/arm-hjimi-linux-gnueabi/arm-hjimi-linux-gnueabi/sysroot/lib/libc.so.6
vsprintf@GLIBC_2.4                                /home/tool/arm-hjimi-linux-gnueabi/arm-hjimi-linux-gnueabi/sysroot/lib/libc.so.6
vsscanf                                           /home/tool/arm-hjimi-linux-gnueabi/arm-hjimi-linux-gnueabi/sysroot/lib/libc.so.6
vsscanf@@GLIBC_2.4                                /home/tool/arm-hjimi-linux-gnueabi/arm-hjimi-linux-gnueabi/sysroot/lib/libc.so.6
vsscanf@GLIBC_2.4                                 /home/tool/arm-hjimi-linux-gnueabi/arm-hjimi-linux-gnueabi/sysroot/lib/libc.so.6
vswprintf                                         /home/tool/arm-hjimi-linux-gnueabi/arm-hjimi-linux-gnueabi/sysroot/lib/libc.so.6
vswprintf@@GLIBC_2.4                              /home/tool/arm-hjimi-linux-gnueabi/arm-hjimi-linux-gnueabi/sysroot/lib/libc.so.6
vswprintf@GLIBC_2.4                               /home/tool/arm-hjimi-linux-gnueabi/arm-hjimi-linux-gnueabi/sysroot/lib/libc.so.6
wait                                              /home/tool/arm-hjimi-linux-gnueabi/arm-hjimi-linux-gnueabi/sysroot/lib/libc.so.6
wait3                                             /home/tool/arm-hjimi-linux-gnueabi/arm-hjimi-linux-gnueabi/sysroot/lib/libc.so.6
wait3@@GLIBC_2.4                                  /home/tool/arm-hjimi-linux-gnueabi/arm-hjimi-linux-gnueabi/sysroot/lib/libc.so.6
wait3@GLIBC_2.4                                   /home/tool/arm-hjimi-linux-gnueabi/arm-hjimi-linux-gnueabi/sysroot/lib/libc.so.6
wait4                                             /home/tool/arm-hjimi-linux-gnueabi/arm-hjimi-linux-gnueabi/sysroot/lib/libc.so.6
wait4@@GLIBC_2.4                                  /home/tool/arm-hjimi-linux-gnueabi/arm-hjimi-linux-gnueabi/sysroot/lib/libc.so.6
wait4@GLIBC_2.4                                   /home/tool/arm-hjimi-linux-gnueabi/arm-hjimi-linux-gnueabi/sysroot/lib/libc.so.6
wait@@GLIBC_2.4                                   /home/tool/arm-hjimi-linux-gnueabi/arm-hjimi-linux-gnueabi/sysroot/lib/libc.so.6
wait@GLIBC_2.4                                    /home/tool/arm-hjimi-linux-gnueabi/arm-hjimi-linux-gnueabi/sysroot/lib/libc.so.6
wait_for_pll0_lock                                ./drivers/ddr/libddr_64.a(dcu.o)
wait_for_pll1_lock                                ./drivers/ddr/libddr_64.a(dcu.o)
wait_for_pll2_lock                                ./drivers/ddr/libddr_64.a(dcu.o)
waitid                                            /home/tool/arm-hjimi-linux-gnueabi/arm-hjimi-linux-gnueabi/sysroot/lib/libc.so.6
waitid@@GLIBC_2.4                                 /home/tool/arm-hjimi-linux-gnueabi/arm-hjimi-linux-gnueabi/sysroot/lib/libc.so.6
waitid@GLIBC_2.4                                  /home/tool/arm-hjimi-linux-gnueabi/arm-hjimi-linux-gnueabi/sysroot/lib/libc.so.6
waitpid                                           /home/tool/arm-hjimi-linux-gnueabi/arm-hjimi-linux-gnueabi/sysroot/lib/libc.so.6
waitpid@@GLIBC_2.4                                /home/tool/arm-hjimi-linux-gnueabi/arm-hjimi-linux-gnueabi/sysroot/lib/libc.so.6
waitpid@GLIBC_2.4                                 /home/tool/arm-hjimi-linux-gnueabi/arm-hjimi-linux-gnueabi/sysroot/lib/libc.so.6
wcpcpy                                            /home/tool/arm-hjimi-linux-gnueabi/arm-hjimi-linux-gnueabi/sysroot/lib/libc.so.6
wcpcpy@@GLIBC_2.4                                 /home/tool/arm-hjimi-linux-gnueabi/arm-hjimi-linux-gnueabi/sysroot/lib/libc.so.6
wcpcpy@GLIBC_2.4                                  /home/tool/arm-hjimi-linux-gnueabi/arm-hjimi-linux-gnueabi/sysroot/lib/libc.so.6
wcpncpy                                           /home/tool/arm-hjimi-linux-gnueabi/arm-hjimi-linux-gnueabi/sysroot/lib/libc.so.6
wcpncpy@@GLIBC_2.4                                /home/tool/arm-hjimi-linux-gnueabi/arm-hjimi-linux-gnueabi/sysroot/lib/libc.so.6
wcpncpy@GLIBC_2.4                                 /home/tool/arm-hjimi-linux-gnueabi/arm-hjimi-linux-gnueabi/sysroot/lib/libc.so.6
wcrtomb                                           /home/tool/arm-hjimi-linux-gnueabi/arm-hjimi-linux-gnueabi/sysroot/lib/libc.so.6
wcrtomb@@GLIBC_2.4                                /home/tool/arm-hjimi-linux-gnueabi/arm-hjimi-linux-gnueabi/sysroot/lib/libc.so.6
wcrtomb@GLIBC_2.4                                 /home/tool/arm-hjimi-linux-gnueabi/arm-hjimi-linux-gnueabi/sysroot/lib/libc.so.6
wcscasecmp                                        /home/tool/arm-hjimi-linux-gnueabi/arm-hjimi-linux-gnueabi/sysroot/lib/libc.so.6
wcscasecmp@@GLIBC_2.4                             /home/tool/arm-hjimi-linux-gnueabi/arm-hjimi-linux-gnueabi/sysroot/lib/libc.so.6
wcscasecmp@GLIBC_2.4                              /home/tool/arm-hjimi-linux-gnueabi/arm-hjimi-linux-gnueabi/sysroot/lib/libc.so.6
wcscasecmp_l                                      /home/tool/arm-hjimi-linux-gnueabi/arm-hjimi-linux-gnueabi/sysroot/lib/libc.so.6
wcscasecmp_l@@GLIBC_2.4                           /home/tool/arm-hjimi-linux-gnueabi/arm-hjimi-linux-gnueabi/sysroot/lib/libc.so.6
wcscasecmp_l@GLIBC_2.4                            /home/tool/arm-hjimi-linux-gnueabi/arm-hjimi-linux-gnueabi/sysroot/lib/libc.so.6
wcscat                                            /home/tool/arm-hjimi-linux-gnueabi/arm-hjimi-linux-gnueabi/sysroot/lib/libc.so.6
wcscat@@GLIBC_2.4                                 /home/tool/arm-hjimi-linux-gnueabi/arm-hjimi-linux-gnueabi/sysroot/lib/libc.so.6
wcscat@GLIBC_2.4                                  /home/tool/arm-hjimi-linux-gnueabi/arm-hjimi-linux-gnueabi/sysroot/lib/libc.so.6
wcschr                                            /home/tool/arm-hjimi-linux-gnueabi/arm-hjimi-linux-gnueabi/sysroot/lib/libc.so.6
wcschr@@GLIBC_2.4                                 /home/tool/arm-hjimi-linux-gnueabi/arm-hjimi-linux-gnueabi/sysroot/lib/libc.so.6
wcschr@GLIBC_2.4                                  /home/tool/arm-hjimi-linux-gnueabi/arm-hjimi-linux-gnueabi/sysroot/lib/libc.so.6
wcschrnul                                         /home/tool/arm-hjimi-linux-gnueabi/arm-hjimi-linux-gnueabi/sysroot/lib/libc.so.6
wcschrnul@@GLIBC_2.4                              /home/tool/arm-hjimi-linux-gnueabi/arm-hjimi-linux-gnueabi/sysroot/lib/libc.so.6
wcschrnul@GLIBC_2.4                               /home/tool/arm-hjimi-linux-gnueabi/arm-hjimi-linux-gnueabi/sysroot/lib/libc.so.6
wcscmp                                            /home/tool/arm-hjimi-linux-gnueabi/arm-hjimi-linux-gnueabi/sysroot/lib/libc.so.6
wcscmp@@GLIBC_2.4                                 /home/tool/arm-hjimi-linux-gnueabi/arm-hjimi-linux-gnueabi/sysroot/lib/libc.so.6
wcscmp@GLIBC_2.4                                  /home/tool/arm-hjimi-linux-gnueabi/arm-hjimi-linux-gnueabi/sysroot/lib/libc.so.6
wcscoll                                           /home/tool/arm-hjimi-linux-gnueabi/arm-hjimi-linux-gnueabi/sysroot/lib/libc.so.6
wcscoll@@GLIBC_2.4                                /home/tool/arm-hjimi-linux-gnueabi/arm-hjimi-linux-gnueabi/sysroot/lib/libc.so.6
wcscoll@GLIBC_2.4                                 /home/tool/arm-hjimi-linux-gnueabi/arm-hjimi-linux-gnueabi/sysroot/lib/libc.so.6
wcscoll_l                                         /home/tool/arm-hjimi-linux-gnueabi/arm-hjimi-linux-gnueabi/sysroot/lib/libc.so.6
wcscoll_l@@GLIBC_2.4                              /home/tool/arm-hjimi-linux-gnueabi/arm-hjimi-linux-gnueabi/sysroot/lib/libc.so.6
wcscoll_l@GLIBC_2.4                               /home/tool/arm-hjimi-linux-gnueabi/arm-hjimi-linux-gnueabi/sysroot/lib/libc.so.6
wcsftime_l                                        /home/tool/arm-hjimi-linux-gnueabi/arm-hjimi-linux-gnueabi/sysroot/lib/libc.so.6
wcsftime_l@@GLIBC_2.4                             /home/tool/arm-hjimi-linux-gnueabi/arm-hjimi-linux-gnueabi/sysroot/lib/libc.so.6
wcsftime_l@GLIBC_2.4                              /home/tool/arm-hjimi-linux-gnueabi/arm-hjimi-linux-gnueabi/sysroot/lib/libc.so.6
wcslen                                            /home/tool/arm-hjimi-linux-gnueabi/arm-hjimi-linux-gnueabi/sysroot/lib/libc.so.6
wcslen@@GLIBC_2.4                                 /home/tool/arm-hjimi-linux-gnueabi/arm-hjimi-linux-gnueabi/sysroot/lib/libc.so.6
wcslen@GLIBC_2.4                                  /home/tool/arm-hjimi-linux-gnueabi/arm-hjimi-linux-gnueabi/sysroot/lib/libc.so.6
wcsncasecmp                                       /home/tool/arm-hjimi-linux-gnueabi/arm-hjimi-linux-gnueabi/sysroot/lib/libc.so.6
wcsncasecmp@@GLIBC_2.4                            /home/tool/arm-hjimi-linux-gnueabi/arm-hjimi-linux-gnueabi/sysroot/lib/libc.so.6
wcsncasecmp@GLIBC_2.4                             /home/tool/arm-hjimi-linux-gnueabi/arm-hjimi-linux-gnueabi/sysroot/lib/libc.so.6
wcsncasecmp_l                                     /home/tool/arm-hjimi-linux-gnueabi/arm-hjimi-linux-gnueabi/sysroot/lib/libc.so.6
wcsncasecmp_l@@GLIBC_2.4                          /home/tool/arm-hjimi-linux-gnueabi/arm-hjimi-linux-gnueabi/sysroot/lib/libc.so.6
wcsncasecmp_l@GLIBC_2.4                           /home/tool/arm-hjimi-linux-gnueabi/arm-hjimi-linux-gnueabi/sysroot/lib/libc.so.6
wcsncpy                                           /home/tool/arm-hjimi-linux-gnueabi/arm-hjimi-linux-gnueabi/sysroot/lib/libc.so.6
wcsncpy@@GLIBC_2.4                                /home/tool/arm-hjimi-linux-gnueabi/arm-hjimi-linux-gnueabi/sysroot/lib/libc.so.6
wcsncpy@GLIBC_2.4                                 /home/tool/arm-hjimi-linux-gnueabi/arm-hjimi-linux-gnueabi/sysroot/lib/libc.so.6
wcsnlen                                           /home/tool/arm-hjimi-linux-gnueabi/arm-hjimi-linux-gnueabi/sysroot/lib/libc.so.6
wcsnlen@@GLIBC_2.4                                /home/tool/arm-hjimi-linux-gnueabi/arm-hjimi-linux-gnueabi/sysroot/lib/libc.so.6
wcsnlen@GLIBC_2.4                                 /home/tool/arm-hjimi-linux-gnueabi/arm-hjimi-linux-gnueabi/sysroot/lib/libc.so.6
wcsnrtombs                                        /home/tool/arm-hjimi-linux-gnueabi/arm-hjimi-linux-gnueabi/sysroot/lib/libc.so.6
wcsnrtombs@@GLIBC_2.4                             /home/tool/arm-hjimi-linux-gnueabi/arm-hjimi-linux-gnueabi/sysroot/lib/libc.so.6
wcsnrtombs@GLIBC_2.4                              /home/tool/arm-hjimi-linux-gnueabi/arm-hjimi-linux-gnueabi/sysroot/lib/libc.so.6
wcsrtombs                                         /home/tool/arm-hjimi-linux-gnueabi/arm-hjimi-linux-gnueabi/sysroot/lib/libc.so.6
wcsrtombs@@GLIBC_2.4                              /home/tool/arm-hjimi-linux-gnueabi/arm-hjimi-linux-gnueabi/sysroot/lib/libc.so.6
wcsrtombs@GLIBC_2.4                               /home/tool/arm-hjimi-linux-gnueabi/arm-hjimi-linux-gnueabi/sysroot/lib/libc.so.6
wcstod_l                                          /home/tool/arm-hjimi-linux-gnueabi/arm-hjimi-linux-gnueabi/sysroot/lib/libc.so.6
wcstod_l@@GLIBC_2.4                               /home/tool/arm-hjimi-linux-gnueabi/arm-hjimi-linux-gnueabi/sysroot/lib/libc.so.6
wcstod_l@GLIBC_2.4                                /home/tool/arm-hjimi-linux-gnueabi/arm-hjimi-linux-gnueabi/sysroot/lib/libc.so.6
wcstof_l                                          /home/tool/arm-hjimi-linux-gnueabi/arm-hjimi-linux-gnueabi/sysroot/lib/libc.so.6
wcstof_l@@GLIBC_2.4                               /home/tool/arm-hjimi-linux-gnueabi/arm-hjimi-linux-gnueabi/sysroot/lib/libc.so.6
wcstof_l@GLIBC_2.4                                /home/tool/arm-hjimi-linux-gnueabi/arm-hjimi-linux-gnueabi/sysroot/lib/libc.so.6
wcstol                                            /home/tool/arm-hjimi-linux-gnueabi/arm-hjimi-linux-gnueabi/sysroot/lib/libc.so.6
wcstol@@GLIBC_2.4                                 /home/tool/arm-hjimi-linux-gnueabi/arm-hjimi-linux-gnueabi/sysroot/lib/libc.so.6
wcstol@GLIBC_2.4                                  /home/tool/arm-hjimi-linux-gnueabi/arm-hjimi-linux-gnueabi/sysroot/lib/libc.so.6
wcstol_l                                          /home/tool/arm-hjimi-linux-gnueabi/arm-hjimi-linux-gnueabi/sysroot/lib/libc.so.6
wcstol_l@@GLIBC_2.4                               /home/tool/arm-hjimi-linux-gnueabi/arm-hjimi-linux-gnueabi/sysroot/lib/libc.so.6
wcstol_l@GLIBC_2.4                                /home/tool/arm-hjimi-linux-gnueabi/arm-hjimi-linux-gnueabi/sysroot/lib/libc.so.6
wcstold_l                                         /home/tool/arm-hjimi-linux-gnueabi/arm-hjimi-linux-gnueabi/sysroot/lib/libc.so.6
wcstold_l@@GLIBC_2.4                              /home/tool/arm-hjimi-linux-gnueabi/arm-hjimi-linux-gnueabi/sysroot/lib/libc.so.6
wcstold_l@GLIBC_2.4                               /home/tool/arm-hjimi-linux-gnueabi/arm-hjimi-linux-gnueabi/sysroot/lib/libc.so.6
wcstoll                                           /home/tool/arm-hjimi-linux-gnueabi/arm-hjimi-linux-gnueabi/sysroot/lib/libc.so.6
wcstoll@@GLIBC_2.4                                /home/tool/arm-hjimi-linux-gnueabi/arm-hjimi-linux-gnueabi/sysroot/lib/libc.so.6
wcstoll@GLIBC_2.4                                 /home/tool/arm-hjimi-linux-gnueabi/arm-hjimi-linux-gnueabi/sysroot/lib/libc.so.6
wcstoll_l                                         /home/tool/arm-hjimi-linux-gnueabi/arm-hjimi-linux-gnueabi/sysroot/lib/libc.so.6
wcstoll_l@@GLIBC_2.4                              /home/tool/arm-hjimi-linux-gnueabi/arm-hjimi-linux-gnueabi/sysroot/lib/libc.so.6
wcstoll_l@GLIBC_2.4                               /home/tool/arm-hjimi-linux-gnueabi/arm-hjimi-linux-gnueabi/sysroot/lib/libc.so.6
wcstoq                                            /home/tool/arm-hjimi-linux-gnueabi/arm-hjimi-linux-gnueabi/sysroot/lib/libc.so.6
wcstoq@@GLIBC_2.4                                 /home/tool/arm-hjimi-linux-gnueabi/arm-hjimi-linux-gnueabi/sysroot/lib/libc.so.6
wcstoq@GLIBC_2.4                                  /home/tool/arm-hjimi-linux-gnueabi/arm-hjimi-linux-gnueabi/sysroot/lib/libc.so.6
wcstoul                                           /home/tool/arm-hjimi-linux-gnueabi/arm-hjimi-linux-gnueabi/sysroot/lib/libc.so.6
wcstoul@@GLIBC_2.4                                /home/tool/arm-hjimi-linux-gnueabi/arm-hjimi-linux-gnueabi/sysroot/lib/libc.so.6
wcstoul@GLIBC_2.4                                 /home/tool/arm-hjimi-linux-gnueabi/arm-hjimi-linux-gnueabi/sysroot/lib/libc.so.6
wcstoul_l                                         /home/tool/arm-hjimi-linux-gnueabi/arm-hjimi-linux-gnueabi/sysroot/lib/libc.so.6
wcstoul_l@@GLIBC_2.4                              /home/tool/arm-hjimi-linux-gnueabi/arm-hjimi-linux-gnueabi/sysroot/lib/libc.so.6
wcstoul_l@GLIBC_2.4                               /home/tool/arm-hjimi-linux-gnueabi/arm-hjimi-linux-gnueabi/sysroot/lib/libc.so.6
wcstoull                                          /home/tool/arm-hjimi-linux-gnueabi/arm-hjimi-linux-gnueabi/sysroot/lib/libc.so.6
wcstoull@@GLIBC_2.4                               /home/tool/arm-hjimi-linux-gnueabi/arm-hjimi-linux-gnueabi/sysroot/lib/libc.so.6
wcstoull@GLIBC_2.4                                /home/tool/arm-hjimi-linux-gnueabi/arm-hjimi-linux-gnueabi/sysroot/lib/libc.so.6
wcstoull_l                                        /home/tool/arm-hjimi-linux-gnueabi/arm-hjimi-linux-gnueabi/sysroot/lib/libc.so.6
wcstoull_l@@GLIBC_2.4                             /home/tool/arm-hjimi-linux-gnueabi/arm-hjimi-linux-gnueabi/sysroot/lib/libc.so.6
wcstoull_l@GLIBC_2.4                              /home/tool/arm-hjimi-linux-gnueabi/arm-hjimi-linux-gnueabi/sysroot/lib/libc.so.6
wcstouq                                           /home/tool/arm-hjimi-linux-gnueabi/arm-hjimi-linux-gnueabi/sysroot/lib/libc.so.6
wcstouq@@GLIBC_2.4                                /home/tool/arm-hjimi-linux-gnueabi/arm-hjimi-linux-gnueabi/sysroot/lib/libc.so.6
wcstouq@GLIBC_2.4                                 /home/tool/arm-hjimi-linux-gnueabi/arm-hjimi-linux-gnueabi/sysroot/lib/libc.so.6
wcswcs                                            /home/tool/arm-hjimi-linux-gnueabi/arm-hjimi-linux-gnueabi/sysroot/lib/libc.so.6
wcswcs@@GLIBC_2.4                                 /home/tool/arm-hjimi-linux-gnueabi/arm-hjimi-linux-gnueabi/sysroot/lib/libc.so.6
wcswcs@GLIBC_2.4                                  /home/tool/arm-hjimi-linux-gnueabi/arm-hjimi-linux-gnueabi/sysroot/lib/libc.so.6
wcsxfrm_l                                         /home/tool/arm-hjimi-linux-gnueabi/arm-hjimi-linux-gnueabi/sysroot/lib/libc.so.6
wcsxfrm_l@@GLIBC_2.4                              /home/tool/arm-hjimi-linux-gnueabi/arm-hjimi-linux-gnueabi/sysroot/lib/libc.so.6
wcsxfrm_l@GLIBC_2.4                               /home/tool/arm-hjimi-linux-gnueabi/arm-hjimi-linux-gnueabi/sysroot/lib/libc.so.6
wctrans                                           /home/tool/arm-hjimi-linux-gnueabi/arm-hjimi-linux-gnueabi/sysroot/lib/libc.so.6
wctrans@@GLIBC_2.4                                /home/tool/arm-hjimi-linux-gnueabi/arm-hjimi-linux-gnueabi/sysroot/lib/libc.so.6
wctrans@GLIBC_2.4                                 /home/tool/arm-hjimi-linux-gnueabi/arm-hjimi-linux-gnueabi/sysroot/lib/libc.so.6
wctrans_l                                         /home/tool/arm-hjimi-linux-gnueabi/arm-hjimi-linux-gnueabi/sysroot/lib/libc.so.6
wctrans_l@@GLIBC_2.4                              /home/tool/arm-hjimi-linux-gnueabi/arm-hjimi-linux-gnueabi/sysroot/lib/libc.so.6
wctrans_l@GLIBC_2.4                               /home/tool/arm-hjimi-linux-gnueabi/arm-hjimi-linux-gnueabi/sysroot/lib/libc.so.6
wctype                                            /home/tool/arm-hjimi-linux-gnueabi/arm-hjimi-linux-gnueabi/sysroot/lib/libc.so.6
wctype@@GLIBC_2.4                                 /home/tool/arm-hjimi-linux-gnueabi/arm-hjimi-linux-gnueabi/sysroot/lib/libc.so.6
wctype@GLIBC_2.4                                  /home/tool/arm-hjimi-linux-gnueabi/arm-hjimi-linux-gnueabi/sysroot/lib/libc.so.6
wctype_l                                          /home/tool/arm-hjimi-linux-gnueabi/arm-hjimi-linux-gnueabi/sysroot/lib/libc.so.6
wctype_l@@GLIBC_2.4                               /home/tool/arm-hjimi-linux-gnueabi/arm-hjimi-linux-gnueabi/sysroot/lib/libc.so.6
wctype_l@GLIBC_2.4                                /home/tool/arm-hjimi-linux-gnueabi/arm-hjimi-linux-gnueabi/sysroot/lib/libc.so.6
wmemchr                                           /home/tool/arm-hjimi-linux-gnueabi/arm-hjimi-linux-gnueabi/sysroot/lib/libc.so.6
wmemchr@@GLIBC_2.4                                /home/tool/arm-hjimi-linux-gnueabi/arm-hjimi-linux-gnueabi/sysroot/lib/libc.so.6
wmemchr@GLIBC_2.4                                 /home/tool/arm-hjimi-linux-gnueabi/arm-hjimi-linux-gnueabi/sysroot/lib/libc.so.6
wmemcpy                                           /home/tool/arm-hjimi-linux-gnueabi/arm-hjimi-linux-gnueabi/sysroot/lib/libc.so.6
wmemcpy@@GLIBC_2.4                                /home/tool/arm-hjimi-linux-gnueabi/arm-hjimi-linux-gnueabi/sysroot/lib/libc.so.6
wmemcpy@GLIBC_2.4                                 /home/tool/arm-hjimi-linux-gnueabi/arm-hjimi-linux-gnueabi/sysroot/lib/libc.so.6
wmemmove                                          /home/tool/arm-hjimi-linux-gnueabi/arm-hjimi-linux-gnueabi/sysroot/lib/libc.so.6
wmemmove@@GLIBC_2.4                               /home/tool/arm-hjimi-linux-gnueabi/arm-hjimi-linux-gnueabi/sysroot/lib/libc.so.6
wmemmove@GLIBC_2.4                                /home/tool/arm-hjimi-linux-gnueabi/arm-hjimi-linux-gnueabi/sysroot/lib/libc.so.6
wmempcpy                                          /home/tool/arm-hjimi-linux-gnueabi/arm-hjimi-linux-gnueabi/sysroot/lib/libc.so.6
wmempcpy@@GLIBC_2.4                               /home/tool/arm-hjimi-linux-gnueabi/arm-hjimi-linux-gnueabi/sysroot/lib/libc.so.6
wmempcpy@GLIBC_2.4                                /home/tool/arm-hjimi-linux-gnueabi/arm-hjimi-linux-gnueabi/sysroot/lib/libc.so.6
wmemset                                           /home/tool/arm-hjimi-linux-gnueabi/arm-hjimi-linux-gnueabi/sysroot/lib/libc.so.6
wmemset@@GLIBC_2.4                                /home/tool/arm-hjimi-linux-gnueabi/arm-hjimi-linux-gnueabi/sysroot/lib/libc.so.6
wmemset@GLIBC_2.4                                 /home/tool/arm-hjimi-linux-gnueabi/arm-hjimi-linux-gnueabi/sysroot/lib/libc.so.6
write                                             /home/tool/arm-hjimi-linux-gnueabi/arm-hjimi-linux-gnueabi/sysroot/lib/libc.so.6
write32_log1                                      output/drivers/dpu_2280/dpu_dev.o
write@@GLIBC_2.4                                  /home/tool/arm-hjimi-linux-gnueabi/arm-hjimi-linux-gnueabi/sysroot/lib/libc.so.6
write@GLIBC_2.4                                   /home/tool/arm-hjimi-linux-gnueabi/arm-hjimi-linux-gnueabi/sysroot/lib/libc.so.6
writev                                            /home/tool/arm-hjimi-linux-gnueabi/arm-hjimi-linux-gnueabi/sysroot/lib/libc.so.6
writev@@GLIBC_2.4                                 /home/tool/arm-hjimi-linux-gnueabi/arm-hjimi-linux-gnueabi/sysroot/lib/libc.so.6
writev@GLIBC_2.4                                  /home/tool/arm-hjimi-linux-gnueabi/arm-hjimi-linux-gnueabi/sysroot/lib/libc.so.6
xEventGroupClearBits                              output/rtos/event_groups.o
xEventGroupClearBitsFromISR                       output/rtos/event_groups.o
xEventGroupCreate                                 output/rtos/event_groups.o
                                                  output/drivers/ipc/imi_ipc.o
xEventGroupGetBitsFromISR                         output/rtos/event_groups.o
xEventGroupSetBits                                output/rtos/event_groups.o
                                                  output/app/dpu/msg_module.o
xEventGroupSetBitsFromISR                         output/rtos/event_groups.o
                                                  output/app/dpu/msg_module.o
xEventGroupSync                                   output/rtos/event_groups.o
xEventGroupWaitBits                               output/rtos/event_groups.o
                                                  output/app/dpu/dputask.o
xPortGetFreeHeapSize                              output/rtos/portable/MemMang/heap_4.o
                                                  output/tools/FreeRTOS_CLI/imi_console.o
xPortGetMinimumEverFreeHeapSize                   output/rtos/portable/MemMang/heap_4.o
                                                  output/tools/FreeRTOS_CLI/imi_console.o
xPortStartScheduler                               output/rtos/portable/GCC/port.o
                                                  output/rtos/tasks.o
xQueueCreateMutex                                 output/rtos/queue.o
                                                  output/drivers/compat/linux_compat.o
xQueueGenericCreate                               output/rtos/queue.o
                                                  output/drivers/compat/linux_compat.o
                                                  output/rtos/timers.o
xQueueGenericReset                                output/rtos/queue.o
xQueueGenericSend                                 output/rtos/queue.o
                                                  output/drivers/compat/linux_compat.o
                                                  output/rtos/timers.o
xQueueGenericSendFromISR                          output/rtos/queue.o
                                                  output/rtos/timers.o
xQueueGiveFromISR                                 output/rtos/queue.o
                                                  output/drivers/compat/linux_compat.o
xQueueGiveMutexRecursive                          output/rtos/queue.o
                                                  output/drivers/compat/linux_compat.o
xQueueIsQueueEmptyFromISR                         output/rtos/queue.o
xQueueIsQueueFullFromISR                          output/rtos/queue.o
xQueuePeek                                        output/rtos/queue.o
xQueuePeekFromISR                                 output/rtos/queue.o
xQueueReceive                                     output/rtos/queue.o
                                                  output/rtos/timers.o
xQueueReceiveFromISR                              output/rtos/queue.o
xQueueRegistry                                    output/rtos/queue.o
xQueueSemaphoreTake                               output/rtos/queue.o
                                                  output/drivers/compat/linux_compat.o
xQueueTakeMutexRecursive                          output/rtos/queue.o
                                                  output/drivers/compat/linux_compat.o
xStreamBufferBytesAvailable                       output/rtos/stream_buffer.o
xStreamBufferGenericCreate                        output/rtos/stream_buffer.o
xStreamBufferIsEmpty                              output/rtos/stream_buffer.o
xStreamBufferIsFull                               output/rtos/stream_buffer.o
xStreamBufferNextMessageLengthBytes               output/rtos/stream_buffer.o
xStreamBufferReceive                              output/rtos/stream_buffer.o
xStreamBufferReceiveCompletedFromISR              output/rtos/stream_buffer.o
xStreamBufferReceiveFromISR                       output/rtos/stream_buffer.o
xStreamBufferReset                                output/rtos/stream_buffer.o
xStreamBufferSend                                 output/rtos/stream_buffer.o
xStreamBufferSendCompletedFromISR                 output/rtos/stream_buffer.o
xStreamBufferSendFromISR                          output/rtos/stream_buffer.o
xStreamBufferSetTriggerLevel                      output/rtos/stream_buffer.o
xStreamBufferSpacesAvailable                      output/rtos/stream_buffer.o
xTaskCatchUpTicks                                 output/rtos/tasks.o
xTaskCheckForTimeOut                              output/rtos/tasks.o
                                                  output/rtos/stream_buffer.o
                                                  output/rtos/queue.o
xTaskCreate                                       output/rtos/tasks.o
                                                  output/drivers/base/imi_work.o
                                                  output/app/imi_app/vendor/vendor_device.o
                                                  output/app/imi_app/vendor/cmd_hal.o
                                                  output/app/imi_app/subsystem/usb/vendor_usb.o
                                                  output/app/dpu/dputask.o
                                                  output/main/main.o
                                                  output/rtos/timers.o
xTaskGenericNotify                                output/rtos/tasks.o
                                                  output/app/imi_app/vendor/vendor_device.o
                                                  output/app/imi_app/subsystem/usb/vendor_usb.o
                                                  output/rtos/stream_buffer.o
xTaskGenericNotifyFromISR                         output/rtos/tasks.o
                                                  output/rtos/stream_buffer.o
xTaskGetCurrentTaskHandle                         output/rtos/tasks.o
                                                  output/main/uart_task.o
                                                  output/rtos/stream_buffer.o
                                                  output/rtos/queue.o
xTaskGetSchedulerState                            output/rtos/tasks.o
                                                  output/rtos/timers.o
                                                  output/rtos/queue.o
                                                  output/rtos/event_groups.o
xTaskGetTickCount                                 output/rtos/tasks.o
                                                  output/drivers/i2c/i2c_core.o
                                                  output/drivers/dma/dmaengine.o
                                                  output/rtos/timers.o
xTaskGetTickCountFromISR                          output/rtos/tasks.o
xTaskIncrementTick                                output/rtos/tasks.o
                                                  output/drivers/timers/timer_imi2280.o
xTaskNotifyStateClear                             output/rtos/tasks.o
                                                  output/rtos/stream_buffer.o
xTaskNotifyWait                                   output/rtos/tasks.o
                                                  output/rtos/stream_buffer.o
xTaskPriorityDisinherit                           output/rtos/tasks.o
                                                  output/rtos/queue.o
xTaskPriorityInherit                              output/rtos/tasks.o
                                                  output/rtos/queue.o
xTaskRemoveFromEventList                          output/rtos/tasks.o
                                                  output/rtos/queue.o
xTaskResumeAll                                    output/rtos/tasks.o
                                                  output/rtos/timers.o
                                                  output/rtos/stream_buffer.o
                                                  output/rtos/queue.o
                                                  output/rtos/portable/MemMang/heap_4.o
                                                  output/rtos/event_groups.o
xTaskResumeFromISR                                output/rtos/tasks.o
xTimerCreate                                      output/rtos/timers.o
xTimerCreateTimerTask                             output/rtos/timers.o
                                                  output/rtos/tasks.o
xTimerCreateTimerTask10                           output/rtos/timers.o
xTimerGenericCommand                              output/rtos/timers.o
xTimerGetExpiryTime                               output/rtos/timers.o
xTimerGetPeriod                                   output/rtos/timers.o
xTimerGetTimerDaemonTaskHandle                    output/rtos/timers.o
xTimerIsTimerActive                               output/rtos/timers.o
xTimerPendFunctionCall                            output/rtos/timers.o
xTimerPendFunctionCallFromISR                     output/rtos/timers.o
                                                  output/rtos/event_groups.o
xl_test                                           output/main/main.o
